gpasm-1.5.0 #1285 (Sep 12 2016) build/default   7-4-2017  20:27:39          PAGE  1


LOC    OBJECT CODE    LINE  SOURCE TEXT
  VALUE

                      00001 ;--------------------------------------------------------
                      00002 ; File Created by SDCC : free open source ANSI-C Compiler
                      00003 ; Version 3.6.0 #9615 (MINGW64)
                      00004 ;--------------------------------------------------------
                      00005 ; PIC16 port for the Microchip 16-bit core micros
                      00006 ;--------------------------------------------------------
                      00007         list    p=18f4520
                      00008         radix   dec
                      00009 
                      00010 
                      00011 ;--------------------------------------------------------
                      00012 ; public variables in this module
                      00013 ;--------------------------------------------------------
  0000                00014         global  _outputInit
  0000                00015         global  _outputPrint
  0000                00016         global  _ADread
  0000                00017         global  _i
                      00018 
                      00019 ;--------------------------------------------------------
                      00020 ; extern variables in this module
                      00021 ;--------------------------------------------------------
  0000                00022         extern  _Delay2ms
  0000                00023         extern  _lcdCommand
  0000                00024         extern  _lcdString
  0000                00025         extern  _lcdInt
  0000                00026         extern  _lcdInit
  0000                00027         extern  _getPeriodo
  0000                00028         extern  _getTime
  0000                00029         extern  _getMult
  0000                00030         extern  _getAlarmLevel
  0000                00031         extern  _getLanguage
  0000                00032         extern  _getSenha_i
  0000                00033         extern  _getSenha_try
  0000                00034         extern  _getTestResult
  0000                00035         extern  __mulint
                      00036 
                      00037 ;--------------------------------------------------------
                      00038 ;       Equates to used internal registers
                      00039 ;--------------------------------------------------------
  00000FD8            00040 STATUS  equ     0xfd8
  00000FE9            00041 FSR0L   equ     0xfe9
  00000FEA            00042 FSR0H   equ     0xfea
  00000FE1            00043 FSR1L   equ     0xfe1
  00000FD9            00044 FSR2L   equ     0xfd9
  00000FEF            00045 INDF0   equ     0xfef
  00000FEE            00046 POSTINC0        equ     0xfee
  00000FE6            00047 POSTINC1        equ     0xfe6
  00000FE5            00048 POSTDEC1        equ     0xfe5
  00000FE4            00049 PREINC1 equ     0xfe4
  00000FDB            00050 PLUSW2  equ     0xfdb
  00000FF3            00051 PRODL   equ     0xff3
                      00052 
                      00053 
gpasm-1.5.0 #1285 (Sep 12 2016) build/default   7-4-2017  20:27:39          PAGE  2


LOC    OBJECT CODE    LINE  SOURCE TEXT
  VALUE

                      00054         idata
000000 00 00 00 00 00 00055 _msgs   db      LOW(___str_50), HIGH(___str_50), UPPER(___str_50), LOW(___str_51), HIGH(___str_51), UPPE
                            R(___str_51), LOW(___str_52), HIGH(___str_52), UPPER(___str_52), LOW(___str_53), HIGH(___str_53), UPPER(
                            ___str_53)
       00 00 00 00 00 
       00 00          
00000C 00 00 00 00 00 00056         db      LOW(___str_54), HIGH(___str_54), UPPER(___str_54), LOW(___str_55), HIGH(___str_55), UPPE
                            R(___str_55), LOW(___str_56), HIGH(___str_56), UPPER(___str_56), LOW(___str_57), HIGH(___str_57), UPPER(
                            ___str_57)
       00 00 00 00 00 
       00 00          
000018 00 00 00 00 00 00057         db      LOW(___str_58), HIGH(___str_58), UPPER(___str_58), LOW(___str_59), HIGH(___str_59), UPPE
                            R(___str_59), LOW(___str_58), HIGH(___str_58), UPPER(___str_58), LOW(___str_59), HIGH(___str_59), UPPER(
                            ___str_59)
       00 00 00 00 00 
       00 00          
000024 00 00 00 00 00 00058         db      LOW(___str_58), HIGH(___str_58), UPPER(___str_58), LOW(___str_59), HIGH(___str_59), UPPE
                            R(___str_59), LOW(___str_58), HIGH(___str_58), UPPER(___str_58), LOW(___str_59), HIGH(___str_59), UPPER(
                            ___str_59)
       00 00 00 00 00 
       00 00          
000030 00 00 00 00 00 00059         db      LOW(___str_60), HIGH(___str_60), UPPER(___str_60), LOW(___str_61), HIGH(___str_61), UPPE
                            R(___str_61), LOW(___str_62), HIGH(___str_62), UPPER(___str_62), LOW(___str_63), HIGH(___str_63), UPPER(
                            ___str_63)
       00 00 00 00 00 
       00 00          
00003C 00 00 00 00 00 00060         db      LOW(___str_62), HIGH(___str_62), UPPER(___str_62), LOW(___str_63), HIGH(___str_63), UPPE
                            R(___str_63), LOW(___str_62), HIGH(___str_62), UPPER(___str_62), LOW(___str_63), HIGH(___str_63), UPPER(
                            ___str_63)
       00 00 00 00 00 
       00 00          
000048 00 00 00 00 00 00061         db      LOW(___str_64), HIGH(___str_64), UPPER(___str_64), LOW(___str_65), HIGH(___str_65), UPPE
                            R(___str_65), LOW(___str_66), HIGH(___str_66), UPPER(___str_66), LOW(___str_67), HIGH(___str_67), UPPER(
                            ___str_67)
       00 00 00 00 00 
       00 00          
000054 00 00 00 00 00 00062         db      LOW(___str_68), HIGH(___str_68), UPPER(___str_68), LOW(___str_69), HIGH(___str_69), UPPE
                            R(___str_69), LOW(___str_70), HIGH(___str_70), UPPER(___str_70), LOW(___str_71), HIGH(___str_71), UPPER(
                            ___str_71)
       00 00 00 00 00 
       00 00          
000060 00 00 00 00 00 00063         db      LOW(___str_72), HIGH(___str_72), UPPER(___str_72), LOW(___str_73), HIGH(___str_73), UPPE
                            R(___str_73), LOW(___str_72), HIGH(___str_72), UPPER(___str_72), LOW(___str_73), HIGH(___str_73), UPPER(
                            ___str_73)
       00 00 00 00 00 
       00 00          
00006C 00 00 00 00 00 00064         db      LOW(___str_72), HIGH(___str_72), UPPER(___str_72), LOW(___str_73), HIGH(___str_73), UPPE
                            R(___str_73), LOW(___str_74), HIGH(___str_74), UPPER(___str_74), LOW(___str_75), HIGH(___str_75), UPPER(
                            ___str_75)
       00 00 00 00 00 
       00 00          
000078 00 00 00 00 00 00065         db      LOW(___str_76), HIGH(___str_76), UPPER(___str_76), LOW(___str_77), HIGH(___str_77), UPPE
                            R(___str_77), LOW(___str_76), HIGH(___str_76), UPPER(___str_76), LOW(___str_77), HIGH(___str_77), UPPER(
gpasm-1.5.0 #1285 (Sep 12 2016) build/default   7-4-2017  20:27:39          PAGE  3


LOC    OBJECT CODE    LINE  SOURCE TEXT
  VALUE

                            ___str_77)
       00 00 00 00 00 
       00 00          
000084 00 00 00 00 00 00066         db      LOW(___str_76), HIGH(___str_76), UPPER(___str_76), LOW(___str_77), HIGH(___str_77), UPPE
                            R(___str_77), LOW(___str_78), HIGH(___str_78), UPPER(___str_78), LOW(___str_79), HIGH(___str_79), UPPER(
                            ___str_79)
       00 00 00 00 00 
       00 00          
000090 00 00 00 00 00 00067         db      LOW(___str_80), HIGH(___str_80), UPPER(___str_80), LOW(___str_81), HIGH(___str_81), UPPE
                            R(___str_81), LOW(___str_82), HIGH(___str_82), UPPER(___str_82), LOW(___str_83), HIGH(___str_83), UPPER(
                            ___str_83)
       00 00 00 00 00 
       00 00          
00009C 00 00 00 00 00 00068         db      LOW(___str_84), HIGH(___str_84), UPPER(___str_84), LOW(___str_85), HIGH(___str_85), UPPE
                            R(___str_85), LOW(___str_86), HIGH(___str_86), UPPER(___str_86), LOW(___str_87), HIGH(___str_87), UPPER(
                            ___str_87)
       00 00 00 00 00 
       00 00          
0000A8 00 00 00 00 00 00069         db      LOW(___str_88), HIGH(___str_88), UPPER(___str_88), LOW(___str_89), HIGH(___str_89), UPPE
                            R(___str_89), LOW(___str_90), HIGH(___str_90), UPPER(___str_90), LOW(___str_91), HIGH(___str_91), UPPER(
                            ___str_91)
       00 00 00 00 00 
       00 00          
0000B4 00 00 00 00 00 00070         db      LOW(___str_92), HIGH(___str_92), UPPER(___str_92), LOW(___str_93), HIGH(___str_93), UPPE
                            R(___str_93), LOW(___str_94), HIGH(___str_94), UPPER(___str_94), LOW(___str_95), HIGH(___str_95), UPPER(
                            ___str_95)
       00 00 00 00 00 
       00 00          
0000C0 00 00 00 00 00 00071         db      LOW(___str_52), HIGH(___str_52), UPPER(___str_52), LOW(___str_53), HIGH(___str_53), UPPE
                            R(___str_53), LOW(___str_52), HIGH(___str_52), UPPER(___str_52), LOW(___str_53), HIGH(___str_53), UPPER(
                            ___str_53)
       00 00 00 00 00 
       00 00          
                      00072 
                      00073 
                      00074 ; Internal registers
                      00075 .registers      udata_ovr       0x0000
000000                00076 r0x00   res     1
000001                00077 r0x01   res     1
000002                00078 r0x02   res     1
000003                00079 r0x03   res     1
000004                00080 r0x04   res     1
000005                00081 r0x05   res     1
000006                00082 r0x06   res     1
000007                00083 r0x07   res     1
                      00084 
                      00085 udata_output_0  udata
000000                00086 _ADread res     2
                      00087 
                      00088 udata_output_1  udata
000000                00089 _i      res     2
                      00090 
                      00091 ;--------------------------------------------------------
gpasm-1.5.0 #1285 (Sep 12 2016) build/default   7-4-2017  20:27:39          PAGE  4


LOC    OBJECT CODE    LINE  SOURCE TEXT
  VALUE

                      00092 ; global & static initialisations
                      00093 ;--------------------------------------------------------
                      00094 ; I code from now on!
                      00095 ; ; Starting pCode block
                      00096 S_output__outputPrint   code
000000                00097 _outputPrint:
                      00098 ;       .line   58; output.c    void outputPrint(int numTela, int idioma) {
000000 CFD9 FFE5      00099         MOVFF   FSR2L, POSTDEC1
000004 CFE1 FFD9      00100         MOVFF   FSR1L, FSR2L
000008 C??? F???      00101         MOVFF   r0x00, POSTDEC1
00000C C??? F???      00102         MOVFF   r0x01, POSTDEC1
000010 C??? F???      00103         MOVFF   r0x02, POSTDEC1
000014 C??? F???      00104         MOVFF   r0x03, POSTDEC1
000018 C??? F???      00105         MOVFF   r0x04, POSTDEC1
00001C C??? F???      00106         MOVFF   r0x05, POSTDEC1
000020 C??? F???      00107         MOVFF   r0x06, POSTDEC1
000024 C??? F???      00108         MOVFF   r0x07, POSTDEC1
000028 0E02           00109         MOVLW   0x02
00002A CFDB F000      00110         MOVFF   PLUSW2, r0x00
00002E 0E03           00111         MOVLW   0x03
000030 CFDB F000      00112         MOVFF   PLUSW2, r0x01
000034 0E04           00113         MOVLW   0x04
000036 CFDB F000      00114         MOVFF   PLUSW2, r0x02
00003A 0E05           00115         MOVLW   0x05
00003C CFDB F000      00116         MOVFF   PLUSW2, r0x03
                      00117 ;       .line   60; output.c    if (numTela == STATE_OP) {
000040 50??           00118         MOVF    r0x00, W
000042 10??           00119         IORWF   r0x01, W
000044 A4D8           00120         BTFSS   STATUS, 2
000046 D???           00121         BRA     _00111_DS_
                      00122 ;       .line   61; output.c    lcdCommand(0x80);
000048 0E80           00123         MOVLW   0x80
00004A 6EE5           00124         MOVWF   POSTDEC1
00004C EC?? F0??      00125         CALL    _lcdCommand
000050 52E6           00126         MOVF    POSTINC1, F
                      00127 ;       .line   62; output.c    lcdString(msgs[numTela][idioma]);
000052 50??           00128         MOVF    r0x01, W
000054 6EE5           00129         MOVWF   POSTDEC1
000056 50??           00130         MOVF    r0x00, W
000058 6EE5           00131         MOVWF   POSTDEC1
00005A 0E00           00132         MOVLW   0x00
00005C 6EE5           00133         MOVWF   POSTDEC1
00005E 0E06           00134         MOVLW   0x06
000060 6EE5           00135         MOVWF   POSTDEC1
000062 EC?? F0??      00136         CALL    __mulint
000066 6E??           00137         MOVWF   r0x04
000068 CFF3 F000      00138         MOVFF   PRODL, r0x05
00006C 0E04           00139         MOVLW   0x04
00006E 26E1           00140         ADDWF   FSR1L, F
000070 0E??           00141         MOVLW   LOW(_msgs)
000072 26??           00142         ADDWF   r0x04, F
000074 0E??           00143         MOVLW   HIGH(_msgs)
000076 22??           00144         ADDWFC  r0x05, F
gpasm-1.5.0 #1285 (Sep 12 2016) build/default   7-4-2017  20:27:39          PAGE  5


LOC    OBJECT CODE    LINE  SOURCE TEXT
  VALUE

000078 50??           00145         MOVF    r0x03, W
00007A 6EE5           00146         MOVWF   POSTDEC1
00007C 50??           00147         MOVF    r0x02, W
00007E 6EE5           00148         MOVWF   POSTDEC1
000080 0E00           00149         MOVLW   0x00
000082 6EE5           00150         MOVWF   POSTDEC1
000084 0E03           00151         MOVLW   0x03
000086 6EE5           00152         MOVWF   POSTDEC1
000088 EC?? F0??      00153         CALL    __mulint
00008C 6E??           00154         MOVWF   r0x06
00008E CFF3 F000      00155         MOVFF   PRODL, r0x07
000092 0E04           00156         MOVLW   0x04
000094 26E1           00157         ADDWF   FSR1L, F
000096 50??           00158         MOVF    r0x06, W
000098 26??           00159         ADDWF   r0x04, F
00009A 50??           00160         MOVF    r0x07, W
00009C 22??           00161         ADDWFC  r0x05, F
00009E C??? F???      00162         MOVFF   r0x04, FSR0L
0000A2 C??? F???      00163         MOVFF   r0x05, FSR0H
0000A6 CFEE F000      00164         MOVFF   POSTINC0, r0x04
0000AA CFEE F000      00165         MOVFF   POSTINC0, r0x05
0000AE CFEF F000      00166         MOVFF   INDF0, r0x06
0000B2 50??           00167         MOVF    r0x06, W
0000B4 6EE5           00168         MOVWF   POSTDEC1
0000B6 50??           00169         MOVF    r0x05, W
0000B8 6EE5           00170         MOVWF   POSTDEC1
0000BA 50??           00171         MOVF    r0x04, W
0000BC 6EE5           00172         MOVWF   POSTDEC1
0000BE EC?? F0??      00173         CALL    _lcdString
0000C2 0E03           00174         MOVLW   0x03
0000C4 26E1           00175         ADDWF   FSR1L, F
                      00176 ;       .line   63; output.c    lcdString(" ");
0000C6 0E??           00177         MOVLW   UPPER(___str_0)
0000C8 6E??           00178         MOVWF   r0x06
0000CA 0E??           00179         MOVLW   HIGH(___str_0)
0000CC 6E??           00180         MOVWF   r0x05
0000CE 0E??           00181         MOVLW   LOW(___str_0)
0000D0 6E??           00182         MOVWF   r0x04
0000D2 50??           00183         MOVF    r0x06, W
0000D4 6EE5           00184         MOVWF   POSTDEC1
0000D6 50??           00185         MOVF    r0x05, W
0000D8 6EE5           00186         MOVWF   POSTDEC1
0000DA 50??           00187         MOVF    r0x04, W
0000DC 6EE5           00188         MOVWF   POSTDEC1
0000DE EC?? F0??      00189         CALL    _lcdString
0000E2 0E03           00190         MOVLW   0x03
0000E4 26E1           00191         ADDWF   FSR1L, F
0000E6 010?           00192         BANKSEL (_ADread + 1)
                      00193 ;       .line   64; output.c    lcdInt(ADread);  //criar função getRead
0000E8 51??           00194         MOVF    (_ADread + 1), W, B
0000EA 6EE5           00195         MOVWF   POSTDEC1
0000EC 010?           00196         BANKSEL _ADread
0000EE 51??           00197         MOVF    _ADread, W, B
gpasm-1.5.0 #1285 (Sep 12 2016) build/default   7-4-2017  20:27:39          PAGE  6


LOC    OBJECT CODE    LINE  SOURCE TEXT
  VALUE

0000F0 6EE5           00198         MOVWF   POSTDEC1
0000F2 EC?? F0??      00199         CALL    _lcdInt
0000F6 52E6           00200         MOVF    POSTINC1, F
0000F8 52E6           00201         MOVF    POSTINC1, F
                      00202 ;       .line   65; output.c    lcdString("(uni)"); //colocar a unidade ou deixar assim genérico
0000FA 0E??           00203         MOVLW   UPPER(___str_1)
0000FC 6E??           00204         MOVWF   r0x06
0000FE 0E??           00205         MOVLW   HIGH(___str_1)
000100 6E??           00206         MOVWF   r0x05
000102 0E??           00207         MOVLW   LOW(___str_1)
000104 6E??           00208         MOVWF   r0x04
000106 50??           00209         MOVF    r0x06, W
000108 6EE5           00210         MOVWF   POSTDEC1
00010A 50??           00211         MOVF    r0x05, W
00010C 6EE5           00212         MOVWF   POSTDEC1
00010E 50??           00213         MOVF    r0x04, W
000110 6EE5           00214         MOVWF   POSTDEC1
000112 EC?? F0??      00215         CALL    _lcdString
000116 0E03           00216         MOVLW   0x03
000118 26E1           00217         ADDWF   FSR1L, F
                      00218 ;       .line   66; output.c    lcdCommand(0xC0);
00011A 0EC0           00219         MOVLW   0xc0
00011C 6EE5           00220         MOVWF   POSTDEC1
00011E EC?? F0??      00221         CALL    _lcdCommand
000122 52E6           00222         MOVF    POSTINC1, F
                      00223 ;       .line   67; output.c    lcdInt(getPeriodo(3));
000124 0E00           00224         MOVLW   0x00
000126 6EE5           00225         MOVWF   POSTDEC1
000128 0E03           00226         MOVLW   0x03
00012A 6EE5           00227         MOVWF   POSTDEC1
00012C EC?? F0??      00228         CALL    _getPeriodo
000130 6E??           00229         MOVWF   r0x04
000132 52E6           00230         MOVF    POSTINC1, F
000134 52E6           00231         MOVF    POSTINC1, F
000136 6A??           00232         CLRF    r0x05
000138 50??           00233         MOVF    r0x05, W
00013A 6EE5           00234         MOVWF   POSTDEC1
00013C 50??           00235         MOVF    r0x04, W
00013E 6EE5           00236         MOVWF   POSTDEC1
000140 EC?? F0??      00237         CALL    _lcdInt
000144 52E6           00238         MOVF    POSTINC1, F
000146 52E6           00239         MOVF    POSTINC1, F
                      00240 ;       .line   68; output.c    lcdString("/");
000148 0E??           00241         MOVLW   UPPER(___str_2)
00014A 6E??           00242         MOVWF   r0x06
00014C 0E??           00243         MOVLW   HIGH(___str_2)
00014E 6E??           00244         MOVWF   r0x05
000150 0E??           00245         MOVLW   LOW(___str_2)
000152 6E??           00246         MOVWF   r0x04
000154 50??           00247         MOVF    r0x06, W
000156 6EE5           00248         MOVWF   POSTDEC1
000158 50??           00249         MOVF    r0x05, W
00015A 6EE5           00250         MOVWF   POSTDEC1
gpasm-1.5.0 #1285 (Sep 12 2016) build/default   7-4-2017  20:27:39          PAGE  7


LOC    OBJECT CODE    LINE  SOURCE TEXT
  VALUE

00015C 50??           00251         MOVF    r0x04, W
00015E 6EE5           00252         MOVWF   POSTDEC1
000160 EC?? F0??      00253         CALL    _lcdString
000164 0E03           00254         MOVLW   0x03
000166 26E1           00255         ADDWF   FSR1L, F
                      00256 ;       .line   69; output.c    lcdInt(getPeriodo(4));
000168 0E00           00257         MOVLW   0x00
00016A 6EE5           00258         MOVWF   POSTDEC1
00016C 0E04           00259         MOVLW   0x04
00016E 6EE5           00260         MOVWF   POSTDEC1
000170 EC?? F0??      00261         CALL    _getPeriodo
000174 6E??           00262         MOVWF   r0x04
000176 52E6           00263         MOVF    POSTINC1, F
000178 52E6           00264         MOVF    POSTINC1, F
00017A 6A??           00265         CLRF    r0x05
00017C 50??           00266         MOVF    r0x05, W
00017E 6EE5           00267         MOVWF   POSTDEC1
000180 50??           00268         MOVF    r0x04, W
000182 6EE5           00269         MOVWF   POSTDEC1
000184 EC?? F0??      00270         CALL    _lcdInt
000188 52E6           00271         MOVF    POSTINC1, F
00018A 52E6           00272         MOVF    POSTINC1, F
                      00273 ;       .line   70; output.c    lcdString("/");
00018C 0E??           00274         MOVLW   UPPER(___str_2)
00018E 6E??           00275         MOVWF   r0x06
000190 0E??           00276         MOVLW   HIGH(___str_2)
000192 6E??           00277         MOVWF   r0x05
000194 0E??           00278         MOVLW   LOW(___str_2)
000196 6E??           00279         MOVWF   r0x04
000198 50??           00280         MOVF    r0x06, W
00019A 6EE5           00281         MOVWF   POSTDEC1
00019C 50??           00282         MOVF    r0x05, W
00019E 6EE5           00283         MOVWF   POSTDEC1
0001A0 50??           00284         MOVF    r0x04, W
0001A2 6EE5           00285         MOVWF   POSTDEC1
0001A4 EC?? F0??      00286         CALL    _lcdString
0001A8 0E03           00287         MOVLW   0x03
0001AA 26E1           00288         ADDWF   FSR1L, F
                      00289 ;       .line   71; output.c    lcdInt(getPeriodo(5));
0001AC 0E00           00290         MOVLW   0x00
0001AE 6EE5           00291         MOVWF   POSTDEC1
0001B0 0E05           00292         MOVLW   0x05
0001B2 6EE5           00293         MOVWF   POSTDEC1
0001B4 EC?? F0??      00294         CALL    _getPeriodo
0001B8 6E??           00295         MOVWF   r0x04
0001BA 52E6           00296         MOVF    POSTINC1, F
0001BC 52E6           00297         MOVF    POSTINC1, F
0001BE 6A??           00298         CLRF    r0x05
0001C0 50??           00299         MOVF    r0x05, W
0001C2 6EE5           00300         MOVWF   POSTDEC1
0001C4 50??           00301         MOVF    r0x04, W
0001C6 6EE5           00302         MOVWF   POSTDEC1
0001C8 EC?? F0??      00303         CALL    _lcdInt
gpasm-1.5.0 #1285 (Sep 12 2016) build/default   7-4-2017  20:27:39          PAGE  8


LOC    OBJECT CODE    LINE  SOURCE TEXT
  VALUE

0001CC 52E6           00304         MOVF    POSTINC1, F
0001CE 52E6           00305         MOVF    POSTINC1, F
                      00306 ;       .line   72; output.c    lcdString("  ");
0001D0 0E??           00307         MOVLW   UPPER(___str_3)
0001D2 6E??           00308         MOVWF   r0x06
0001D4 0E??           00309         MOVLW   HIGH(___str_3)
0001D6 6E??           00310         MOVWF   r0x05
0001D8 0E??           00311         MOVLW   LOW(___str_3)
0001DA 6E??           00312         MOVWF   r0x04
0001DC 50??           00313         MOVF    r0x06, W
0001DE 6EE5           00314         MOVWF   POSTDEC1
0001E0 50??           00315         MOVF    r0x05, W
0001E2 6EE5           00316         MOVWF   POSTDEC1
0001E4 50??           00317         MOVF    r0x04, W
0001E6 6EE5           00318         MOVWF   POSTDEC1
0001E8 EC?? F0??      00319         CALL    _lcdString
0001EC 0E03           00320         MOVLW   0x03
0001EE 26E1           00321         ADDWF   FSR1L, F
                      00322 ;       .line   73; output.c    lcdInt(getPeriodo(1));
0001F0 0E00           00323         MOVLW   0x00
0001F2 6EE5           00324         MOVWF   POSTDEC1
0001F4 0E01           00325         MOVLW   0x01
0001F6 6EE5           00326         MOVWF   POSTDEC1
0001F8 EC?? F0??      00327         CALL    _getPeriodo
0001FC 6E??           00328         MOVWF   r0x04
0001FE 52E6           00329         MOVF    POSTINC1, F
000200 52E6           00330         MOVF    POSTINC1, F
000202 6A??           00331         CLRF    r0x05
000204 50??           00332         MOVF    r0x05, W
000206 6EE5           00333         MOVWF   POSTDEC1
000208 50??           00334         MOVF    r0x04, W
00020A 6EE5           00335         MOVWF   POSTDEC1
00020C EC?? F0??      00336         CALL    _lcdInt
000210 52E6           00337         MOVF    POSTINC1, F
000212 52E6           00338         MOVF    POSTINC1, F
                      00339 ;       .line   74; output.c    lcdString(":");
000214 0E??           00340         MOVLW   UPPER(___str_4)
000216 6E??           00341         MOVWF   r0x06
000218 0E??           00342         MOVLW   HIGH(___str_4)
00021A 6E??           00343         MOVWF   r0x05
00021C 0E??           00344         MOVLW   LOW(___str_4)
00021E 6E??           00345         MOVWF   r0x04
000220 50??           00346         MOVF    r0x06, W
000222 6EE5           00347         MOVWF   POSTDEC1
000224 50??           00348         MOVF    r0x05, W
000226 6EE5           00349         MOVWF   POSTDEC1
000228 50??           00350         MOVF    r0x04, W
00022A 6EE5           00351         MOVWF   POSTDEC1
00022C EC?? F0??      00352         CALL    _lcdString
000230 0E03           00353         MOVLW   0x03
000232 26E1           00354         ADDWF   FSR1L, F
                      00355 ;       .line   75; output.c    lcdInt(getPeriodo(2));
000234 0E00           00356         MOVLW   0x00
gpasm-1.5.0 #1285 (Sep 12 2016) build/default   7-4-2017  20:27:39          PAGE  9


LOC    OBJECT CODE    LINE  SOURCE TEXT
  VALUE

000236 6EE5           00357         MOVWF   POSTDEC1
000238 0E02           00358         MOVLW   0x02
00023A 6EE5           00359         MOVWF   POSTDEC1
00023C EC?? F0??      00360         CALL    _getPeriodo
000240 6E??           00361         MOVWF   r0x04
000242 52E6           00362         MOVF    POSTINC1, F
000244 52E6           00363         MOVF    POSTINC1, F
000246 6A??           00364         CLRF    r0x05
000248 50??           00365         MOVF    r0x05, W
00024A 6EE5           00366         MOVWF   POSTDEC1
00024C 50??           00367         MOVF    r0x04, W
00024E 6EE5           00368         MOVWF   POSTDEC1
000250 EC?? F0??      00369         CALL    _lcdInt
000254 52E6           00370         MOVF    POSTINC1, F
000256 52E6           00371         MOVF    POSTINC1, F
                      00372 ;       .line   76; output.c    lcdString(" ");
000258 0E??           00373         MOVLW   UPPER(___str_0)
00025A 6E??           00374         MOVWF   r0x06
00025C 0E??           00375         MOVLW   HIGH(___str_0)
00025E 6E??           00376         MOVWF   r0x05
000260 0E??           00377         MOVLW   LOW(___str_0)
000262 6E??           00378         MOVWF   r0x04
000264 50??           00379         MOVF    r0x06, W
000266 6EE5           00380         MOVWF   POSTDEC1
000268 50??           00381         MOVF    r0x05, W
00026A 6EE5           00382         MOVWF   POSTDEC1
00026C 50??           00383         MOVF    r0x04, W
00026E 6EE5           00384         MOVWF   POSTDEC1
000270 EC?? F0??      00385         CALL    _lcdString
000274 0E03           00386         MOVLW   0x03
000276 26E1           00387         ADDWF   FSR1L, F
000278                00388 _00111_DS_:
                      00389 ;       .line   80; output.c    if (numTela == SECURITY_CONFIG) {
000278 50??           00390         MOVF    r0x00, W
00027A 0A01           00391         XORLW   0x01
00027C E1??           00392         BNZ     _00722_DS_
00027E 50??           00393         MOVF    r0x01, W
000280 E0??           00394         BZ      _00723_DS_
000282                00395 _00722_DS_:
000282 D???           00396         BRA     _00133_DS_
000284                00397 _00723_DS_:
                      00398 ;       .line   81; output.c    lcdCommand(0x80);
000284 0E80           00399         MOVLW   0x80
000286 6EE5           00400         MOVWF   POSTDEC1
000288 EC?? F0??      00401         CALL    _lcdCommand
00028C 52E6           00402         MOVF    POSTINC1, F
                      00403 ;       .line   82; output.c    lcdString(msgs[numTela][idioma]);
00028E 50??           00404         MOVF    r0x01, W
000290 6EE5           00405         MOVWF   POSTDEC1
000292 50??           00406         MOVF    r0x00, W
000294 6EE5           00407         MOVWF   POSTDEC1
000296 0E00           00408         MOVLW   0x00
000298 6EE5           00409         MOVWF   POSTDEC1
gpasm-1.5.0 #1285 (Sep 12 2016) build/default   7-4-2017  20:27:39          PAGE 10


LOC    OBJECT CODE    LINE  SOURCE TEXT
  VALUE

00029A 0E06           00410         MOVLW   0x06
00029C 6EE5           00411         MOVWF   POSTDEC1
00029E EC?? F0??      00412         CALL    __mulint
0002A2 6E??           00413         MOVWF   r0x04
0002A4 CFF3 F000      00414         MOVFF   PRODL, r0x05
0002A8 0E04           00415         MOVLW   0x04
0002AA 26E1           00416         ADDWF   FSR1L, F
0002AC 0E??           00417         MOVLW   LOW(_msgs)
0002AE 26??           00418         ADDWF   r0x04, F
0002B0 0E??           00419         MOVLW   HIGH(_msgs)
0002B2 22??           00420         ADDWFC  r0x05, F
0002B4 50??           00421         MOVF    r0x03, W
0002B6 6EE5           00422         MOVWF   POSTDEC1
0002B8 50??           00423         MOVF    r0x02, W
0002BA 6EE5           00424         MOVWF   POSTDEC1
0002BC 0E00           00425         MOVLW   0x00
0002BE 6EE5           00426         MOVWF   POSTDEC1
0002C0 0E03           00427         MOVLW   0x03
0002C2 6EE5           00428         MOVWF   POSTDEC1
0002C4 EC?? F0??      00429         CALL    __mulint
0002C8 6E??           00430         MOVWF   r0x06
0002CA CFF3 F000      00431         MOVFF   PRODL, r0x07
0002CE 0E04           00432         MOVLW   0x04
0002D0 26E1           00433         ADDWF   FSR1L, F
0002D2 50??           00434         MOVF    r0x06, W
0002D4 26??           00435         ADDWF   r0x04, F
0002D6 50??           00436         MOVF    r0x07, W
0002D8 22??           00437         ADDWFC  r0x05, F
0002DA C??? F???      00438         MOVFF   r0x04, FSR0L
0002DE C??? F???      00439         MOVFF   r0x05, FSR0H
0002E2 CFEE F000      00440         MOVFF   POSTINC0, r0x04
0002E6 CFEE F000      00441         MOVFF   POSTINC0, r0x05
0002EA CFEF F000      00442         MOVFF   INDF0, r0x06
0002EE 50??           00443         MOVF    r0x06, W
0002F0 6EE5           00444         MOVWF   POSTDEC1
0002F2 50??           00445         MOVF    r0x05, W
0002F4 6EE5           00446         MOVWF   POSTDEC1
0002F6 50??           00447         MOVF    r0x04, W
0002F8 6EE5           00448         MOVWF   POSTDEC1
0002FA EC?? F0??      00449         CALL    _lcdString
0002FE 0E03           00450         MOVLW   0x03
000300 26E1           00451         ADDWF   FSR1L, F
                      00452 ;       .line   83; output.c    lcdCommand(0xC0);
000302 0EC0           00453         MOVLW   0xc0
000304 6EE5           00454         MOVWF   POSTDEC1
000306 EC?? F0??      00455         CALL    _lcdCommand
00030A 52E6           00456         MOVF    POSTINC1, F
                      00457 ;       .line   84; output.c    if(getSenha_i() == 0 ){
00030C EC?? F0??      00458         CALL    _getSenha_i
000310 6E??           00459         MOVWF   r0x04
000312 CFF3 F000      00460         MOVFF   PRODL, r0x05
000316 50??           00461         MOVF    r0x04, W
000318 10??           00462         IORWF   r0x05, W
gpasm-1.5.0 #1285 (Sep 12 2016) build/default   7-4-2017  20:27:39          PAGE 11


LOC    OBJECT CODE    LINE  SOURCE TEXT
  VALUE

00031A E1??           00463         BNZ     _00113_DS_
                      00464 ;       .line   85; output.c    lcdString("                "); 
00031C 0E??           00465         MOVLW   UPPER(___str_5)
00031E 6E??           00466         MOVWF   r0x06
000320 0E??           00467         MOVLW   HIGH(___str_5)
000322 6E??           00468         MOVWF   r0x05
000324 0E??           00469         MOVLW   LOW(___str_5)
000326 6E??           00470         MOVWF   r0x04
000328 50??           00471         MOVF    r0x06, W
00032A 6EE5           00472         MOVWF   POSTDEC1
00032C 50??           00473         MOVF    r0x05, W
00032E 6EE5           00474         MOVWF   POSTDEC1
000330 50??           00475         MOVF    r0x04, W
000332 6EE5           00476         MOVWF   POSTDEC1
000334 EC?? F0??      00477         CALL    _lcdString
000338 0E03           00478         MOVLW   0x03
00033A 26E1           00479         ADDWF   FSR1L, F
00033C                00480 _00113_DS_:
                      00481 ;       .line   87; output.c    if(getSenha_i() == 1 ){
00033C EC?? F0??      00482         CALL    _getSenha_i
000340 6E??           00483         MOVWF   r0x04
000342 CFF3 F000      00484         MOVFF   PRODL, r0x05
000346 50??           00485         MOVF    r0x04, W
000348 0A01           00486         XORLW   0x01
00034A E1??           00487         BNZ     _00724_DS_
00034C 50??           00488         MOVF    r0x05, W
00034E E0??           00489         BZ      _00725_DS_
000350                00490 _00724_DS_:
000350 D???           00491         BRA     _00115_DS_
000352                00492 _00725_DS_:
                      00493 ;       .line   88; output.c    lcdString("*               "); 
000352 0E??           00494         MOVLW   UPPER(___str_6)
000354 6E??           00495         MOVWF   r0x06
000356 0E??           00496         MOVLW   HIGH(___str_6)
000358 6E??           00497         MOVWF   r0x05
00035A 0E??           00498         MOVLW   LOW(___str_6)
00035C 6E??           00499         MOVWF   r0x04
00035E 50??           00500         MOVF    r0x06, W
000360 6EE5           00501         MOVWF   POSTDEC1
000362 50??           00502         MOVF    r0x05, W
000364 6EE5           00503         MOVWF   POSTDEC1
000366 50??           00504         MOVF    r0x04, W
000368 6EE5           00505         MOVWF   POSTDEC1
00036A EC?? F0??      00506         CALL    _lcdString
00036E 0E03           00507         MOVLW   0x03
000370 26E1           00508         ADDWF   FSR1L, F
000372                00509 _00115_DS_:
                      00510 ;       .line   90; output.c    if(getSenha_i() == 2 ){ //colocar o nome certo do contador de digitos
000372 EC?? F0??      00511         CALL    _getSenha_i
000376 6E??           00512         MOVWF   r0x04
000378 CFF3 F000      00513         MOVFF   PRODL, r0x05
00037C 50??           00514         MOVF    r0x04, W
00037E 0A02           00515         XORLW   0x02
gpasm-1.5.0 #1285 (Sep 12 2016) build/default   7-4-2017  20:27:39          PAGE 12


LOC    OBJECT CODE    LINE  SOURCE TEXT
  VALUE

000380 E1??           00516         BNZ     _00726_DS_
000382 50??           00517         MOVF    r0x05, W
000384 E0??           00518         BZ      _00727_DS_
000386                00519 _00726_DS_:
000386 D???           00520         BRA     _00117_DS_
000388                00521 _00727_DS_:
                      00522 ;       .line   91; output.c    lcdString("**              "); 
000388 0E??           00523         MOVLW   UPPER(___str_7)
00038A 6E??           00524         MOVWF   r0x06
00038C 0E??           00525         MOVLW   HIGH(___str_7)
00038E 6E??           00526         MOVWF   r0x05
000390 0E??           00527         MOVLW   LOW(___str_7)
000392 6E??           00528         MOVWF   r0x04
000394 50??           00529         MOVF    r0x06, W
000396 6EE5           00530         MOVWF   POSTDEC1
000398 50??           00531         MOVF    r0x05, W
00039A 6EE5           00532         MOVWF   POSTDEC1
00039C 50??           00533         MOVF    r0x04, W
00039E 6EE5           00534         MOVWF   POSTDEC1
0003A0 EC?? F0??      00535         CALL    _lcdString
0003A4 0E03           00536         MOVLW   0x03
0003A6 26E1           00537         ADDWF   FSR1L, F
0003A8                00538 _00117_DS_:
                      00539 ;       .line   93; output.c    if(getSenha_i() == 3 ){ //colocar o nome certo do contador de digitos
0003A8 EC?? F0??      00540         CALL    _getSenha_i
0003AC 6E??           00541         MOVWF   r0x04
0003AE CFF3 F000      00542         MOVFF   PRODL, r0x05
0003B2 50??           00543         MOVF    r0x04, W
0003B4 0A03           00544         XORLW   0x03
0003B6 E1??           00545         BNZ     _00728_DS_
0003B8 50??           00546         MOVF    r0x05, W
0003BA E0??           00547         BZ      _00729_DS_
0003BC                00548 _00728_DS_:
0003BC D???           00549         BRA     _00119_DS_
0003BE                00550 _00729_DS_:
                      00551 ;       .line   94; output.c    lcdString("***            "); 
0003BE 0E??           00552         MOVLW   UPPER(___str_8)
0003C0 6E??           00553         MOVWF   r0x06
0003C2 0E??           00554         MOVLW   HIGH(___str_8)
0003C4 6E??           00555         MOVWF   r0x05
0003C6 0E??           00556         MOVLW   LOW(___str_8)
0003C8 6E??           00557         MOVWF   r0x04
0003CA 50??           00558         MOVF    r0x06, W
0003CC 6EE5           00559         MOVWF   POSTDEC1
0003CE 50??           00560         MOVF    r0x05, W
0003D0 6EE5           00561         MOVWF   POSTDEC1
0003D2 50??           00562         MOVF    r0x04, W
0003D4 6EE5           00563         MOVWF   POSTDEC1
0003D6 EC?? F0??      00564         CALL    _lcdString
0003DA 0E03           00565         MOVLW   0x03
0003DC 26E1           00566         ADDWF   FSR1L, F
0003DE                00567 _00119_DS_:
                      00568 ;       .line   96; output.c    if(getSenha_i() == 4 ){ //colocar o nome certo do contador de digitos
gpasm-1.5.0 #1285 (Sep 12 2016) build/default   7-4-2017  20:27:39          PAGE 13


LOC    OBJECT CODE    LINE  SOURCE TEXT
  VALUE

0003DE EC?? F0??      00569         CALL    _getSenha_i
0003E2 6E??           00570         MOVWF   r0x04
0003E4 CFF3 F000      00571         MOVFF   PRODL, r0x05
0003E8 50??           00572         MOVF    r0x04, W
0003EA 0A04           00573         XORLW   0x04
0003EC E1??           00574         BNZ     _00730_DS_
0003EE 50??           00575         MOVF    r0x05, W
0003F0 E0??           00576         BZ      _00731_DS_
0003F2                00577 _00730_DS_:
0003F2 D???           00578         BRA     _00121_DS_
0003F4                00579 _00731_DS_:
                      00580 ;       .line   97; output.c    lcdString("****           "); 
0003F4 0E??           00581         MOVLW   UPPER(___str_9)
0003F6 6E??           00582         MOVWF   r0x06
0003F8 0E??           00583         MOVLW   HIGH(___str_9)
0003FA 6E??           00584         MOVWF   r0x05
0003FC 0E??           00585         MOVLW   LOW(___str_9)
0003FE 6E??           00586         MOVWF   r0x04
000400 50??           00587         MOVF    r0x06, W
000402 6EE5           00588         MOVWF   POSTDEC1
000404 50??           00589         MOVF    r0x05, W
000406 6EE5           00590         MOVWF   POSTDEC1
000408 50??           00591         MOVF    r0x04, W
00040A 6EE5           00592         MOVWF   POSTDEC1
00040C EC?? F0??      00593         CALL    _lcdString
000410 0E03           00594         MOVLW   0x03
000412 26E1           00595         ADDWF   FSR1L, F
000414                00596 _00121_DS_:
                      00597 ;       .line   99; output.c    if(getSenha_i() == 5 ){ //colocar o nome certo do contador de digitos
000414 EC?? F0??      00598         CALL    _getSenha_i
000418 6E??           00599         MOVWF   r0x04
00041A CFF3 F000      00600         MOVFF   PRODL, r0x05
00041E 50??           00601         MOVF    r0x04, W
000420 0A05           00602         XORLW   0x05
000422 E1??           00603         BNZ     _00732_DS_
000424 50??           00604         MOVF    r0x05, W
000426 E0??           00605         BZ      _00733_DS_
000428                00606 _00732_DS_:
000428 D???           00607         BRA     _00124_DS_
00042A                00608 _00733_DS_:
                      00609 ;       .line   100; output.c   lcdString("*****          ");
00042A 0E??           00610         MOVLW   UPPER(___str_10)
00042C 6E??           00611         MOVWF   r0x06
00042E 0E??           00612         MOVLW   HIGH(___str_10)
000430 6E??           00613         MOVWF   r0x05
000432 0E??           00614         MOVLW   LOW(___str_10)
000434 6E??           00615         MOVWF   r0x04
000436 50??           00616         MOVF    r0x06, W
000438 6EE5           00617         MOVWF   POSTDEC1
00043A 50??           00618         MOVF    r0x05, W
00043C 6EE5           00619         MOVWF   POSTDEC1
00043E 50??           00620         MOVF    r0x04, W
000440 6EE5           00621         MOVWF   POSTDEC1
gpasm-1.5.0 #1285 (Sep 12 2016) build/default   7-4-2017  20:27:39          PAGE 14


LOC    OBJECT CODE    LINE  SOURCE TEXT
  VALUE

000442 EC?? F0??      00622         CALL    _lcdString
000446 0E03           00623         MOVLW   0x03
000448 26E1           00624         ADDWF   FSR1L, F
00044A 010?           00625         BANKSEL _i
                      00626 ;       .line   101; output.c   for (i = 0; i <= 1500; i++) { //delay para leitur da frase de 5s
00044C 6B??           00627         CLRF    _i, B
00044E 010?           00628         BANKSEL (_i + 1)
000450 6B??           00629         CLRF    (_i + 1), B
000452                00630 _00338_DS_:
                      00631 ;       .line   102; output.c   Delay2ms(); 
000452 EC?? F0??      00632         CALL    _Delay2ms
000456 010?           00633         BANKSEL _i
                      00634 ;       .line   101; output.c   for (i = 0; i <= 1500; i++) { //delay para leitur da frase de 5s
000458 3F??           00635         INCFSZ  _i, F, B
00045A D???           00636         BRA     _10110_DS_
00045C 010?           00637         BANKSEL (_i + 1)
00045E 2B??           00638         INCF    (_i + 1), F, B
000460                00639 _10110_DS_:
000460 0E05           00640         MOVLW   0x05
000462 010?           00641         BANKSEL (_i + 1)
000464 5D??           00642         SUBWF   (_i + 1), W, B
000466 E1??           00643         BNZ     _00734_DS_
000468 0EDD           00644         MOVLW   0xdd
00046A 010?           00645         BANKSEL _i
00046C 5D??           00646         SUBWF   _i, W, B
00046E                00647 _00734_DS_:
00046E E3??           00648         BNC     _00338_DS_
000470                00649 _00124_DS_:
                      00650 ;       .line   105; output.c   if(getSenha_try() == 3){
000470 EC?? F0??      00651         CALL    _getSenha_try
000474 6E??           00652         MOVWF   r0x04
000476 CFF3 F000      00653         MOVFF   PRODL, r0x05
00047A 50??           00654         MOVF    r0x04, W
00047C 0A03           00655         XORLW   0x03
00047E E1??           00656         BNZ     _00735_DS_
000480 50??           00657         MOVF    r0x05, W
000482 E0??           00658         BZ      _00736_DS_
000484                00659 _00735_DS_:
000484 D???           00660         BRA     _00133_DS_
000486                00661 _00736_DS_:
                      00662 ;       .line   106; output.c   lcdCommand(0xC0);
000486 0EC0           00663         MOVLW   0xc0
000488 6EE5           00664         MOVWF   POSTDEC1
00048A EC?? F0??      00665         CALL    _lcdCommand
00048E 52E6           00666         MOVF    POSTINC1, F
                      00667 ;       .line   107; output.c   if (getLanguage() == 0) {
000490 EC?? F0??      00668         CALL    _getLanguage
000494 6E??           00669         MOVWF   r0x04
000496 50??           00670         MOVF    r0x04, W
000498 E1??           00671         BNZ     _00126_DS_
                      00672 ;       .line   108; output.c   lcdString("Senha incorreta!");
00049A 0E??           00673         MOVLW   UPPER(___str_11)
00049C 6E??           00674         MOVWF   r0x06
gpasm-1.5.0 #1285 (Sep 12 2016) build/default   7-4-2017  20:27:39          PAGE 15


LOC    OBJECT CODE    LINE  SOURCE TEXT
  VALUE

00049E 0E??           00675         MOVLW   HIGH(___str_11)
0004A0 6E??           00676         MOVWF   r0x05
0004A2 0E??           00677         MOVLW   LOW(___str_11)
0004A4 6E??           00678         MOVWF   r0x04
0004A6 50??           00679         MOVF    r0x06, W
0004A8 6EE5           00680         MOVWF   POSTDEC1
0004AA 50??           00681         MOVF    r0x05, W
0004AC 6EE5           00682         MOVWF   POSTDEC1
0004AE 50??           00683         MOVF    r0x04, W
0004B0 6EE5           00684         MOVWF   POSTDEC1
0004B2 EC?? F0??      00685         CALL    _lcdString
0004B6 0E03           00686         MOVLW   0x03
0004B8 26E1           00687         ADDWF   FSR1L, F
0004BA                00688 _00126_DS_:
                      00689 ;       .line   110; output.c   if (getLanguage() == 1) {
0004BA EC?? F0??      00690         CALL    _getLanguage
0004BE 6E??           00691         MOVWF   r0x04
0004C0 50??           00692         MOVF    r0x04, W
0004C2 0A01           00693         XORLW   0x01
0004C4 E1??           00694         BNZ     _00128_DS_
                      00695 ;       .line   111; output.c   lcdString("Wrong password! ");
0004C6 0E??           00696         MOVLW   UPPER(___str_12)
0004C8 6E??           00697         MOVWF   r0x06
0004CA 0E??           00698         MOVLW   HIGH(___str_12)
0004CC 6E??           00699         MOVWF   r0x05
0004CE 0E??           00700         MOVLW   LOW(___str_12)
0004D0 6E??           00701         MOVWF   r0x04
0004D2 50??           00702         MOVF    r0x06, W
0004D4 6EE5           00703         MOVWF   POSTDEC1
0004D6 50??           00704         MOVF    r0x05, W
0004D8 6EE5           00705         MOVWF   POSTDEC1
0004DA 50??           00706         MOVF    r0x04, W
0004DC 6EE5           00707         MOVWF   POSTDEC1
0004DE EC?? F0??      00708         CALL    _lcdString
0004E2 0E03           00709         MOVLW   0x03
0004E4 26E1           00710         ADDWF   FSR1L, F
0004E6                00711 _00128_DS_:
0004E6 010?           00712         BANKSEL _i
                      00713 ;       .line   113; output.c   for (i = 0; i <= 1500; i++) { //delay para leitur da frase de 5s
0004E8 6B??           00714         CLRF    _i, B
0004EA 010?           00715         BANKSEL (_i + 1)
0004EC 6B??           00716         CLRF    (_i + 1), B
0004EE                00717 _00340_DS_:
                      00718 ;       .line   114; output.c   Delay2ms(); 
0004EE EC?? F0??      00719         CALL    _Delay2ms
0004F2 010?           00720         BANKSEL _i
                      00721 ;       .line   113; output.c   for (i = 0; i <= 1500; i++) { //delay para leitur da frase de 5s
0004F4 3F??           00722         INCFSZ  _i, F, B
0004F6 D???           00723         BRA     _20111_DS_
0004F8 010?           00724         BANKSEL (_i + 1)
0004FA 2B??           00725         INCF    (_i + 1), F, B
0004FC                00726 _20111_DS_:
0004FC 0E05           00727         MOVLW   0x05
gpasm-1.5.0 #1285 (Sep 12 2016) build/default   7-4-2017  20:27:39          PAGE 16


LOC    OBJECT CODE    LINE  SOURCE TEXT
  VALUE

0004FE 010?           00728         BANKSEL (_i + 1)
000500 5D??           00729         SUBWF   (_i + 1), W, B
000502 E1??           00730         BNZ     _00739_DS_
000504 0EDD           00731         MOVLW   0xdd
000506 010?           00732         BANKSEL _i
000508 5D??           00733         SUBWF   _i, W, B
00050A                00734 _00739_DS_:
00050A E3??           00735         BNC     _00340_DS_
00050C                00736 _00133_DS_:
                      00737 ;       .line   119; output.c   if (numTela == STATE_ALARME) {
00050C 50??           00738         MOVF    r0x00, W
00050E 0A02           00739         XORLW   0x02
000510 E1??           00740         BNZ     _00740_DS_
000512 50??           00741         MOVF    r0x01, W
000514 E0??           00742         BZ      _00741_DS_
000516                00743 _00740_DS_:
000516 D???           00744         BRA     _00135_DS_
000518                00745 _00741_DS_:
                      00746 ;       .line   120; output.c   lcdCommand(0x80);
000518 0E80           00747         MOVLW   0x80
00051A 6EE5           00748         MOVWF   POSTDEC1
00051C EC?? F0??      00749         CALL    _lcdCommand
000520 52E6           00750         MOVF    POSTINC1, F
                      00751 ;       .line   121; output.c   lcdString(msgs[numTela][idioma]);
000522 50??           00752         MOVF    r0x01, W
000524 6EE5           00753         MOVWF   POSTDEC1
000526 50??           00754         MOVF    r0x00, W
000528 6EE5           00755         MOVWF   POSTDEC1
00052A 0E00           00756         MOVLW   0x00
00052C 6EE5           00757         MOVWF   POSTDEC1
00052E 0E06           00758         MOVLW   0x06
000530 6EE5           00759         MOVWF   POSTDEC1
000532 EC?? F0??      00760         CALL    __mulint
000536 6E??           00761         MOVWF   r0x04
000538 CFF3 F000      00762         MOVFF   PRODL, r0x05
00053C 0E04           00763         MOVLW   0x04
00053E 26E1           00764         ADDWF   FSR1L, F
000540 0E??           00765         MOVLW   LOW(_msgs)
000542 26??           00766         ADDWF   r0x04, F
000544 0E??           00767         MOVLW   HIGH(_msgs)
000546 22??           00768         ADDWFC  r0x05, F
000548 50??           00769         MOVF    r0x03, W
00054A 6EE5           00770         MOVWF   POSTDEC1
00054C 50??           00771         MOVF    r0x02, W
00054E 6EE5           00772         MOVWF   POSTDEC1
000550 0E00           00773         MOVLW   0x00
000552 6EE5           00774         MOVWF   POSTDEC1
000554 0E03           00775         MOVLW   0x03
000556 6EE5           00776         MOVWF   POSTDEC1
000558 EC?? F0??      00777         CALL    __mulint
00055C 6E??           00778         MOVWF   r0x06
00055E CFF3 F000      00779         MOVFF   PRODL, r0x07
000562 0E04           00780         MOVLW   0x04
gpasm-1.5.0 #1285 (Sep 12 2016) build/default   7-4-2017  20:27:39          PAGE 17


LOC    OBJECT CODE    LINE  SOURCE TEXT
  VALUE

000564 26E1           00781         ADDWF   FSR1L, F
000566 50??           00782         MOVF    r0x06, W
000568 26??           00783         ADDWF   r0x04, F
00056A 50??           00784         MOVF    r0x07, W
00056C 22??           00785         ADDWFC  r0x05, F
00056E C??? F???      00786         MOVFF   r0x04, FSR0L
000572 C??? F???      00787         MOVFF   r0x05, FSR0H
000576 CFEE F000      00788         MOVFF   POSTINC0, r0x04
00057A CFEE F000      00789         MOVFF   POSTINC0, r0x05
00057E CFEF F000      00790         MOVFF   INDF0, r0x06
000582 50??           00791         MOVF    r0x06, W
000584 6EE5           00792         MOVWF   POSTDEC1
000586 50??           00793         MOVF    r0x05, W
000588 6EE5           00794         MOVWF   POSTDEC1
00058A 50??           00795         MOVF    r0x04, W
00058C 6EE5           00796         MOVWF   POSTDEC1
00058E EC?? F0??      00797         CALL    _lcdString
000592 0E03           00798         MOVLW   0x03
000594 26E1           00799         ADDWF   FSR1L, F
                      00800 ;       .line   122; output.c   lcdCommand(0xC0);
000596 0EC0           00801         MOVLW   0xc0
000598 6EE5           00802         MOVWF   POSTDEC1
00059A EC?? F0??      00803         CALL    _lcdCommand
00059E 52E6           00804         MOVF    POSTINC1, F
                      00805 ;       .line   123; output.c   lcdString("   (");
0005A0 0E??           00806         MOVLW   UPPER(___str_13)
0005A2 6E??           00807         MOVWF   r0x06
0005A4 0E??           00808         MOVLW   HIGH(___str_13)
0005A6 6E??           00809         MOVWF   r0x05
0005A8 0E??           00810         MOVLW   LOW(___str_13)
0005AA 6E??           00811         MOVWF   r0x04
0005AC 50??           00812         MOVF    r0x06, W
0005AE 6EE5           00813         MOVWF   POSTDEC1
0005B0 50??           00814         MOVF    r0x05, W
0005B2 6EE5           00815         MOVWF   POSTDEC1
0005B4 50??           00816         MOVF    r0x04, W
0005B6 6EE5           00817         MOVWF   POSTDEC1
0005B8 EC?? F0??      00818         CALL    _lcdString
0005BC 0E03           00819         MOVLW   0x03
0005BE 26E1           00820         ADDWF   FSR1L, F
                      00821 ;       .line   124; output.c   lcdInt(getAlarmLevel(1));
0005C0 0E00           00822         MOVLW   0x00
0005C2 6EE5           00823         MOVWF   POSTDEC1
0005C4 0E01           00824         MOVLW   0x01
0005C6 6EE5           00825         MOVWF   POSTDEC1
0005C8 EC?? F0??      00826         CALL    _getAlarmLevel
0005CC 6E??           00827         MOVWF   r0x04
0005CE CFF3 F000      00828         MOVFF   PRODL, r0x05
0005D2 52E6           00829         MOVF    POSTINC1, F
0005D4 52E6           00830         MOVF    POSTINC1, F
0005D6 50??           00831         MOVF    r0x05, W
0005D8 6EE5           00832         MOVWF   POSTDEC1
0005DA 50??           00833         MOVF    r0x04, W
gpasm-1.5.0 #1285 (Sep 12 2016) build/default   7-4-2017  20:27:39          PAGE 18


LOC    OBJECT CODE    LINE  SOURCE TEXT
  VALUE

0005DC 6EE5           00834         MOVWF   POSTDEC1
0005DE EC?? F0??      00835         CALL    _lcdInt
0005E2 52E6           00836         MOVF    POSTINC1, F
0005E4 52E6           00837         MOVF    POSTINC1, F
                      00838 ;       .line   125; output.c   lcdString(",");
0005E6 0E??           00839         MOVLW   UPPER(___str_14)
0005E8 6E??           00840         MOVWF   r0x06
0005EA 0E??           00841         MOVLW   HIGH(___str_14)
0005EC 6E??           00842         MOVWF   r0x05
0005EE 0E??           00843         MOVLW   LOW(___str_14)
0005F0 6E??           00844         MOVWF   r0x04
0005F2 50??           00845         MOVF    r0x06, W
0005F4 6EE5           00846         MOVWF   POSTDEC1
0005F6 50??           00847         MOVF    r0x05, W
0005F8 6EE5           00848         MOVWF   POSTDEC1
0005FA 50??           00849         MOVF    r0x04, W
0005FC 6EE5           00850         MOVWF   POSTDEC1
0005FE EC?? F0??      00851         CALL    _lcdString
000602 0E03           00852         MOVLW   0x03
000604 26E1           00853         ADDWF   FSR1L, F
                      00854 ;       .line   126; output.c   lcdInt(getAlarmLevel(2));
000606 0E00           00855         MOVLW   0x00
000608 6EE5           00856         MOVWF   POSTDEC1
00060A 0E02           00857         MOVLW   0x02
00060C 6EE5           00858         MOVWF   POSTDEC1
00060E EC?? F0??      00859         CALL    _getAlarmLevel
000612 6E??           00860         MOVWF   r0x04
000614 CFF3 F000      00861         MOVFF   PRODL, r0x05
000618 52E6           00862         MOVF    POSTINC1, F
00061A 52E6           00863         MOVF    POSTINC1, F
00061C 50??           00864         MOVF    r0x05, W
00061E 6EE5           00865         MOVWF   POSTDEC1
000620 50??           00866         MOVF    r0x04, W
000622 6EE5           00867         MOVWF   POSTDEC1
000624 EC?? F0??      00868         CALL    _lcdInt
000628 52E6           00869         MOVF    POSTINC1, F
00062A 52E6           00870         MOVF    POSTINC1, F
                      00871 ;       .line   127; output.c   lcdString(") ");
00062C 0E??           00872         MOVLW   UPPER(___str_15)
00062E 6E??           00873         MOVWF   r0x06
000630 0E??           00874         MOVLW   HIGH(___str_15)
000632 6E??           00875         MOVWF   r0x05
000634 0E??           00876         MOVLW   LOW(___str_15)
000636 6E??           00877         MOVWF   r0x04
000638 50??           00878         MOVF    r0x06, W
00063A 6EE5           00879         MOVWF   POSTDEC1
00063C 50??           00880         MOVF    r0x05, W
00063E 6EE5           00881         MOVWF   POSTDEC1
000640 50??           00882         MOVF    r0x04, W
000642 6EE5           00883         MOVWF   POSTDEC1
000644 EC?? F0??      00884         CALL    _lcdString
000648 0E03           00885         MOVLW   0x03
00064A 26E1           00886         ADDWF   FSR1L, F
gpasm-1.5.0 #1285 (Sep 12 2016) build/default   7-4-2017  20:27:39          PAGE 19


LOC    OBJECT CODE    LINE  SOURCE TEXT
  VALUE

                      00887 ;       .line   128; output.c   lcdInt(getMult());
00064C EC?? F0??      00888         CALL    _getMult
000650 6E??           00889         MOVWF   r0x04
000652 CFF3 F000      00890         MOVFF   PRODL, r0x05
000656 50??           00891         MOVF    r0x05, W
000658 6EE5           00892         MOVWF   POSTDEC1
00065A 50??           00893         MOVF    r0x04, W
00065C 6EE5           00894         MOVWF   POSTDEC1
00065E EC?? F0??      00895         CALL    _lcdInt
000662 52E6           00896         MOVF    POSTINC1, F
000664 52E6           00897         MOVF    POSTINC1, F
                      00898 ;       .line   129; output.c   lcdString("   ");
000666 0E??           00899         MOVLW   UPPER(___str_16)
000668 6E??           00900         MOVWF   r0x06
00066A 0E??           00901         MOVLW   HIGH(___str_16)
00066C 6E??           00902         MOVWF   r0x05
00066E 0E??           00903         MOVLW   LOW(___str_16)
000670 6E??           00904         MOVWF   r0x04
000672 50??           00905         MOVF    r0x06, W
000674 6EE5           00906         MOVWF   POSTDEC1
000676 50??           00907         MOVF    r0x05, W
000678 6EE5           00908         MOVWF   POSTDEC1
00067A 50??           00909         MOVF    r0x04, W
00067C 6EE5           00910         MOVWF   POSTDEC1
00067E EC?? F0??      00911         CALL    _lcdString
000682 0E03           00912         MOVLW   0x03
000684 26E1           00913         ADDWF   FSR1L, F
000686                00914 _00135_DS_:
                      00915 ;       .line   132; output.c   if (numTela == CONFIG_ALARME) {
000686 50??           00916         MOVF    r0x00, W
000688 0A03           00917         XORLW   0x03
00068A E1??           00918         BNZ     _00742_DS_
00068C 50??           00919         MOVF    r0x01, W
00068E E0??           00920         BZ      _00743_DS_
000690                00921 _00742_DS_:
000690 D???           00922         BRA     _00141_DS_
000692                00923 _00743_DS_:
                      00924 ;       .line   133; output.c   lcdCommand(0x80);
000692 0E80           00925         MOVLW   0x80
000694 6EE5           00926         MOVWF   POSTDEC1
000696 EC?? F0??      00927         CALL    _lcdCommand
00069A 52E6           00928         MOVF    POSTINC1, F
                      00929 ;       .line   134; output.c   lcdString(msgs[numTela][idioma]);
00069C 50??           00930         MOVF    r0x01, W
00069E 6EE5           00931         MOVWF   POSTDEC1
0006A0 50??           00932         MOVF    r0x00, W
0006A2 6EE5           00933         MOVWF   POSTDEC1
0006A4 0E00           00934         MOVLW   0x00
0006A6 6EE5           00935         MOVWF   POSTDEC1
0006A8 0E06           00936         MOVLW   0x06
0006AA 6EE5           00937         MOVWF   POSTDEC1
0006AC EC?? F0??      00938         CALL    __mulint
0006B0 6E??           00939         MOVWF   r0x04
gpasm-1.5.0 #1285 (Sep 12 2016) build/default   7-4-2017  20:27:39          PAGE 20


LOC    OBJECT CODE    LINE  SOURCE TEXT
  VALUE

0006B2 CFF3 F000      00940         MOVFF   PRODL, r0x05
0006B6 0E04           00941         MOVLW   0x04
0006B8 26E1           00942         ADDWF   FSR1L, F
0006BA 0E??           00943         MOVLW   LOW(_msgs)
0006BC 26??           00944         ADDWF   r0x04, F
0006BE 0E??           00945         MOVLW   HIGH(_msgs)
0006C0 22??           00946         ADDWFC  r0x05, F
0006C2 50??           00947         MOVF    r0x03, W
0006C4 6EE5           00948         MOVWF   POSTDEC1
0006C6 50??           00949         MOVF    r0x02, W
0006C8 6EE5           00950         MOVWF   POSTDEC1
0006CA 0E00           00951         MOVLW   0x00
0006CC 6EE5           00952         MOVWF   POSTDEC1
0006CE 0E03           00953         MOVLW   0x03
0006D0 6EE5           00954         MOVWF   POSTDEC1
0006D2 EC?? F0??      00955         CALL    __mulint
0006D6 6E??           00956         MOVWF   r0x06
0006D8 CFF3 F000      00957         MOVFF   PRODL, r0x07
0006DC 0E04           00958         MOVLW   0x04
0006DE 26E1           00959         ADDWF   FSR1L, F
0006E0 50??           00960         MOVF    r0x06, W
0006E2 26??           00961         ADDWF   r0x04, F
0006E4 50??           00962         MOVF    r0x07, W
0006E6 22??           00963         ADDWFC  r0x05, F
0006E8 C??? F???      00964         MOVFF   r0x04, FSR0L
0006EC C??? F???      00965         MOVFF   r0x05, FSR0H
0006F0 CFEE F000      00966         MOVFF   POSTINC0, r0x04
0006F4 CFEE F000      00967         MOVFF   POSTINC0, r0x05
0006F8 CFEF F000      00968         MOVFF   INDF0, r0x06
0006FC 50??           00969         MOVF    r0x06, W
0006FE 6EE5           00970         MOVWF   POSTDEC1
000700 50??           00971         MOVF    r0x05, W
000702 6EE5           00972         MOVWF   POSTDEC1
000704 50??           00973         MOVF    r0x04, W
000706 6EE5           00974         MOVWF   POSTDEC1
000708 EC?? F0??      00975         CALL    _lcdString
00070C 0E03           00976         MOVLW   0x03
00070E 26E1           00977         ADDWF   FSR1L, F
                      00978 ;       .line   135; output.c   lcdCommand(0xC0);
000710 0EC0           00979         MOVLW   0xc0
000712 6EE5           00980         MOVWF   POSTDEC1
000714 EC?? F0??      00981         CALL    _lcdCommand
000718 52E6           00982         MOVF    POSTINC1, F
                      00983 ;       .line   136; output.c   if (getLanguage() == 0) {
00071A EC?? F0??      00984         CALL    _getLanguage
00071E 6E??           00985         MOVWF   r0x04
000720 50??           00986         MOVF    r0x04, W
000722 E1??           00987         BNZ     _00137_DS_
                      00988 ;       .line   137; output.c   lcdString(" Configura tempo");
000724 0E??           00989         MOVLW   UPPER(___str_17)
000726 6E??           00990         MOVWF   r0x06
000728 0E??           00991         MOVLW   HIGH(___str_17)
00072A 6E??           00992         MOVWF   r0x05
gpasm-1.5.0 #1285 (Sep 12 2016) build/default   7-4-2017  20:27:39          PAGE 21


LOC    OBJECT CODE    LINE  SOURCE TEXT
  VALUE

00072C 0E??           00993         MOVLW   LOW(___str_17)
00072E 6E??           00994         MOVWF   r0x04
000730 50??           00995         MOVF    r0x06, W
000732 6EE5           00996         MOVWF   POSTDEC1
000734 50??           00997         MOVF    r0x05, W
000736 6EE5           00998         MOVWF   POSTDEC1
000738 50??           00999         MOVF    r0x04, W
00073A 6EE5           01000         MOVWF   POSTDEC1
00073C EC?? F0??      01001         CALL    _lcdString
000740 0E03           01002         MOVLW   0x03
000742 26E1           01003         ADDWF   FSR1L, F
000744                01004 _00137_DS_:
                      01005 ;       .line   139; output.c   if (getLanguage() == 1) {
000744 EC?? F0??      01006         CALL    _getLanguage
000748 6E??           01007         MOVWF   r0x04
00074A 50??           01008         MOVF    r0x04, W
00074C 0A01           01009         XORLW   0x01
00074E E1??           01010         BNZ     _00141_DS_
                      01011 ;       .line   140; output.c   lcdString(" Set time:       ");
000750 0E??           01012         MOVLW   UPPER(___str_18)
000752 6E??           01013         MOVWF   r0x06
000754 0E??           01014         MOVLW   HIGH(___str_18)
000756 6E??           01015         MOVWF   r0x05
000758 0E??           01016         MOVLW   LOW(___str_18)
00075A 6E??           01017         MOVWF   r0x04
00075C 50??           01018         MOVF    r0x06, W
00075E 6EE5           01019         MOVWF   POSTDEC1
000760 50??           01020         MOVF    r0x05, W
000762 6EE5           01021         MOVWF   POSTDEC1
000764 50??           01022         MOVF    r0x04, W
000766 6EE5           01023         MOVWF   POSTDEC1
000768 EC?? F0??      01024         CALL    _lcdString
00076C 0E03           01025         MOVLW   0x03
00076E 26E1           01026         ADDWF   FSR1L, F
000770                01027 _00141_DS_:
                      01028 ;       .line   145; output.c   if (numTela == ALARME_ALTO_DEC || numTela == ALARME_ALTO_UNI 
000770 50??           01029         MOVF    r0x00, W
000772 0A04           01030         XORLW   0x04
000774 E1??           01031         BNZ     _00747_DS_
000776 50??           01032         MOVF    r0x01, W
000778 E0??           01033         BZ      _00142_DS_
00077A                01034 _00747_DS_:
                      01035 ;       .line   146; output.c   || numTela == ALARME_BAIXO_DEC || numTela == ALARME_BAIXO_UNI ) {
00077A 50??           01036         MOVF    r0x00, W
00077C 0A05           01037         XORLW   0x05
00077E E1??           01038         BNZ     _00749_DS_
000780 50??           01039         MOVF    r0x01, W
000782 E0??           01040         BZ      _00142_DS_
000784                01041 _00749_DS_:
000784 50??           01042         MOVF    r0x00, W
000786 0A06           01043         XORLW   0x06
000788 E1??           01044         BNZ     _00751_DS_
00078A 50??           01045         MOVF    r0x01, W
gpasm-1.5.0 #1285 (Sep 12 2016) build/default   7-4-2017  20:27:39          PAGE 22


LOC    OBJECT CODE    LINE  SOURCE TEXT
  VALUE

00078C E0??           01046         BZ      _00142_DS_
00078E                01047 _00751_DS_:
00078E 50??           01048         MOVF    r0x00, W
000790 0A07           01049         XORLW   0x07
000792 E1??           01050         BNZ     _00752_DS_
000794 50??           01051         MOVF    r0x01, W
000796 E0??           01052         BZ      _00142_DS_
000798                01053 _00752_DS_:
000798 D???           01054         BRA     _00143_DS_
00079A                01055 _00142_DS_:
                      01056 ;       .line   147; output.c   lcdCommand(0x80);
00079A 0E80           01057         MOVLW   0x80
00079C 6EE5           01058         MOVWF   POSTDEC1
00079E EC?? F0??      01059         CALL    _lcdCommand
0007A2 52E6           01060         MOVF    POSTINC1, F
                      01061 ;       .line   148; output.c   lcdString(msgs[numTela][idioma]);
0007A4 50??           01062         MOVF    r0x01, W
0007A6 6EE5           01063         MOVWF   POSTDEC1
0007A8 50??           01064         MOVF    r0x00, W
0007AA 6EE5           01065         MOVWF   POSTDEC1
0007AC 0E00           01066         MOVLW   0x00
0007AE 6EE5           01067         MOVWF   POSTDEC1
0007B0 0E06           01068         MOVLW   0x06
0007B2 6EE5           01069         MOVWF   POSTDEC1
0007B4 EC?? F0??      01070         CALL    __mulint
0007B8 6E??           01071         MOVWF   r0x04
0007BA CFF3 F000      01072         MOVFF   PRODL, r0x05
0007BE 0E04           01073         MOVLW   0x04
0007C0 26E1           01074         ADDWF   FSR1L, F
0007C2 0E??           01075         MOVLW   LOW(_msgs)
0007C4 26??           01076         ADDWF   r0x04, F
0007C6 0E??           01077         MOVLW   HIGH(_msgs)
0007C8 22??           01078         ADDWFC  r0x05, F
0007CA 50??           01079         MOVF    r0x03, W
0007CC 6EE5           01080         MOVWF   POSTDEC1
0007CE 50??           01081         MOVF    r0x02, W
0007D0 6EE5           01082         MOVWF   POSTDEC1
0007D2 0E00           01083         MOVLW   0x00
0007D4 6EE5           01084         MOVWF   POSTDEC1
0007D6 0E03           01085         MOVLW   0x03
0007D8 6EE5           01086         MOVWF   POSTDEC1
0007DA EC?? F0??      01087         CALL    __mulint
0007DE 6E??           01088         MOVWF   r0x06
0007E0 CFF3 F000      01089         MOVFF   PRODL, r0x07
0007E4 0E04           01090         MOVLW   0x04
0007E6 26E1           01091         ADDWF   FSR1L, F
0007E8 50??           01092         MOVF    r0x06, W
0007EA 26??           01093         ADDWF   r0x04, F
0007EC 50??           01094         MOVF    r0x07, W
0007EE 22??           01095         ADDWFC  r0x05, F
0007F0 C??? F???      01096         MOVFF   r0x04, FSR0L
0007F4 C??? F???      01097         MOVFF   r0x05, FSR0H
0007F8 CFEE F000      01098         MOVFF   POSTINC0, r0x04
gpasm-1.5.0 #1285 (Sep 12 2016) build/default   7-4-2017  20:27:39          PAGE 23


LOC    OBJECT CODE    LINE  SOURCE TEXT
  VALUE

0007FC CFEE F000      01099         MOVFF   POSTINC0, r0x05
000800 CFEF F000      01100         MOVFF   INDF0, r0x06
000804 50??           01101         MOVF    r0x06, W
000806 6EE5           01102         MOVWF   POSTDEC1
000808 50??           01103         MOVF    r0x05, W
00080A 6EE5           01104         MOVWF   POSTDEC1
00080C 50??           01105         MOVF    r0x04, W
00080E 6EE5           01106         MOVWF   POSTDEC1
000810 EC?? F0??      01107         CALL    _lcdString
000814 0E03           01108         MOVLW   0x03
000816 26E1           01109         ADDWF   FSR1L, F
                      01110 ;       .line   149; output.c   lcdCommand(0xC0);
000818 0EC0           01111         MOVLW   0xc0
00081A 6EE5           01112         MOVWF   POSTDEC1
00081C EC?? F0??      01113         CALL    _lcdCommand
000820 52E6           01114         MOVF    POSTINC1, F
                      01115 ;       .line   150; output.c   lcdString("      ");
000822 0E??           01116         MOVLW   UPPER(___str_19)
000824 6E??           01117         MOVWF   r0x06
000826 0E??           01118         MOVLW   HIGH(___str_19)
000828 6E??           01119         MOVWF   r0x05
00082A 0E??           01120         MOVLW   LOW(___str_19)
00082C 6E??           01121         MOVWF   r0x04
00082E 50??           01122         MOVF    r0x06, W
000830 6EE5           01123         MOVWF   POSTDEC1
000832 50??           01124         MOVF    r0x05, W
000834 6EE5           01125         MOVWF   POSTDEC1
000836 50??           01126         MOVF    r0x04, W
000838 6EE5           01127         MOVWF   POSTDEC1
00083A EC?? F0??      01128         CALL    _lcdString
00083E 0E03           01129         MOVLW   0x03
000840 26E1           01130         ADDWF   FSR1L, F
                      01131 ;       .line   151; output.c   lcdInt(getAlarmLevel(1));
000842 0E00           01132         MOVLW   0x00
000844 6EE5           01133         MOVWF   POSTDEC1
000846 0E01           01134         MOVLW   0x01
000848 6EE5           01135         MOVWF   POSTDEC1
00084A EC?? F0??      01136         CALL    _getAlarmLevel
00084E 6E??           01137         MOVWF   r0x04
000850 CFF3 F000      01138         MOVFF   PRODL, r0x05
000854 52E6           01139         MOVF    POSTINC1, F
000856 52E6           01140         MOVF    POSTINC1, F
000858 50??           01141         MOVF    r0x05, W
00085A 6EE5           01142         MOVWF   POSTDEC1
00085C 50??           01143         MOVF    r0x04, W
00085E 6EE5           01144         MOVWF   POSTDEC1
000860 EC?? F0??      01145         CALL    _lcdInt
000864 52E6           01146         MOVF    POSTINC1, F
000866 52E6           01147         MOVF    POSTINC1, F
                      01148 ;       .line   152; output.c   lcdString("      ");
000868 0E??           01149         MOVLW   UPPER(___str_19)
00086A 6E??           01150         MOVWF   r0x06
00086C 0E??           01151         MOVLW   HIGH(___str_19)
gpasm-1.5.0 #1285 (Sep 12 2016) build/default   7-4-2017  20:27:39          PAGE 24


LOC    OBJECT CODE    LINE  SOURCE TEXT
  VALUE

00086E 6E??           01152         MOVWF   r0x05
000870 0E??           01153         MOVLW   LOW(___str_19)
000872 6E??           01154         MOVWF   r0x04
000874 50??           01155         MOVF    r0x06, W
000876 6EE5           01156         MOVWF   POSTDEC1
000878 50??           01157         MOVF    r0x05, W
00087A 6EE5           01158         MOVWF   POSTDEC1
00087C 50??           01159         MOVF    r0x04, W
00087E 6EE5           01160         MOVWF   POSTDEC1
000880 EC?? F0??      01161         CALL    _lcdString
000884 0E03           01162         MOVLW   0x03
000886 26E1           01163         ADDWF   FSR1L, F
                      01164 ;       .line   153; output.c   lcdInt(getAlarmLevel(2));
000888 0E00           01165         MOVLW   0x00
00088A 6EE5           01166         MOVWF   POSTDEC1
00088C 0E02           01167         MOVLW   0x02
00088E 6EE5           01168         MOVWF   POSTDEC1
000890 EC?? F0??      01169         CALL    _getAlarmLevel
000894 6E??           01170         MOVWF   r0x04
000896 CFF3 F000      01171         MOVFF   PRODL, r0x05
00089A 52E6           01172         MOVF    POSTINC1, F
00089C 52E6           01173         MOVF    POSTINC1, F
00089E 50??           01174         MOVF    r0x05, W
0008A0 6EE5           01175         MOVWF   POSTDEC1
0008A2 50??           01176         MOVF    r0x04, W
0008A4 6EE5           01177         MOVWF   POSTDEC1
0008A6 EC?? F0??      01178         CALL    _lcdInt
0008AA 52E6           01179         MOVF    POSTINC1, F
0008AC 52E6           01180         MOVF    POSTINC1, F
0008AE                01181 _00143_DS_:
                      01182 ;       .line   157; output.c   if (numTela == STATE_TEMPO) {
0008AE 50??           01183         MOVF    r0x00, W
0008B0 0A08           01184         XORLW   0x08
0008B2 E1??           01185         BNZ     _00754_DS_
0008B4 50??           01186         MOVF    r0x01, W
0008B6 E0??           01187         BZ      _00755_DS_
0008B8                01188 _00754_DS_:
0008B8 D???           01189         BRA     _00152_DS_
0008BA                01190 _00755_DS_:
                      01191 ;       .line   158; output.c   lcdCommand(0x80);
0008BA 0E80           01192         MOVLW   0x80
0008BC 6EE5           01193         MOVWF   POSTDEC1
0008BE EC?? F0??      01194         CALL    _lcdCommand
0008C2 52E6           01195         MOVF    POSTINC1, F
                      01196 ;       .line   159; output.c   lcdString(msgs[numTela][idioma]);
0008C4 50??           01197         MOVF    r0x01, W
0008C6 6EE5           01198         MOVWF   POSTDEC1
0008C8 50??           01199         MOVF    r0x00, W
0008CA 6EE5           01200         MOVWF   POSTDEC1
0008CC 0E00           01201         MOVLW   0x00
0008CE 6EE5           01202         MOVWF   POSTDEC1
0008D0 0E06           01203         MOVLW   0x06
0008D2 6EE5           01204         MOVWF   POSTDEC1
gpasm-1.5.0 #1285 (Sep 12 2016) build/default   7-4-2017  20:27:39          PAGE 25


LOC    OBJECT CODE    LINE  SOURCE TEXT
  VALUE

0008D4 EC?? F0??      01205         CALL    __mulint
0008D8 6E??           01206         MOVWF   r0x04
0008DA CFF3 F000      01207         MOVFF   PRODL, r0x05
0008DE 0E04           01208         MOVLW   0x04
0008E0 26E1           01209         ADDWF   FSR1L, F
0008E2 0E??           01210         MOVLW   LOW(_msgs)
0008E4 26??           01211         ADDWF   r0x04, F
0008E6 0E??           01212         MOVLW   HIGH(_msgs)
0008E8 22??           01213         ADDWFC  r0x05, F
0008EA 50??           01214         MOVF    r0x03, W
0008EC 6EE5           01215         MOVWF   POSTDEC1
0008EE 50??           01216         MOVF    r0x02, W
0008F0 6EE5           01217         MOVWF   POSTDEC1
0008F2 0E00           01218         MOVLW   0x00
0008F4 6EE5           01219         MOVWF   POSTDEC1
0008F6 0E03           01220         MOVLW   0x03
0008F8 6EE5           01221         MOVWF   POSTDEC1
0008FA EC?? F0??      01222         CALL    __mulint
0008FE 6E??           01223         MOVWF   r0x06
000900 CFF3 F000      01224         MOVFF   PRODL, r0x07
000904 0E04           01225         MOVLW   0x04
000906 26E1           01226         ADDWF   FSR1L, F
000908 50??           01227         MOVF    r0x06, W
00090A 26??           01228         ADDWF   r0x04, F
00090C 50??           01229         MOVF    r0x07, W
00090E 22??           01230         ADDWFC  r0x05, F
000910 C??? F???      01231         MOVFF   r0x04, FSR0L
000914 C??? F???      01232         MOVFF   r0x05, FSR0H
000918 CFEE F000      01233         MOVFF   POSTINC0, r0x04
00091C CFEE F000      01234         MOVFF   POSTINC0, r0x05
000920 CFEF F000      01235         MOVFF   INDF0, r0x06
000924 50??           01236         MOVF    r0x06, W
000926 6EE5           01237         MOVWF   POSTDEC1
000928 50??           01238         MOVF    r0x05, W
00092A 6EE5           01239         MOVWF   POSTDEC1
00092C 50??           01240         MOVF    r0x04, W
00092E 6EE5           01241         MOVWF   POSTDEC1
000930 EC?? F0??      01242         CALL    _lcdString
000934 0E03           01243         MOVLW   0x03
000936 26E1           01244         ADDWF   FSR1L, F
                      01245 ;       .line   160; output.c   lcdCommand(0xC0);
000938 0EC0           01246         MOVLW   0xc0
00093A 6EE5           01247         MOVWF   POSTDEC1
00093C EC?? F0??      01248         CALL    _lcdCommand
000940 52E6           01249         MOVF    POSTINC1, F
                      01250 ;       .line   161; output.c   if (getLanguage() == 0) {
000942 EC?? F0??      01251         CALL    _getLanguage
000946 6E??           01252         MOVWF   r0x04
000948 50??           01253         MOVF    r0x04, W
00094A E1??           01254         BNZ     _00148_DS_
                      01255 ;       .line   162; output.c   lcdString("*Configura tempo");
00094C 0E??           01256         MOVLW   UPPER(___str_20)
00094E 6E??           01257         MOVWF   r0x06
gpasm-1.5.0 #1285 (Sep 12 2016) build/default   7-4-2017  20:27:39          PAGE 26


LOC    OBJECT CODE    LINE  SOURCE TEXT
  VALUE

000950 0E??           01258         MOVLW   HIGH(___str_20)
000952 6E??           01259         MOVWF   r0x05
000954 0E??           01260         MOVLW   LOW(___str_20)
000956 6E??           01261         MOVWF   r0x04
000958 50??           01262         MOVF    r0x06, W
00095A 6EE5           01263         MOVWF   POSTDEC1
00095C 50??           01264         MOVF    r0x05, W
00095E 6EE5           01265         MOVWF   POSTDEC1
000960 50??           01266         MOVF    r0x04, W
000962 6EE5           01267         MOVWF   POSTDEC1
000964 EC?? F0??      01268         CALL    _lcdString
000968 0E03           01269         MOVLW   0x03
00096A 26E1           01270         ADDWF   FSR1L, F
00096C                01271 _00148_DS_:
                      01272 ;       .line   164; output.c   if (getLanguage() == 1) {
00096C EC?? F0??      01273         CALL    _getLanguage
000970 6E??           01274         MOVWF   r0x04
000972 50??           01275         MOVF    r0x04, W
000974 0A01           01276         XORLW   0x01
000976 E1??           01277         BNZ     _00152_DS_
                      01278 ;       .line   165; output.c   lcdString("*Set time:      ");
000978 0E??           01279         MOVLW   UPPER(___str_21)
00097A 6E??           01280         MOVWF   r0x06
00097C 0E??           01281         MOVLW   HIGH(___str_21)
00097E 6E??           01282         MOVWF   r0x05
000980 0E??           01283         MOVLW   LOW(___str_21)
000982 6E??           01284         MOVWF   r0x04
000984 50??           01285         MOVF    r0x06, W
000986 6EE5           01286         MOVWF   POSTDEC1
000988 50??           01287         MOVF    r0x05, W
00098A 6EE5           01288         MOVWF   POSTDEC1
00098C 50??           01289         MOVF    r0x04, W
00098E 6EE5           01290         MOVWF   POSTDEC1
000990 EC?? F0??      01291         CALL    _lcdString
000994 0E03           01292         MOVLW   0x03
000996 26E1           01293         ADDWF   FSR1L, F
000998                01294 _00152_DS_:
                      01295 ;       .line   170; output.c   if (numTela == CONFIG_TEMPO_DEC || numTela == CONFIG_TEMPO_UNI
000998 50??           01296         MOVF    r0x00, W
00099A 0A09           01297         XORLW   0x09
00099C E1??           01298         BNZ     _00759_DS_
00099E 50??           01299         MOVF    r0x01, W
0009A0 E0??           01300         BZ      _00153_DS_
0009A2                01301 _00759_DS_:
                      01302 ;       .line   171; output.c   || numTela == CONFIG_TEMPO_MULT) {
0009A2 50??           01303         MOVF    r0x00, W
0009A4 0A0A           01304         XORLW   0x0a
0009A6 E1??           01305         BNZ     _00761_DS_
0009A8 50??           01306         MOVF    r0x01, W
0009AA E0??           01307         BZ      _00153_DS_
0009AC                01308 _00761_DS_:
0009AC 50??           01309         MOVF    r0x00, W
0009AE 0A0B           01310         XORLW   0x0b
gpasm-1.5.0 #1285 (Sep 12 2016) build/default   7-4-2017  20:27:39          PAGE 27


LOC    OBJECT CODE    LINE  SOURCE TEXT
  VALUE

0009B0 E1??           01311         BNZ     _00762_DS_
0009B2 50??           01312         MOVF    r0x01, W
0009B4 E0??           01313         BZ      _00153_DS_
0009B6                01314 _00762_DS_:
0009B6 D???           01315         BRA     _00154_DS_
0009B8                01316 _00153_DS_:
                      01317 ;       .line   172; output.c   lcdCommand(0x80);
0009B8 0E80           01318         MOVLW   0x80
0009BA 6EE5           01319         MOVWF   POSTDEC1
0009BC EC?? F0??      01320         CALL    _lcdCommand
0009C0 52E6           01321         MOVF    POSTINC1, F
                      01322 ;       .line   173; output.c   lcdString(msgs[numTela][idioma]);
0009C2 50??           01323         MOVF    r0x01, W
0009C4 6EE5           01324         MOVWF   POSTDEC1
0009C6 50??           01325         MOVF    r0x00, W
0009C8 6EE5           01326         MOVWF   POSTDEC1
0009CA 0E00           01327         MOVLW   0x00
0009CC 6EE5           01328         MOVWF   POSTDEC1
0009CE 0E06           01329         MOVLW   0x06
0009D0 6EE5           01330         MOVWF   POSTDEC1
0009D2 EC?? F0??      01331         CALL    __mulint
0009D6 6E??           01332         MOVWF   r0x04
0009D8 CFF3 F000      01333         MOVFF   PRODL, r0x05
0009DC 0E04           01334         MOVLW   0x04
0009DE 26E1           01335         ADDWF   FSR1L, F
0009E0 0E??           01336         MOVLW   LOW(_msgs)
0009E2 26??           01337         ADDWF   r0x04, F
0009E4 0E??           01338         MOVLW   HIGH(_msgs)
0009E6 22??           01339         ADDWFC  r0x05, F
0009E8 50??           01340         MOVF    r0x03, W
0009EA 6EE5           01341         MOVWF   POSTDEC1
0009EC 50??           01342         MOVF    r0x02, W
0009EE 6EE5           01343         MOVWF   POSTDEC1
0009F0 0E00           01344         MOVLW   0x00
0009F2 6EE5           01345         MOVWF   POSTDEC1
0009F4 0E03           01346         MOVLW   0x03
0009F6 6EE5           01347         MOVWF   POSTDEC1
0009F8 EC?? F0??      01348         CALL    __mulint
0009FC 6E??           01349         MOVWF   r0x06
0009FE CFF3 F000      01350         MOVFF   PRODL, r0x07
000A02 0E04           01351         MOVLW   0x04
000A04 26E1           01352         ADDWF   FSR1L, F
000A06 50??           01353         MOVF    r0x06, W
000A08 26??           01354         ADDWF   r0x04, F
000A0A 50??           01355         MOVF    r0x07, W
000A0C 22??           01356         ADDWFC  r0x05, F
000A0E C??? F???      01357         MOVFF   r0x04, FSR0L
000A12 C??? F???      01358         MOVFF   r0x05, FSR0H
000A16 CFEE F000      01359         MOVFF   POSTINC0, r0x04
000A1A CFEE F000      01360         MOVFF   POSTINC0, r0x05
000A1E CFEF F000      01361         MOVFF   INDF0, r0x06
000A22 50??           01362         MOVF    r0x06, W
000A24 6EE5           01363         MOVWF   POSTDEC1
gpasm-1.5.0 #1285 (Sep 12 2016) build/default   7-4-2017  20:27:39          PAGE 28


LOC    OBJECT CODE    LINE  SOURCE TEXT
  VALUE

000A26 50??           01364         MOVF    r0x05, W
000A28 6EE5           01365         MOVWF   POSTDEC1
000A2A 50??           01366         MOVF    r0x04, W
000A2C 6EE5           01367         MOVWF   POSTDEC1
000A2E EC?? F0??      01368         CALL    _lcdString
000A32 0E03           01369         MOVLW   0x03
000A34 26E1           01370         ADDWF   FSR1L, F
                      01371 ;       .line   174; output.c   lcdCommand(0xC0);
000A36 0EC0           01372         MOVLW   0xc0
000A38 6EE5           01373         MOVWF   POSTDEC1
000A3A EC?? F0??      01374         CALL    _lcdCommand
000A3E 52E6           01375         MOVF    POSTINC1, F
                      01376 ;       .line   175; output.c   lcdString("  ");
000A40 0E??           01377         MOVLW   UPPER(___str_3)
000A42 6E??           01378         MOVWF   r0x06
000A44 0E??           01379         MOVLW   HIGH(___str_3)
000A46 6E??           01380         MOVWF   r0x05
000A48 0E??           01381         MOVLW   LOW(___str_3)
000A4A 6E??           01382         MOVWF   r0x04
000A4C 50??           01383         MOVF    r0x06, W
000A4E 6EE5           01384         MOVWF   POSTDEC1
000A50 50??           01385         MOVF    r0x05, W
000A52 6EE5           01386         MOVWF   POSTDEC1
000A54 50??           01387         MOVF    r0x04, W
000A56 6EE5           01388         MOVWF   POSTDEC1
000A58 EC?? F0??      01389         CALL    _lcdString
000A5C 0E03           01390         MOVLW   0x03
000A5E 26E1           01391         ADDWF   FSR1L, F
                      01392 ;       .line   176; output.c   lcdInt(getTime()); // ver com o eudes o nome da função
000A60 EC?? F0??      01393         CALL    _getTime
000A64 6E??           01394         MOVWF   r0x04
000A66 CFF3 F000      01395         MOVFF   PRODL, r0x05
000A6A 50??           01396         MOVF    r0x05, W
000A6C 6EE5           01397         MOVWF   POSTDEC1
000A6E 50??           01398         MOVF    r0x04, W
000A70 6EE5           01399         MOVWF   POSTDEC1
000A72 EC?? F0??      01400         CALL    _lcdInt
000A76 52E6           01401         MOVF    POSTINC1, F
000A78 52E6           01402         MOVF    POSTINC1, F
                      01403 ;       .line   177; output.c   lcdString("  ");
000A7A 0E??           01404         MOVLW   UPPER(___str_3)
000A7C 6E??           01405         MOVWF   r0x06
000A7E 0E??           01406         MOVLW   HIGH(___str_3)
000A80 6E??           01407         MOVWF   r0x05
000A82 0E??           01408         MOVLW   LOW(___str_3)
000A84 6E??           01409         MOVWF   r0x04
000A86 50??           01410         MOVF    r0x06, W
000A88 6EE5           01411         MOVWF   POSTDEC1
000A8A 50??           01412         MOVF    r0x05, W
000A8C 6EE5           01413         MOVWF   POSTDEC1
000A8E 50??           01414         MOVF    r0x04, W
000A90 6EE5           01415         MOVWF   POSTDEC1
000A92 EC?? F0??      01416         CALL    _lcdString
gpasm-1.5.0 #1285 (Sep 12 2016) build/default   7-4-2017  20:27:39          PAGE 29


LOC    OBJECT CODE    LINE  SOURCE TEXT
  VALUE

000A96 0E03           01417         MOVLW   0x03
000A98 26E1           01418         ADDWF   FSR1L, F
                      01419 ;       .line   178; output.c   lcdInt(getMult()); // ver nome certo
000A9A EC?? F0??      01420         CALL    _getMult
000A9E 6E??           01421         MOVWF   r0x04
000AA0 CFF3 F000      01422         MOVFF   PRODL, r0x05
000AA4 50??           01423         MOVF    r0x05, W
000AA6 6EE5           01424         MOVWF   POSTDEC1
000AA8 50??           01425         MOVF    r0x04, W
000AAA 6EE5           01426         MOVWF   POSTDEC1
000AAC EC?? F0??      01427         CALL    _lcdInt
000AB0 52E6           01428         MOVF    POSTINC1, F
000AB2 52E6           01429         MOVF    POSTINC1, F
                      01430 ;       .line   179; output.c   lcdString("       ");
000AB4 0E??           01431         MOVLW   UPPER(___str_22)
000AB6 6E??           01432         MOVWF   r0x06
000AB8 0E??           01433         MOVLW   HIGH(___str_22)
000ABA 6E??           01434         MOVWF   r0x05
000ABC 0E??           01435         MOVLW   LOW(___str_22)
000ABE 6E??           01436         MOVWF   r0x04
000AC0 50??           01437         MOVF    r0x06, W
000AC2 6EE5           01438         MOVWF   POSTDEC1
000AC4 50??           01439         MOVF    r0x05, W
000AC6 6EE5           01440         MOVWF   POSTDEC1
000AC8 50??           01441         MOVF    r0x04, W
000ACA 6EE5           01442         MOVWF   POSTDEC1
000ACC EC?? F0??      01443         CALL    _lcdString
000AD0 0E03           01444         MOVLW   0x03
000AD2 26E1           01445         ADDWF   FSR1L, F
000AD4                01446 _00154_DS_:
                      01447 ;       .line   183; output.c   if (numTela == STATE_IDIOMA) {
000AD4 50??           01448         MOVF    r0x00, W
000AD6 0A0C           01449         XORLW   0x0c
000AD8 E1??           01450         BNZ     _00764_DS_
000ADA 50??           01451         MOVF    r0x01, W
000ADC E0??           01452         BZ      _00765_DS_
000ADE                01453 _00764_DS_:
000ADE D???           01454         BRA     _00162_DS_
000AE0                01455 _00765_DS_:
                      01456 ;       .line   184; output.c   lcdCommand(0x80);
000AE0 0E80           01457         MOVLW   0x80
000AE2 6EE5           01458         MOVWF   POSTDEC1
000AE4 EC?? F0??      01459         CALL    _lcdCommand
000AE8 52E6           01460         MOVF    POSTINC1, F
                      01461 ;       .line   185; output.c   lcdString(msgs[numTela][idioma]);
000AEA 50??           01462         MOVF    r0x01, W
000AEC 6EE5           01463         MOVWF   POSTDEC1
000AEE 50??           01464         MOVF    r0x00, W
000AF0 6EE5           01465         MOVWF   POSTDEC1
000AF2 0E00           01466         MOVLW   0x00
000AF4 6EE5           01467         MOVWF   POSTDEC1
000AF6 0E06           01468         MOVLW   0x06
000AF8 6EE5           01469         MOVWF   POSTDEC1
gpasm-1.5.0 #1285 (Sep 12 2016) build/default   7-4-2017  20:27:39          PAGE 30


LOC    OBJECT CODE    LINE  SOURCE TEXT
  VALUE

000AFA EC?? F0??      01470         CALL    __mulint
000AFE 6E??           01471         MOVWF   r0x04
000B00 CFF3 F000      01472         MOVFF   PRODL, r0x05
000B04 0E04           01473         MOVLW   0x04
000B06 26E1           01474         ADDWF   FSR1L, F
000B08 0E??           01475         MOVLW   LOW(_msgs)
000B0A 26??           01476         ADDWF   r0x04, F
000B0C 0E??           01477         MOVLW   HIGH(_msgs)
000B0E 22??           01478         ADDWFC  r0x05, F
000B10 50??           01479         MOVF    r0x03, W
000B12 6EE5           01480         MOVWF   POSTDEC1
000B14 50??           01481         MOVF    r0x02, W
000B16 6EE5           01482         MOVWF   POSTDEC1
000B18 0E00           01483         MOVLW   0x00
000B1A 6EE5           01484         MOVWF   POSTDEC1
000B1C 0E03           01485         MOVLW   0x03
000B1E 6EE5           01486         MOVWF   POSTDEC1
000B20 EC?? F0??      01487         CALL    __mulint
000B24 6E??           01488         MOVWF   r0x06
000B26 CFF3 F000      01489         MOVFF   PRODL, r0x07
000B2A 0E04           01490         MOVLW   0x04
000B2C 26E1           01491         ADDWF   FSR1L, F
000B2E 50??           01492         MOVF    r0x06, W
000B30 26??           01493         ADDWF   r0x04, F
000B32 50??           01494         MOVF    r0x07, W
000B34 22??           01495         ADDWFC  r0x05, F
000B36 C??? F???      01496         MOVFF   r0x04, FSR0L
000B3A C??? F???      01497         MOVFF   r0x05, FSR0H
000B3E CFEE F000      01498         MOVFF   POSTINC0, r0x04
000B42 CFEE F000      01499         MOVFF   POSTINC0, r0x05
000B46 CFEF F000      01500         MOVFF   INDF0, r0x06
000B4A 50??           01501         MOVF    r0x06, W
000B4C 6EE5           01502         MOVWF   POSTDEC1
000B4E 50??           01503         MOVF    r0x05, W
000B50 6EE5           01504         MOVWF   POSTDEC1
000B52 50??           01505         MOVF    r0x04, W
000B54 6EE5           01506         MOVWF   POSTDEC1
000B56 EC?? F0??      01507         CALL    _lcdString
000B5A 0E03           01508         MOVLW   0x03
000B5C 26E1           01509         ADDWF   FSR1L, F
                      01510 ;       .line   186; output.c   lcdCommand(0xC0);
000B5E 0EC0           01511         MOVLW   0xc0
000B60 6EE5           01512         MOVWF   POSTDEC1
000B62 EC?? F0??      01513         CALL    _lcdCommand
000B66 52E6           01514         MOVF    POSTINC1, F
                      01515 ;       .line   187; output.c   if (getLanguage() == 0) {
000B68 EC?? F0??      01516         CALL    _getLanguage
000B6C 6E??           01517         MOVWF   r0x04
000B6E 50??           01518         MOVF    r0x04, W
000B70 E1??           01519         BNZ     _00158_DS_
                      01520 ;       .line   188; output.c   lcdString("Portugues       ");
000B72 0E??           01521         MOVLW   UPPER(___str_23)
000B74 6E??           01522         MOVWF   r0x06
gpasm-1.5.0 #1285 (Sep 12 2016) build/default   7-4-2017  20:27:39          PAGE 31


LOC    OBJECT CODE    LINE  SOURCE TEXT
  VALUE

000B76 0E??           01523         MOVLW   HIGH(___str_23)
000B78 6E??           01524         MOVWF   r0x05
000B7A 0E??           01525         MOVLW   LOW(___str_23)
000B7C 6E??           01526         MOVWF   r0x04
000B7E 50??           01527         MOVF    r0x06, W
000B80 6EE5           01528         MOVWF   POSTDEC1
000B82 50??           01529         MOVF    r0x05, W
000B84 6EE5           01530         MOVWF   POSTDEC1
000B86 50??           01531         MOVF    r0x04, W
000B88 6EE5           01532         MOVWF   POSTDEC1
000B8A EC?? F0??      01533         CALL    _lcdString
000B8E 0E03           01534         MOVLW   0x03
000B90 26E1           01535         ADDWF   FSR1L, F
000B92                01536 _00158_DS_:
                      01537 ;       .line   190; output.c   if (getLanguage() == 1) {
000B92 EC?? F0??      01538         CALL    _getLanguage
000B96 6E??           01539         MOVWF   r0x04
000B98 50??           01540         MOVF    r0x04, W
000B9A 0A01           01541         XORLW   0x01
000B9C E1??           01542         BNZ     _00162_DS_
                      01543 ;       .line   191; output.c   lcdString("English         ");
000B9E 0E??           01544         MOVLW   UPPER(___str_24)
000BA0 6E??           01545         MOVWF   r0x06
000BA2 0E??           01546         MOVLW   HIGH(___str_24)
000BA4 6E??           01547         MOVWF   r0x05
000BA6 0E??           01548         MOVLW   LOW(___str_24)
000BA8 6E??           01549         MOVWF   r0x04
000BAA 50??           01550         MOVF    r0x06, W
000BAC 6EE5           01551         MOVWF   POSTDEC1
000BAE 50??           01552         MOVF    r0x05, W
000BB0 6EE5           01553         MOVWF   POSTDEC1
000BB2 50??           01554         MOVF    r0x04, W
000BB4 6EE5           01555         MOVWF   POSTDEC1
000BB6 EC?? F0??      01556         CALL    _lcdString
000BBA 0E03           01557         MOVLW   0x03
000BBC 26E1           01558         ADDWF   FSR1L, F
000BBE                01559 _00162_DS_:
                      01560 ;       .line   195; output.c   if (numTela == CONFIG_IDIOMA) {
000BBE 50??           01561         MOVF    r0x00, W
000BC0 0A0D           01562         XORLW   0x0d
000BC2 E1??           01563         BNZ     _00768_DS_
000BC4 50??           01564         MOVF    r0x01, W
000BC6 E0??           01565         BZ      _00769_DS_
000BC8                01566 _00768_DS_:
000BC8 D???           01567         BRA     _00168_DS_
000BCA                01568 _00769_DS_:
                      01569 ;       .line   196; output.c   lcdCommand(0x80);
000BCA 0E80           01570         MOVLW   0x80
000BCC 6EE5           01571         MOVWF   POSTDEC1
000BCE EC?? F0??      01572         CALL    _lcdCommand
000BD2 52E6           01573         MOVF    POSTINC1, F
                      01574 ;       .line   197; output.c   lcdString(msgs[numTela][idioma]);
000BD4 50??           01575         MOVF    r0x01, W
gpasm-1.5.0 #1285 (Sep 12 2016) build/default   7-4-2017  20:27:39          PAGE 32


LOC    OBJECT CODE    LINE  SOURCE TEXT
  VALUE

000BD6 6EE5           01576         MOVWF   POSTDEC1
000BD8 50??           01577         MOVF    r0x00, W
000BDA 6EE5           01578         MOVWF   POSTDEC1
000BDC 0E00           01579         MOVLW   0x00
000BDE 6EE5           01580         MOVWF   POSTDEC1
000BE0 0E06           01581         MOVLW   0x06
000BE2 6EE5           01582         MOVWF   POSTDEC1
000BE4 EC?? F0??      01583         CALL    __mulint
000BE8 6E??           01584         MOVWF   r0x04
000BEA CFF3 F000      01585         MOVFF   PRODL, r0x05
000BEE 0E04           01586         MOVLW   0x04
000BF0 26E1           01587         ADDWF   FSR1L, F
000BF2 0E??           01588         MOVLW   LOW(_msgs)
000BF4 26??           01589         ADDWF   r0x04, F
000BF6 0E??           01590         MOVLW   HIGH(_msgs)
000BF8 22??           01591         ADDWFC  r0x05, F
000BFA 50??           01592         MOVF    r0x03, W
000BFC 6EE5           01593         MOVWF   POSTDEC1
000BFE 50??           01594         MOVF    r0x02, W
000C00 6EE5           01595         MOVWF   POSTDEC1
000C02 0E00           01596         MOVLW   0x00
000C04 6EE5           01597         MOVWF   POSTDEC1
000C06 0E03           01598         MOVLW   0x03
000C08 6EE5           01599         MOVWF   POSTDEC1
000C0A EC?? F0??      01600         CALL    __mulint
000C0E 6E??           01601         MOVWF   r0x06
000C10 CFF3 F000      01602         MOVFF   PRODL, r0x07
000C14 0E04           01603         MOVLW   0x04
000C16 26E1           01604         ADDWF   FSR1L, F
000C18 50??           01605         MOVF    r0x06, W
000C1A 26??           01606         ADDWF   r0x04, F
000C1C 50??           01607         MOVF    r0x07, W
000C1E 22??           01608         ADDWFC  r0x05, F
000C20 C??? F???      01609         MOVFF   r0x04, FSR0L
000C24 C??? F???      01610         MOVFF   r0x05, FSR0H
000C28 CFEE F000      01611         MOVFF   POSTINC0, r0x04
000C2C CFEE F000      01612         MOVFF   POSTINC0, r0x05
000C30 CFEF F000      01613         MOVFF   INDF0, r0x06
000C34 50??           01614         MOVF    r0x06, W
000C36 6EE5           01615         MOVWF   POSTDEC1
000C38 50??           01616         MOVF    r0x05, W
000C3A 6EE5           01617         MOVWF   POSTDEC1
000C3C 50??           01618         MOVF    r0x04, W
000C3E 6EE5           01619         MOVWF   POSTDEC1
000C40 EC?? F0??      01620         CALL    _lcdString
000C44 0E03           01621         MOVLW   0x03
000C46 26E1           01622         ADDWF   FSR1L, F
                      01623 ;       .line   198; output.c   lcdCommand(0xC0);
000C48 0EC0           01624         MOVLW   0xc0
000C4A 6EE5           01625         MOVWF   POSTDEC1
000C4C EC?? F0??      01626         CALL    _lcdCommand
000C50 52E6           01627         MOVF    POSTINC1, F
                      01628 ;       .line   199; output.c   if (getLanguage() == 0) {
gpasm-1.5.0 #1285 (Sep 12 2016) build/default   7-4-2017  20:27:39          PAGE 33


LOC    OBJECT CODE    LINE  SOURCE TEXT
  VALUE

000C52 EC?? F0??      01629         CALL    _getLanguage
000C56 6E??           01630         MOVWF   r0x04
000C58 50??           01631         MOVF    r0x04, W
000C5A E1??           01632         BNZ     _00164_DS_
                      01633 ;       .line   200; output.c   lcdString("*Portugues      ");
000C5C 0E??           01634         MOVLW   UPPER(___str_25)
000C5E 6E??           01635         MOVWF   r0x06
000C60 0E??           01636         MOVLW   HIGH(___str_25)
000C62 6E??           01637         MOVWF   r0x05
000C64 0E??           01638         MOVLW   LOW(___str_25)
000C66 6E??           01639         MOVWF   r0x04
000C68 50??           01640         MOVF    r0x06, W
000C6A 6EE5           01641         MOVWF   POSTDEC1
000C6C 50??           01642         MOVF    r0x05, W
000C6E 6EE5           01643         MOVWF   POSTDEC1
000C70 50??           01644         MOVF    r0x04, W
000C72 6EE5           01645         MOVWF   POSTDEC1
000C74 EC?? F0??      01646         CALL    _lcdString
000C78 0E03           01647         MOVLW   0x03
000C7A 26E1           01648         ADDWF   FSR1L, F
000C7C                01649 _00164_DS_:
                      01650 ;       .line   202; output.c   if (getLanguage() == 1) {
000C7C EC?? F0??      01651         CALL    _getLanguage
000C80 6E??           01652         MOVWF   r0x04
000C82 50??           01653         MOVF    r0x04, W
000C84 0A01           01654         XORLW   0x01
000C86 E1??           01655         BNZ     _00168_DS_
                      01656 ;       .line   203; output.c   lcdString("*English        ");
000C88 0E??           01657         MOVLW   UPPER(___str_26)
000C8A 6E??           01658         MOVWF   r0x06
000C8C 0E??           01659         MOVLW   HIGH(___str_26)
000C8E 6E??           01660         MOVWF   r0x05
000C90 0E??           01661         MOVLW   LOW(___str_26)
000C92 6E??           01662         MOVWF   r0x04
000C94 50??           01663         MOVF    r0x06, W
000C96 6EE5           01664         MOVWF   POSTDEC1
000C98 50??           01665         MOVF    r0x05, W
000C9A 6EE5           01666         MOVWF   POSTDEC1
000C9C 50??           01667         MOVF    r0x04, W
000C9E 6EE5           01668         MOVWF   POSTDEC1
000CA0 EC?? F0??      01669         CALL    _lcdString
000CA4 0E03           01670         MOVLW   0x03
000CA6 26E1           01671         ADDWF   FSR1L, F
000CA8                01672 _00168_DS_:
                      01673 ;       .line   207; output.c   if (numTela == STATE_PERIODO) {
000CA8 50??           01674         MOVF    r0x00, W
000CAA 0A0E           01675         XORLW   0x0e
000CAC E1??           01676         BNZ     _00772_DS_
000CAE 50??           01677         MOVF    r0x01, W
000CB0 E0??           01678         BZ      _00773_DS_
000CB2                01679 _00772_DS_:
000CB2 D???           01680         BRA     _00170_DS_
000CB4                01681 _00773_DS_:
gpasm-1.5.0 #1285 (Sep 12 2016) build/default   7-4-2017  20:27:39          PAGE 34


LOC    OBJECT CODE    LINE  SOURCE TEXT
  VALUE

                      01682 ;       .line   208; output.c   lcdCommand(0x80);
000CB4 0E80           01683         MOVLW   0x80
000CB6 6EE5           01684         MOVWF   POSTDEC1
000CB8 EC?? F0??      01685         CALL    _lcdCommand
000CBC 52E6           01686         MOVF    POSTINC1, F
                      01687 ;       .line   209; output.c   lcdString(msgs[numTela][idioma]);   
000CBE 50??           01688         MOVF    r0x01, W
000CC0 6EE5           01689         MOVWF   POSTDEC1
000CC2 50??           01690         MOVF    r0x00, W
000CC4 6EE5           01691         MOVWF   POSTDEC1
000CC6 0E00           01692         MOVLW   0x00
000CC8 6EE5           01693         MOVWF   POSTDEC1
000CCA 0E06           01694         MOVLW   0x06
000CCC 6EE5           01695         MOVWF   POSTDEC1
000CCE EC?? F0??      01696         CALL    __mulint
000CD2 6E??           01697         MOVWF   r0x04
000CD4 CFF3 F000      01698         MOVFF   PRODL, r0x05
000CD8 0E04           01699         MOVLW   0x04
000CDA 26E1           01700         ADDWF   FSR1L, F
000CDC 0E??           01701         MOVLW   LOW(_msgs)
000CDE 26??           01702         ADDWF   r0x04, F
000CE0 0E??           01703         MOVLW   HIGH(_msgs)
000CE2 22??           01704         ADDWFC  r0x05, F
000CE4 50??           01705         MOVF    r0x03, W
000CE6 6EE5           01706         MOVWF   POSTDEC1
000CE8 50??           01707         MOVF    r0x02, W
000CEA 6EE5           01708         MOVWF   POSTDEC1
000CEC 0E00           01709         MOVLW   0x00
000CEE 6EE5           01710         MOVWF   POSTDEC1
000CF0 0E03           01711         MOVLW   0x03
000CF2 6EE5           01712         MOVWF   POSTDEC1
000CF4 EC?? F0??      01713         CALL    __mulint
000CF8 6E??           01714         MOVWF   r0x06
000CFA CFF3 F000      01715         MOVFF   PRODL, r0x07
000CFE 0E04           01716         MOVLW   0x04
000D00 26E1           01717         ADDWF   FSR1L, F
000D02 50??           01718         MOVF    r0x06, W
000D04 26??           01719         ADDWF   r0x04, F
000D06 50??           01720         MOVF    r0x07, W
000D08 22??           01721         ADDWFC  r0x05, F
000D0A C??? F???      01722         MOVFF   r0x04, FSR0L
000D0E C??? F???      01723         MOVFF   r0x05, FSR0H
000D12 CFEE F000      01724         MOVFF   POSTINC0, r0x04
000D16 CFEE F000      01725         MOVFF   POSTINC0, r0x05
000D1A CFEF F000      01726         MOVFF   INDF0, r0x06
000D1E 50??           01727         MOVF    r0x06, W
000D20 6EE5           01728         MOVWF   POSTDEC1
000D22 50??           01729         MOVF    r0x05, W
000D24 6EE5           01730         MOVWF   POSTDEC1
000D26 50??           01731         MOVF    r0x04, W
000D28 6EE5           01732         MOVWF   POSTDEC1
000D2A EC?? F0??      01733         CALL    _lcdString
000D2E 0E03           01734         MOVLW   0x03
gpasm-1.5.0 #1285 (Sep 12 2016) build/default   7-4-2017  20:27:39          PAGE 35


LOC    OBJECT CODE    LINE  SOURCE TEXT
  VALUE

000D30 26E1           01735         ADDWF   FSR1L, F
                      01736 ;       .line   210; output.c   lcdCommand(0xC0);
000D32 0EC0           01737         MOVLW   0xc0
000D34 6EE5           01738         MOVWF   POSTDEC1
000D36 EC?? F0??      01739         CALL    _lcdCommand
000D3A 52E6           01740         MOVF    POSTINC1, F
                      01741 ;       .line   211; output.c   lcdString("                "); //comentar essa linha
000D3C 0E??           01742         MOVLW   UPPER(___str_5)
000D3E 6E??           01743         MOVWF   r0x06
000D40 0E??           01744         MOVLW   HIGH(___str_5)
000D42 6E??           01745         MOVWF   r0x05
000D44 0E??           01746         MOVLW   LOW(___str_5)
000D46 6E??           01747         MOVWF   r0x04
000D48 50??           01748         MOVF    r0x06, W
000D4A 6EE5           01749         MOVWF   POSTDEC1
000D4C 50??           01750         MOVF    r0x05, W
000D4E 6EE5           01751         MOVWF   POSTDEC1
000D50 50??           01752         MOVF    r0x04, W
000D52 6EE5           01753         MOVWF   POSTDEC1
000D54 EC?? F0??      01754         CALL    _lcdString
000D58 0E03           01755         MOVLW   0x03
000D5A 26E1           01756         ADDWF   FSR1L, F
000D5C                01757 _00170_DS_:
                      01758 ;       .line   223; output.c   if (numTela == STATE_DATA) {
000D5C 50??           01759         MOVF    r0x00, W
000D5E 0A0F           01760         XORLW   0x0f
000D60 E1??           01761         BNZ     _00774_DS_
000D62 50??           01762         MOVF    r0x01, W
000D64 E0??           01763         BZ      _00775_DS_
000D66                01764 _00774_DS_:
000D66 D???           01765         BRA     _00176_DS_
000D68                01766 _00775_DS_:
                      01767 ;       .line   224; output.c   lcdCommand(0x80);
000D68 0E80           01768         MOVLW   0x80
000D6A 6EE5           01769         MOVWF   POSTDEC1
000D6C EC?? F0??      01770         CALL    _lcdCommand
000D70 52E6           01771         MOVF    POSTINC1, F
                      01772 ;       .line   226; output.c   lcdString(msgs[numTela][idioma]);
000D72 50??           01773         MOVF    r0x01, W
000D74 6EE5           01774         MOVWF   POSTDEC1
000D76 50??           01775         MOVF    r0x00, W
000D78 6EE5           01776         MOVWF   POSTDEC1
000D7A 0E00           01777         MOVLW   0x00
000D7C 6EE5           01778         MOVWF   POSTDEC1
000D7E 0E06           01779         MOVLW   0x06
000D80 6EE5           01780         MOVWF   POSTDEC1
000D82 EC?? F0??      01781         CALL    __mulint
000D86 6E??           01782         MOVWF   r0x04
000D88 CFF3 F000      01783         MOVFF   PRODL, r0x05
000D8C 0E04           01784         MOVLW   0x04
000D8E 26E1           01785         ADDWF   FSR1L, F
000D90 0E??           01786         MOVLW   LOW(_msgs)
000D92 26??           01787         ADDWF   r0x04, F
gpasm-1.5.0 #1285 (Sep 12 2016) build/default   7-4-2017  20:27:39          PAGE 36


LOC    OBJECT CODE    LINE  SOURCE TEXT
  VALUE

000D94 0E??           01788         MOVLW   HIGH(_msgs)
000D96 22??           01789         ADDWFC  r0x05, F
000D98 50??           01790         MOVF    r0x03, W
000D9A 6EE5           01791         MOVWF   POSTDEC1
000D9C 50??           01792         MOVF    r0x02, W
000D9E 6EE5           01793         MOVWF   POSTDEC1
000DA0 0E00           01794         MOVLW   0x00
000DA2 6EE5           01795         MOVWF   POSTDEC1
000DA4 0E03           01796         MOVLW   0x03
000DA6 6EE5           01797         MOVWF   POSTDEC1
000DA8 EC?? F0??      01798         CALL    __mulint
000DAC 6E??           01799         MOVWF   r0x06
000DAE CFF3 F000      01800         MOVFF   PRODL, r0x07
000DB2 0E04           01801         MOVLW   0x04
000DB4 26E1           01802         ADDWF   FSR1L, F
000DB6 50??           01803         MOVF    r0x06, W
000DB8 26??           01804         ADDWF   r0x04, F
000DBA 50??           01805         MOVF    r0x07, W
000DBC 22??           01806         ADDWFC  r0x05, F
000DBE C??? F???      01807         MOVFF   r0x04, FSR0L
000DC2 C??? F???      01808         MOVFF   r0x05, FSR0H
000DC6 CFEE F000      01809         MOVFF   POSTINC0, r0x04
000DCA CFEE F000      01810         MOVFF   POSTINC0, r0x05
000DCE CFEF F000      01811         MOVFF   INDF0, r0x06
000DD2 50??           01812         MOVF    r0x06, W
000DD4 6EE5           01813         MOVWF   POSTDEC1
000DD6 50??           01814         MOVF    r0x05, W
000DD8 6EE5           01815         MOVWF   POSTDEC1
000DDA 50??           01816         MOVF    r0x04, W
000DDC 6EE5           01817         MOVWF   POSTDEC1
000DDE EC?? F0??      01818         CALL    _lcdString
000DE2 0E03           01819         MOVLW   0x03
000DE4 26E1           01820         ADDWF   FSR1L, F
                      01821 ;       .line   227; output.c   lcdCommand(0xC0);
000DE6 0EC0           01822         MOVLW   0xc0
000DE8 6EE5           01823         MOVWF   POSTDEC1
000DEA EC?? F0??      01824         CALL    _lcdCommand
000DEE 52E6           01825         MOVF    POSTINC1, F
                      01826 ;       .line   228; output.c   if (getLanguage() == 0) {
000DF0 EC?? F0??      01827         CALL    _getLanguage
000DF4 6E??           01828         MOVWF   r0x04
000DF6 50??           01829         MOVF    r0x04, W
000DF8 E1??           01830         BNZ     _00172_DS_
                      01831 ;       .line   229; output.c   lcdString(" Hora           ");
000DFA 0E??           01832         MOVLW   UPPER(___str_27)
000DFC 6E??           01833         MOVWF   r0x06
000DFE 0E??           01834         MOVLW   HIGH(___str_27)
000E00 6E??           01835         MOVWF   r0x05
000E02 0E??           01836         MOVLW   LOW(___str_27)
000E04 6E??           01837         MOVWF   r0x04
000E06 50??           01838         MOVF    r0x06, W
000E08 6EE5           01839         MOVWF   POSTDEC1
000E0A 50??           01840         MOVF    r0x05, W
gpasm-1.5.0 #1285 (Sep 12 2016) build/default   7-4-2017  20:27:39          PAGE 37


LOC    OBJECT CODE    LINE  SOURCE TEXT
  VALUE

000E0C 6EE5           01841         MOVWF   POSTDEC1
000E0E 50??           01842         MOVF    r0x04, W
000E10 6EE5           01843         MOVWF   POSTDEC1
000E12 EC?? F0??      01844         CALL    _lcdString
000E16 0E03           01845         MOVLW   0x03
000E18 26E1           01846         ADDWF   FSR1L, F
000E1A                01847 _00172_DS_:
                      01848 ;       .line   231; output.c   if (getLanguage() == 1) {
000E1A EC?? F0??      01849         CALL    _getLanguage
000E1E 6E??           01850         MOVWF   r0x04
000E20 50??           01851         MOVF    r0x04, W
000E22 0A01           01852         XORLW   0x01
000E24 E1??           01853         BNZ     _00176_DS_
                      01854 ;       .line   232; output.c   lcdString(" Hour           ");
000E26 0E??           01855         MOVLW   UPPER(___str_28)
000E28 6E??           01856         MOVWF   r0x06
000E2A 0E??           01857         MOVLW   HIGH(___str_28)
000E2C 6E??           01858         MOVWF   r0x05
000E2E 0E??           01859         MOVLW   LOW(___str_28)
000E30 6E??           01860         MOVWF   r0x04
000E32 50??           01861         MOVF    r0x06, W
000E34 6EE5           01862         MOVWF   POSTDEC1
000E36 50??           01863         MOVF    r0x05, W
000E38 6EE5           01864         MOVWF   POSTDEC1
000E3A 50??           01865         MOVF    r0x04, W
000E3C 6EE5           01866         MOVWF   POSTDEC1
000E3E EC?? F0??      01867         CALL    _lcdString
000E42 0E03           01868         MOVLW   0x03
000E44 26E1           01869         ADDWF   FSR1L, F
000E46                01870 _00176_DS_:
                      01871 ;       .line   237; output.c   if (numTela == CONFIG_DATA_D || numTela == CONFIG_DATA_M || numTela == C
                            ONFIG_DATA_A) {
000E46 50??           01872         MOVF    r0x00, W
000E48 0A10           01873         XORLW   0x10
000E4A E1??           01874         BNZ     _00779_DS_
000E4C 50??           01875         MOVF    r0x01, W
000E4E E0??           01876         BZ      _00177_DS_
000E50                01877 _00779_DS_:
000E50 50??           01878         MOVF    r0x00, W
000E52 0A11           01879         XORLW   0x11
000E54 E1??           01880         BNZ     _00781_DS_
000E56 50??           01881         MOVF    r0x01, W
000E58 E0??           01882         BZ      _00177_DS_
000E5A                01883 _00781_DS_:
000E5A 50??           01884         MOVF    r0x00, W
000E5C 0A12           01885         XORLW   0x12
000E5E E1??           01886         BNZ     _00782_DS_
000E60 50??           01887         MOVF    r0x01, W
000E62 E0??           01888         BZ      _00177_DS_
000E64                01889 _00782_DS_:
000E64 D???           01890         BRA     _00178_DS_
000E66                01891 _00177_DS_:
                      01892 ;       .line   238; output.c   lcdCommand(0x80);
gpasm-1.5.0 #1285 (Sep 12 2016) build/default   7-4-2017  20:27:39          PAGE 38


LOC    OBJECT CODE    LINE  SOURCE TEXT
  VALUE

000E66 0E80           01893         MOVLW   0x80
000E68 6EE5           01894         MOVWF   POSTDEC1
000E6A EC?? F0??      01895         CALL    _lcdCommand
000E6E 52E6           01896         MOVF    POSTINC1, F
                      01897 ;       .line   239; output.c   lcdString(msgs[numTela][idioma]);   
000E70 50??           01898         MOVF    r0x01, W
000E72 6EE5           01899         MOVWF   POSTDEC1
000E74 50??           01900         MOVF    r0x00, W
000E76 6EE5           01901         MOVWF   POSTDEC1
000E78 0E00           01902         MOVLW   0x00
000E7A 6EE5           01903         MOVWF   POSTDEC1
000E7C 0E06           01904         MOVLW   0x06
000E7E 6EE5           01905         MOVWF   POSTDEC1
000E80 EC?? F0??      01906         CALL    __mulint
000E84 6E??           01907         MOVWF   r0x04
000E86 CFF3 F000      01908         MOVFF   PRODL, r0x05
000E8A 0E04           01909         MOVLW   0x04
000E8C 26E1           01910         ADDWF   FSR1L, F
000E8E 0E??           01911         MOVLW   LOW(_msgs)
000E90 26??           01912         ADDWF   r0x04, F
000E92 0E??           01913         MOVLW   HIGH(_msgs)
000E94 22??           01914         ADDWFC  r0x05, F
000E96 50??           01915         MOVF    r0x03, W
000E98 6EE5           01916         MOVWF   POSTDEC1
000E9A 50??           01917         MOVF    r0x02, W
000E9C 6EE5           01918         MOVWF   POSTDEC1
000E9E 0E00           01919         MOVLW   0x00
000EA0 6EE5           01920         MOVWF   POSTDEC1
000EA2 0E03           01921         MOVLW   0x03
000EA4 6EE5           01922         MOVWF   POSTDEC1
000EA6 EC?? F0??      01923         CALL    __mulint
000EAA 6E??           01924         MOVWF   r0x06
000EAC CFF3 F000      01925         MOVFF   PRODL, r0x07
000EB0 0E04           01926         MOVLW   0x04
000EB2 26E1           01927         ADDWF   FSR1L, F
000EB4 50??           01928         MOVF    r0x06, W
000EB6 26??           01929         ADDWF   r0x04, F
000EB8 50??           01930         MOVF    r0x07, W
000EBA 22??           01931         ADDWFC  r0x05, F
000EBC C??? F???      01932         MOVFF   r0x04, FSR0L
000EC0 C??? F???      01933         MOVFF   r0x05, FSR0H
000EC4 CFEE F000      01934         MOVFF   POSTINC0, r0x04
000EC8 CFEE F000      01935         MOVFF   POSTINC0, r0x05
000ECC CFEF F000      01936         MOVFF   INDF0, r0x06
000ED0 50??           01937         MOVF    r0x06, W
000ED2 6EE5           01938         MOVWF   POSTDEC1
000ED4 50??           01939         MOVF    r0x05, W
000ED6 6EE5           01940         MOVWF   POSTDEC1
000ED8 50??           01941         MOVF    r0x04, W
000EDA 6EE5           01942         MOVWF   POSTDEC1
000EDC EC?? F0??      01943         CALL    _lcdString
000EE0 0E03           01944         MOVLW   0x03
000EE2 26E1           01945         ADDWF   FSR1L, F
gpasm-1.5.0 #1285 (Sep 12 2016) build/default   7-4-2017  20:27:39          PAGE 39


LOC    OBJECT CODE    LINE  SOURCE TEXT
  VALUE

                      01946 ;       .line   240; output.c   lcdCommand(0xC0);
000EE4 0EC0           01947         MOVLW   0xc0
000EE6 6EE5           01948         MOVWF   POSTDEC1
000EE8 EC?? F0??      01949         CALL    _lcdCommand
000EEC 52E6           01950         MOVF    POSTINC1, F
                      01951 ;       .line   241; output.c   lcdInt(getPeriodo(3));
000EEE 0E00           01952         MOVLW   0x00
000EF0 6EE5           01953         MOVWF   POSTDEC1
000EF2 0E03           01954         MOVLW   0x03
000EF4 6EE5           01955         MOVWF   POSTDEC1
000EF6 EC?? F0??      01956         CALL    _getPeriodo
000EFA 6E??           01957         MOVWF   r0x04
000EFC 52E6           01958         MOVF    POSTINC1, F
000EFE 52E6           01959         MOVF    POSTINC1, F
000F00 6A??           01960         CLRF    r0x05
000F02 50??           01961         MOVF    r0x05, W
000F04 6EE5           01962         MOVWF   POSTDEC1
000F06 50??           01963         MOVF    r0x04, W
000F08 6EE5           01964         MOVWF   POSTDEC1
000F0A EC?? F0??      01965         CALL    _lcdInt
000F0E 52E6           01966         MOVF    POSTINC1, F
000F10 52E6           01967         MOVF    POSTINC1, F
                      01968 ;       .line   242; output.c   lcdString("/");
000F12 0E??           01969         MOVLW   UPPER(___str_2)
000F14 6E??           01970         MOVWF   r0x06
000F16 0E??           01971         MOVLW   HIGH(___str_2)
000F18 6E??           01972         MOVWF   r0x05
000F1A 0E??           01973         MOVLW   LOW(___str_2)
000F1C 6E??           01974         MOVWF   r0x04
000F1E 50??           01975         MOVF    r0x06, W
000F20 6EE5           01976         MOVWF   POSTDEC1
000F22 50??           01977         MOVF    r0x05, W
000F24 6EE5           01978         MOVWF   POSTDEC1
000F26 50??           01979         MOVF    r0x04, W
000F28 6EE5           01980         MOVWF   POSTDEC1
000F2A EC?? F0??      01981         CALL    _lcdString
000F2E 0E03           01982         MOVLW   0x03
000F30 26E1           01983         ADDWF   FSR1L, F
                      01984 ;       .line   243; output.c   lcdInt(getPeriodo(4));
000F32 0E00           01985         MOVLW   0x00
000F34 6EE5           01986         MOVWF   POSTDEC1
000F36 0E04           01987         MOVLW   0x04
000F38 6EE5           01988         MOVWF   POSTDEC1
000F3A EC?? F0??      01989         CALL    _getPeriodo
000F3E 6E??           01990         MOVWF   r0x04
000F40 52E6           01991         MOVF    POSTINC1, F
000F42 52E6           01992         MOVF    POSTINC1, F
000F44 6A??           01993         CLRF    r0x05
000F46 50??           01994         MOVF    r0x05, W
000F48 6EE5           01995         MOVWF   POSTDEC1
000F4A 50??           01996         MOVF    r0x04, W
000F4C 6EE5           01997         MOVWF   POSTDEC1
000F4E EC?? F0??      01998         CALL    _lcdInt
gpasm-1.5.0 #1285 (Sep 12 2016) build/default   7-4-2017  20:27:39          PAGE 40


LOC    OBJECT CODE    LINE  SOURCE TEXT
  VALUE

000F52 52E6           01999         MOVF    POSTINC1, F
000F54 52E6           02000         MOVF    POSTINC1, F
                      02001 ;       .line   244; output.c   lcdString("/");
000F56 0E??           02002         MOVLW   UPPER(___str_2)
000F58 6E??           02003         MOVWF   r0x06
000F5A 0E??           02004         MOVLW   HIGH(___str_2)
000F5C 6E??           02005         MOVWF   r0x05
000F5E 0E??           02006         MOVLW   LOW(___str_2)
000F60 6E??           02007         MOVWF   r0x04
000F62 50??           02008         MOVF    r0x06, W
000F64 6EE5           02009         MOVWF   POSTDEC1
000F66 50??           02010         MOVF    r0x05, W
000F68 6EE5           02011         MOVWF   POSTDEC1
000F6A 50??           02012         MOVF    r0x04, W
000F6C 6EE5           02013         MOVWF   POSTDEC1
000F6E EC?? F0??      02014         CALL    _lcdString
000F72 0E03           02015         MOVLW   0x03
000F74 26E1           02016         ADDWF   FSR1L, F
                      02017 ;       .line   245; output.c   lcdInt(getPeriodo(5));
000F76 0E00           02018         MOVLW   0x00
000F78 6EE5           02019         MOVWF   POSTDEC1
000F7A 0E05           02020         MOVLW   0x05
000F7C 6EE5           02021         MOVWF   POSTDEC1
000F7E EC?? F0??      02022         CALL    _getPeriodo
000F82 6E??           02023         MOVWF   r0x04
000F84 52E6           02024         MOVF    POSTINC1, F
000F86 52E6           02025         MOVF    POSTINC1, F
000F88 6A??           02026         CLRF    r0x05
000F8A 50??           02027         MOVF    r0x05, W
000F8C 6EE5           02028         MOVWF   POSTDEC1
000F8E 50??           02029         MOVF    r0x04, W
000F90 6EE5           02030         MOVWF   POSTDEC1
000F92 EC?? F0??      02031         CALL    _lcdInt
000F96 52E6           02032         MOVF    POSTINC1, F
000F98 52E6           02033         MOVF    POSTINC1, F
                      02034 ;       .line   246; output.c   lcdString("        ");
000F9A 0E??           02035         MOVLW   UPPER(___str_29)
000F9C 6E??           02036         MOVWF   r0x06
000F9E 0E??           02037         MOVLW   HIGH(___str_29)
000FA0 6E??           02038         MOVWF   r0x05
000FA2 0E??           02039         MOVLW   LOW(___str_29)
000FA4 6E??           02040         MOVWF   r0x04
000FA6 50??           02041         MOVF    r0x06, W
000FA8 6EE5           02042         MOVWF   POSTDEC1
000FAA 50??           02043         MOVF    r0x05, W
000FAC 6EE5           02044         MOVWF   POSTDEC1
000FAE 50??           02045         MOVF    r0x04, W
000FB0 6EE5           02046         MOVWF   POSTDEC1
000FB2 EC?? F0??      02047         CALL    _lcdString
000FB6 0E03           02048         MOVLW   0x03
000FB8 26E1           02049         ADDWF   FSR1L, F
000FBA                02050 _00178_DS_:
                      02051 ;       .line   250; output.c   if (numTela == STATE_HORA) {
gpasm-1.5.0 #1285 (Sep 12 2016) build/default   7-4-2017  20:27:39          PAGE 41


LOC    OBJECT CODE    LINE  SOURCE TEXT
  VALUE

000FBA 50??           02052         MOVF    r0x00, W
000FBC 0A13           02053         XORLW   0x13
000FBE E1??           02054         BNZ     _00784_DS_
000FC0 50??           02055         MOVF    r0x01, W
000FC2 E0??           02056         BZ      _00785_DS_
000FC4                02057 _00784_DS_:
000FC4 D???           02058         BRA     _00186_DS_
000FC6                02059 _00785_DS_:
                      02060 ;       .line   251; output.c   lcdCommand(0x80);
000FC6 0E80           02061         MOVLW   0x80
000FC8 6EE5           02062         MOVWF   POSTDEC1
000FCA EC?? F0??      02063         CALL    _lcdCommand
000FCE 52E6           02064         MOVF    POSTINC1, F
                      02065 ;       .line   253; output.c   lcdString(msgs[numTela][idioma]);
000FD0 50??           02066         MOVF    r0x01, W
000FD2 6EE5           02067         MOVWF   POSTDEC1
000FD4 50??           02068         MOVF    r0x00, W
000FD6 6EE5           02069         MOVWF   POSTDEC1
000FD8 0E00           02070         MOVLW   0x00
000FDA 6EE5           02071         MOVWF   POSTDEC1
000FDC 0E06           02072         MOVLW   0x06
000FDE 6EE5           02073         MOVWF   POSTDEC1
000FE0 EC?? F0??      02074         CALL    __mulint
000FE4 6E??           02075         MOVWF   r0x04
000FE6 CFF3 F000      02076         MOVFF   PRODL, r0x05
000FEA 0E04           02077         MOVLW   0x04
000FEC 26E1           02078         ADDWF   FSR1L, F
000FEE 0E??           02079         MOVLW   LOW(_msgs)
000FF0 26??           02080         ADDWF   r0x04, F
000FF2 0E??           02081         MOVLW   HIGH(_msgs)
000FF4 22??           02082         ADDWFC  r0x05, F
000FF6 50??           02083         MOVF    r0x03, W
000FF8 6EE5           02084         MOVWF   POSTDEC1
000FFA 50??           02085         MOVF    r0x02, W
000FFC 6EE5           02086         MOVWF   POSTDEC1
000FFE 0E00           02087         MOVLW   0x00
001000 6EE5           02088         MOVWF   POSTDEC1
001002 0E03           02089         MOVLW   0x03
001004 6EE5           02090         MOVWF   POSTDEC1
001006 EC?? F0??      02091         CALL    __mulint
00100A 6E??           02092         MOVWF   r0x06
00100C CFF3 F000      02093         MOVFF   PRODL, r0x07
001010 0E04           02094         MOVLW   0x04
001012 26E1           02095         ADDWF   FSR1L, F
001014 50??           02096         MOVF    r0x06, W
001016 26??           02097         ADDWF   r0x04, F
001018 50??           02098         MOVF    r0x07, W
00101A 22??           02099         ADDWFC  r0x05, F
00101C C??? F???      02100         MOVFF   r0x04, FSR0L
001020 C??? F???      02101         MOVFF   r0x05, FSR0H
001024 CFEE F000      02102         MOVFF   POSTINC0, r0x04
001028 CFEE F000      02103         MOVFF   POSTINC0, r0x05
00102C CFEF F000      02104         MOVFF   INDF0, r0x06
gpasm-1.5.0 #1285 (Sep 12 2016) build/default   7-4-2017  20:27:39          PAGE 42


LOC    OBJECT CODE    LINE  SOURCE TEXT
  VALUE

001030 50??           02105         MOVF    r0x06, W
001032 6EE5           02106         MOVWF   POSTDEC1
001034 50??           02107         MOVF    r0x05, W
001036 6EE5           02108         MOVWF   POSTDEC1
001038 50??           02109         MOVF    r0x04, W
00103A 6EE5           02110         MOVWF   POSTDEC1
00103C EC?? F0??      02111         CALL    _lcdString
001040 0E03           02112         MOVLW   0x03
001042 26E1           02113         ADDWF   FSR1L, F
                      02114 ;       .line   254; output.c   lcdCommand(0xC0);
001044 0EC0           02115         MOVLW   0xc0
001046 6EE5           02116         MOVWF   POSTDEC1
001048 EC?? F0??      02117         CALL    _lcdCommand
00104C 52E6           02118         MOVF    POSTINC1, F
                      02119 ;       .line   255; output.c   if (getLanguage() == 0) {
00104E EC?? F0??      02120         CALL    _getLanguage
001052 6E??           02121         MOVWF   r0x04
001054 50??           02122         MOVF    r0x04, W
001056 E1??           02123         BNZ     _00182_DS_
                      02124 ;       .line   256; output.c   lcdString("*Hora           ");
001058 0E??           02125         MOVLW   UPPER(___str_30)
00105A 6E??           02126         MOVWF   r0x06
00105C 0E??           02127         MOVLW   HIGH(___str_30)
00105E 6E??           02128         MOVWF   r0x05
001060 0E??           02129         MOVLW   LOW(___str_30)
001062 6E??           02130         MOVWF   r0x04
001064 50??           02131         MOVF    r0x06, W
001066 6EE5           02132         MOVWF   POSTDEC1
001068 50??           02133         MOVF    r0x05, W
00106A 6EE5           02134         MOVWF   POSTDEC1
00106C 50??           02135         MOVF    r0x04, W
00106E 6EE5           02136         MOVWF   POSTDEC1
001070 EC?? F0??      02137         CALL    _lcdString
001074 0E03           02138         MOVLW   0x03
001076 26E1           02139         ADDWF   FSR1L, F
001078                02140 _00182_DS_:
                      02141 ;       .line   258; output.c   if (getLanguage() == 1) {
001078 EC?? F0??      02142         CALL    _getLanguage
00107C 6E??           02143         MOVWF   r0x04
00107E 50??           02144         MOVF    r0x04, W
001080 0A01           02145         XORLW   0x01
001082 E1??           02146         BNZ     _00186_DS_
                      02147 ;       .line   259; output.c   lcdString("*Hour           ");
001084 0E??           02148         MOVLW   UPPER(___str_31)
001086 6E??           02149         MOVWF   r0x06
001088 0E??           02150         MOVLW   HIGH(___str_31)
00108A 6E??           02151         MOVWF   r0x05
00108C 0E??           02152         MOVLW   LOW(___str_31)
00108E 6E??           02153         MOVWF   r0x04
001090 50??           02154         MOVF    r0x06, W
001092 6EE5           02155         MOVWF   POSTDEC1
001094 50??           02156         MOVF    r0x05, W
001096 6EE5           02157         MOVWF   POSTDEC1
gpasm-1.5.0 #1285 (Sep 12 2016) build/default   7-4-2017  20:27:39          PAGE 43


LOC    OBJECT CODE    LINE  SOURCE TEXT
  VALUE

001098 50??           02158         MOVF    r0x04, W
00109A 6EE5           02159         MOVWF   POSTDEC1
00109C EC?? F0??      02160         CALL    _lcdString
0010A0 0E03           02161         MOVLW   0x03
0010A2 26E1           02162         ADDWF   FSR1L, F
0010A4                02163 _00186_DS_:
                      02164 ;       .line   263; output.c   if (numTela == CONFIG_HORA || numTela == CONFIG_MINUTOS_DEC
0010A4 50??           02165         MOVF    r0x00, W
0010A6 0A14           02166         XORLW   0x14
0010A8 E1??           02167         BNZ     _00789_DS_
0010AA 50??           02168         MOVF    r0x01, W
0010AC E0??           02169         BZ      _00187_DS_
0010AE                02170 _00789_DS_:
                      02171 ;       .line   264; output.c   || numTela == CONFIG_MINUTOS_UNI) {
0010AE 50??           02172         MOVF    r0x00, W
0010B0 0A15           02173         XORLW   0x15
0010B2 E1??           02174         BNZ     _00791_DS_
0010B4 50??           02175         MOVF    r0x01, W
0010B6 E0??           02176         BZ      _00187_DS_
0010B8                02177 _00791_DS_:
0010B8 50??           02178         MOVF    r0x00, W
0010BA 0A16           02179         XORLW   0x16
0010BC E1??           02180         BNZ     _00792_DS_
0010BE 50??           02181         MOVF    r0x01, W
0010C0 E0??           02182         BZ      _00187_DS_
0010C2                02183 _00792_DS_:
0010C2 D???           02184         BRA     _00188_DS_
0010C4                02185 _00187_DS_:
                      02186 ;       .line   265; output.c   lcdCommand(0x80);
0010C4 0E80           02187         MOVLW   0x80
0010C6 6EE5           02188         MOVWF   POSTDEC1
0010C8 EC?? F0??      02189         CALL    _lcdCommand
0010CC 52E6           02190         MOVF    POSTINC1, F
                      02191 ;       .line   266; output.c   lcdString(msgs[numTela][idioma]);   
0010CE 50??           02192         MOVF    r0x01, W
0010D0 6EE5           02193         MOVWF   POSTDEC1
0010D2 50??           02194         MOVF    r0x00, W
0010D4 6EE5           02195         MOVWF   POSTDEC1
0010D6 0E00           02196         MOVLW   0x00
0010D8 6EE5           02197         MOVWF   POSTDEC1
0010DA 0E06           02198         MOVLW   0x06
0010DC 6EE5           02199         MOVWF   POSTDEC1
0010DE EC?? F0??      02200         CALL    __mulint
0010E2 6E??           02201         MOVWF   r0x04
0010E4 CFF3 F000      02202         MOVFF   PRODL, r0x05
0010E8 0E04           02203         MOVLW   0x04
0010EA 26E1           02204         ADDWF   FSR1L, F
0010EC 0E??           02205         MOVLW   LOW(_msgs)
0010EE 26??           02206         ADDWF   r0x04, F
0010F0 0E??           02207         MOVLW   HIGH(_msgs)
0010F2 22??           02208         ADDWFC  r0x05, F
0010F4 50??           02209         MOVF    r0x03, W
0010F6 6EE5           02210         MOVWF   POSTDEC1
gpasm-1.5.0 #1285 (Sep 12 2016) build/default   7-4-2017  20:27:39          PAGE 44


LOC    OBJECT CODE    LINE  SOURCE TEXT
  VALUE

0010F8 50??           02211         MOVF    r0x02, W
0010FA 6EE5           02212         MOVWF   POSTDEC1
0010FC 0E00           02213         MOVLW   0x00
0010FE 6EE5           02214         MOVWF   POSTDEC1
001100 0E03           02215         MOVLW   0x03
001102 6EE5           02216         MOVWF   POSTDEC1
001104 EC?? F0??      02217         CALL    __mulint
001108 6E??           02218         MOVWF   r0x06
00110A CFF3 F000      02219         MOVFF   PRODL, r0x07
00110E 0E04           02220         MOVLW   0x04
001110 26E1           02221         ADDWF   FSR1L, F
001112 50??           02222         MOVF    r0x06, W
001114 26??           02223         ADDWF   r0x04, F
001116 50??           02224         MOVF    r0x07, W
001118 22??           02225         ADDWFC  r0x05, F
00111A C??? F???      02226         MOVFF   r0x04, FSR0L
00111E C??? F???      02227         MOVFF   r0x05, FSR0H
001122 CFEE F000      02228         MOVFF   POSTINC0, r0x04
001126 CFEE F000      02229         MOVFF   POSTINC0, r0x05
00112A CFEF F000      02230         MOVFF   INDF0, r0x06
00112E 50??           02231         MOVF    r0x06, W
001130 6EE5           02232         MOVWF   POSTDEC1
001132 50??           02233         MOVF    r0x05, W
001134 6EE5           02234         MOVWF   POSTDEC1
001136 50??           02235         MOVF    r0x04, W
001138 6EE5           02236         MOVWF   POSTDEC1
00113A EC?? F0??      02237         CALL    _lcdString
00113E 0E03           02238         MOVLW   0x03
001140 26E1           02239         ADDWF   FSR1L, F
                      02240 ;       .line   267; output.c   lcdCommand(0xC0);
001142 0EC0           02241         MOVLW   0xc0
001144 6EE5           02242         MOVWF   POSTDEC1
001146 EC?? F0??      02243         CALL    _lcdCommand
00114A 52E6           02244         MOVF    POSTINC1, F
                      02245 ;       .line   268; output.c   lcdString("  ");
00114C 0E??           02246         MOVLW   UPPER(___str_3)
00114E 6E??           02247         MOVWF   r0x06
001150 0E??           02248         MOVLW   HIGH(___str_3)
001152 6E??           02249         MOVWF   r0x05
001154 0E??           02250         MOVLW   LOW(___str_3)
001156 6E??           02251         MOVWF   r0x04
001158 50??           02252         MOVF    r0x06, W
00115A 6EE5           02253         MOVWF   POSTDEC1
00115C 50??           02254         MOVF    r0x05, W
00115E 6EE5           02255         MOVWF   POSTDEC1
001160 50??           02256         MOVF    r0x04, W
001162 6EE5           02257         MOVWF   POSTDEC1
001164 EC?? F0??      02258         CALL    _lcdString
001168 0E03           02259         MOVLW   0x03
00116A 26E1           02260         ADDWF   FSR1L, F
                      02261 ;       .line   269; output.c   lcdInt(getPeriodo(1));
00116C 0E00           02262         MOVLW   0x00
00116E 6EE5           02263         MOVWF   POSTDEC1
gpasm-1.5.0 #1285 (Sep 12 2016) build/default   7-4-2017  20:27:39          PAGE 45


LOC    OBJECT CODE    LINE  SOURCE TEXT
  VALUE

001170 0E01           02264         MOVLW   0x01
001172 6EE5           02265         MOVWF   POSTDEC1
001174 EC?? F0??      02266         CALL    _getPeriodo
001178 6E??           02267         MOVWF   r0x04
00117A 52E6           02268         MOVF    POSTINC1, F
00117C 52E6           02269         MOVF    POSTINC1, F
00117E 6A??           02270         CLRF    r0x05
001180 50??           02271         MOVF    r0x05, W
001182 6EE5           02272         MOVWF   POSTDEC1
001184 50??           02273         MOVF    r0x04, W
001186 6EE5           02274         MOVWF   POSTDEC1
001188 EC?? F0??      02275         CALL    _lcdInt
00118C 52E6           02276         MOVF    POSTINC1, F
00118E 52E6           02277         MOVF    POSTINC1, F
                      02278 ;       .line   270; output.c   lcdString(":");
001190 0E??           02279         MOVLW   UPPER(___str_4)
001192 6E??           02280         MOVWF   r0x06
001194 0E??           02281         MOVLW   HIGH(___str_4)
001196 6E??           02282         MOVWF   r0x05
001198 0E??           02283         MOVLW   LOW(___str_4)
00119A 6E??           02284         MOVWF   r0x04
00119C 50??           02285         MOVF    r0x06, W
00119E 6EE5           02286         MOVWF   POSTDEC1
0011A0 50??           02287         MOVF    r0x05, W
0011A2 6EE5           02288         MOVWF   POSTDEC1
0011A4 50??           02289         MOVF    r0x04, W
0011A6 6EE5           02290         MOVWF   POSTDEC1
0011A8 EC?? F0??      02291         CALL    _lcdString
0011AC 0E03           02292         MOVLW   0x03
0011AE 26E1           02293         ADDWF   FSR1L, F
                      02294 ;       .line   271; output.c   lcdInt(getPeriodo(2));
0011B0 0E00           02295         MOVLW   0x00
0011B2 6EE5           02296         MOVWF   POSTDEC1
0011B4 0E02           02297         MOVLW   0x02
0011B6 6EE5           02298         MOVWF   POSTDEC1
0011B8 EC?? F0??      02299         CALL    _getPeriodo
0011BC 6E??           02300         MOVWF   r0x04
0011BE 52E6           02301         MOVF    POSTINC1, F
0011C0 52E6           02302         MOVF    POSTINC1, F
0011C2 6A??           02303         CLRF    r0x05
0011C4 50??           02304         MOVF    r0x05, W
0011C6 6EE5           02305         MOVWF   POSTDEC1
0011C8 50??           02306         MOVF    r0x04, W
0011CA 6EE5           02307         MOVWF   POSTDEC1
0011CC EC?? F0??      02308         CALL    _lcdInt
0011D0 52E6           02309         MOVF    POSTINC1, F
0011D2 52E6           02310         MOVF    POSTINC1, F
                      02311 ;       .line   272; output.c   lcdString("         ");
0011D4 0E??           02312         MOVLW   UPPER(___str_32)
0011D6 6E??           02313         MOVWF   r0x06
0011D8 0E??           02314         MOVLW   HIGH(___str_32)
0011DA 6E??           02315         MOVWF   r0x05
0011DC 0E??           02316         MOVLW   LOW(___str_32)
gpasm-1.5.0 #1285 (Sep 12 2016) build/default   7-4-2017  20:27:39          PAGE 46


LOC    OBJECT CODE    LINE  SOURCE TEXT
  VALUE

0011DE 6E??           02317         MOVWF   r0x04
0011E0 50??           02318         MOVF    r0x06, W
0011E2 6EE5           02319         MOVWF   POSTDEC1
0011E4 50??           02320         MOVF    r0x05, W
0011E6 6EE5           02321         MOVWF   POSTDEC1
0011E8 50??           02322         MOVF    r0x04, W
0011EA 6EE5           02323         MOVWF   POSTDEC1
0011EC EC?? F0??      02324         CALL    _lcdString
0011F0 0E03           02325         MOVLW   0x03
0011F2 26E1           02326         ADDWF   FSR1L, F
0011F4                02327 _00188_DS_:
                      02328 ;       .line   275; output.c   if (numTela == STATE_SECURITY) {
0011F4 50??           02329         MOVF    r0x00, W
0011F6 0A17           02330         XORLW   0x17
0011F8 E1??           02331         BNZ     _00794_DS_
0011FA 50??           02332         MOVF    r0x01, W
0011FC E0??           02333         BZ      _00795_DS_
0011FE                02334 _00794_DS_:
0011FE D???           02335         BRA     _00192_DS_
001200                02336 _00795_DS_:
                      02337 ;       .line   276; output.c   lcdCommand(0x80);
001200 0E80           02338         MOVLW   0x80
001202 6EE5           02339         MOVWF   POSTDEC1
001204 EC?? F0??      02340         CALL    _lcdCommand
001208 52E6           02341         MOVF    POSTINC1, F
                      02342 ;       .line   277; output.c   lcdString(msgs[numTela][idioma]);
00120A 50??           02343         MOVF    r0x01, W
00120C 6EE5           02344         MOVWF   POSTDEC1
00120E 50??           02345         MOVF    r0x00, W
001210 6EE5           02346         MOVWF   POSTDEC1
001212 0E00           02347         MOVLW   0x00
001214 6EE5           02348         MOVWF   POSTDEC1
001216 0E06           02349         MOVLW   0x06
001218 6EE5           02350         MOVWF   POSTDEC1
00121A EC?? F0??      02351         CALL    __mulint
00121E 6E??           02352         MOVWF   r0x04
001220 CFF3 F000      02353         MOVFF   PRODL, r0x05
001224 0E04           02354         MOVLW   0x04
001226 26E1           02355         ADDWF   FSR1L, F
001228 0E??           02356         MOVLW   LOW(_msgs)
00122A 26??           02357         ADDWF   r0x04, F
00122C 0E??           02358         MOVLW   HIGH(_msgs)
00122E 22??           02359         ADDWFC  r0x05, F
001230 50??           02360         MOVF    r0x03, W
001232 6EE5           02361         MOVWF   POSTDEC1
001234 50??           02362         MOVF    r0x02, W
001236 6EE5           02363         MOVWF   POSTDEC1
001238 0E00           02364         MOVLW   0x00
00123A 6EE5           02365         MOVWF   POSTDEC1
00123C 0E03           02366         MOVLW   0x03
00123E 6EE5           02367         MOVWF   POSTDEC1
001240 EC?? F0??      02368         CALL    __mulint
001244 6E??           02369         MOVWF   r0x06
gpasm-1.5.0 #1285 (Sep 12 2016) build/default   7-4-2017  20:27:39          PAGE 47


LOC    OBJECT CODE    LINE  SOURCE TEXT
  VALUE

001246 CFF3 F000      02370         MOVFF   PRODL, r0x07
00124A 0E04           02371         MOVLW   0x04
00124C 26E1           02372         ADDWF   FSR1L, F
00124E 50??           02373         MOVF    r0x06, W
001250 26??           02374         ADDWF   r0x04, F
001252 50??           02375         MOVF    r0x07, W
001254 22??           02376         ADDWFC  r0x05, F
001256 C??? F???      02377         MOVFF   r0x04, FSR0L
00125A C??? F???      02378         MOVFF   r0x05, FSR0H
00125E CFEE F000      02379         MOVFF   POSTINC0, r0x04
001262 CFEE F000      02380         MOVFF   POSTINC0, r0x05
001266 CFEF F000      02381         MOVFF   INDF0, r0x06
00126A 50??           02382         MOVF    r0x06, W
00126C 6EE5           02383         MOVWF   POSTDEC1
00126E 50??           02384         MOVF    r0x05, W
001270 6EE5           02385         MOVWF   POSTDEC1
001272 50??           02386         MOVF    r0x04, W
001274 6EE5           02387         MOVWF   POSTDEC1
001276 EC?? F0??      02388         CALL    _lcdString
00127A 0E03           02389         MOVLW   0x03
00127C 26E1           02390         ADDWF   FSR1L, F
                      02391 ;       .line   278; output.c   lcdCommand(0xC0);
00127E 0EC0           02392         MOVLW   0xc0
001280 6EE5           02393         MOVWF   POSTDEC1
001282 EC?? F0??      02394         CALL    _lcdCommand
001286 52E6           02395         MOVF    POSTINC1, F
                      02396 ;       .line   279; output.c   lcdString("                ");
001288 0E??           02397         MOVLW   UPPER(___str_5)
00128A 6E??           02398         MOVWF   r0x06
00128C 0E??           02399         MOVLW   HIGH(___str_5)
00128E 6E??           02400         MOVWF   r0x05
001290 0E??           02401         MOVLW   LOW(___str_5)
001292 6E??           02402         MOVWF   r0x04
001294 50??           02403         MOVF    r0x06, W
001296 6EE5           02404         MOVWF   POSTDEC1
001298 50??           02405         MOVF    r0x05, W
00129A 6EE5           02406         MOVWF   POSTDEC1
00129C 50??           02407         MOVF    r0x04, W
00129E 6EE5           02408         MOVWF   POSTDEC1
0012A0 EC?? F0??      02409         CALL    _lcdString
0012A4 0E03           02410         MOVLW   0x03
0012A6 26E1           02411         ADDWF   FSR1L, F
0012A8                02412 _00192_DS_:
                      02413 ;       .line   283; output.c   if (numTela == CONFIG_SENHA) {
0012A8 50??           02414         MOVF    r0x00, W
0012AA 0A18           02415         XORLW   0x18
0012AC E1??           02416         BNZ     _00796_DS_
0012AE 50??           02417         MOVF    r0x01, W
0012B0 E0??           02418         BZ      _00797_DS_
0012B2                02419 _00796_DS_:
0012B2 D???           02420         BRA     _00198_DS_
0012B4                02421 _00797_DS_:
                      02422 ;       .line   284; output.c   lcdCommand(0x80);
gpasm-1.5.0 #1285 (Sep 12 2016) build/default   7-4-2017  20:27:39          PAGE 48


LOC    OBJECT CODE    LINE  SOURCE TEXT
  VALUE

0012B4 0E80           02423         MOVLW   0x80
0012B6 6EE5           02424         MOVWF   POSTDEC1
0012B8 EC?? F0??      02425         CALL    _lcdCommand
0012BC 52E6           02426         MOVF    POSTINC1, F
                      02427 ;       .line   285; output.c   lcdString(msgs[numTela][idioma]);
0012BE 50??           02428         MOVF    r0x01, W
0012C0 6EE5           02429         MOVWF   POSTDEC1
0012C2 50??           02430         MOVF    r0x00, W
0012C4 6EE5           02431         MOVWF   POSTDEC1
0012C6 0E00           02432         MOVLW   0x00
0012C8 6EE5           02433         MOVWF   POSTDEC1
0012CA 0E06           02434         MOVLW   0x06
0012CC 6EE5           02435         MOVWF   POSTDEC1
0012CE EC?? F0??      02436         CALL    __mulint
0012D2 6E??           02437         MOVWF   r0x04
0012D4 CFF3 F000      02438         MOVFF   PRODL, r0x05
0012D8 0E04           02439         MOVLW   0x04
0012DA 26E1           02440         ADDWF   FSR1L, F
0012DC 0E??           02441         MOVLW   LOW(_msgs)
0012DE 26??           02442         ADDWF   r0x04, F
0012E0 0E??           02443         MOVLW   HIGH(_msgs)
0012E2 22??           02444         ADDWFC  r0x05, F
0012E4 50??           02445         MOVF    r0x03, W
0012E6 6EE5           02446         MOVWF   POSTDEC1
0012E8 50??           02447         MOVF    r0x02, W
0012EA 6EE5           02448         MOVWF   POSTDEC1
0012EC 0E00           02449         MOVLW   0x00
0012EE 6EE5           02450         MOVWF   POSTDEC1
0012F0 0E03           02451         MOVLW   0x03
0012F2 6EE5           02452         MOVWF   POSTDEC1
0012F4 EC?? F0??      02453         CALL    __mulint
0012F8 6E??           02454         MOVWF   r0x06
0012FA CFF3 F000      02455         MOVFF   PRODL, r0x07
0012FE 0E04           02456         MOVLW   0x04
001300 26E1           02457         ADDWF   FSR1L, F
001302 50??           02458         MOVF    r0x06, W
001304 26??           02459         ADDWF   r0x04, F
001306 50??           02460         MOVF    r0x07, W
001308 22??           02461         ADDWFC  r0x05, F
00130A C??? F???      02462         MOVFF   r0x04, FSR0L
00130E C??? F???      02463         MOVFF   r0x05, FSR0H
001312 CFEE F000      02464         MOVFF   POSTINC0, r0x04
001316 CFEE F000      02465         MOVFF   POSTINC0, r0x05
00131A CFEF F000      02466         MOVFF   INDF0, r0x06
00131E 50??           02467         MOVF    r0x06, W
001320 6EE5           02468         MOVWF   POSTDEC1
001322 50??           02469         MOVF    r0x05, W
001324 6EE5           02470         MOVWF   POSTDEC1
001326 50??           02471         MOVF    r0x04, W
001328 6EE5           02472         MOVWF   POSTDEC1
00132A EC?? F0??      02473         CALL    _lcdString
00132E 0E03           02474         MOVLW   0x03
001330 26E1           02475         ADDWF   FSR1L, F
gpasm-1.5.0 #1285 (Sep 12 2016) build/default   7-4-2017  20:27:39          PAGE 49


LOC    OBJECT CODE    LINE  SOURCE TEXT
  VALUE

                      02476 ;       .line   286; output.c   lcdCommand(0xC0);
001332 0EC0           02477         MOVLW   0xc0
001334 6EE5           02478         MOVWF   POSTDEC1
001336 EC?? F0??      02479         CALL    _lcdCommand
00133A 52E6           02480         MOVF    POSTINC1, F
                      02481 ;       .line   287; output.c   if (getLanguage() == 0) {
00133C EC?? F0??      02482         CALL    _getLanguage
001340 6E??           02483         MOVWF   r0x04
001342 50??           02484         MOVF    r0x04, W
001344 E1??           02485         BNZ     _00194_DS_
                      02486 ;       .line   288; output.c   lcdString(" Habilitar senha");
001346 0E??           02487         MOVLW   UPPER(___str_33)
001348 6E??           02488         MOVWF   r0x06
00134A 0E??           02489         MOVLW   HIGH(___str_33)
00134C 6E??           02490         MOVWF   r0x05
00134E 0E??           02491         MOVLW   LOW(___str_33)
001350 6E??           02492         MOVWF   r0x04
001352 50??           02493         MOVF    r0x06, W
001354 6EE5           02494         MOVWF   POSTDEC1
001356 50??           02495         MOVF    r0x05, W
001358 6EE5           02496         MOVWF   POSTDEC1
00135A 50??           02497         MOVF    r0x04, W
00135C 6EE5           02498         MOVWF   POSTDEC1
00135E EC?? F0??      02499         CALL    _lcdString
001362 0E03           02500         MOVLW   0x03
001364 26E1           02501         ADDWF   FSR1L, F
001366                02502 _00194_DS_:
                      02503 ;       .line   290; output.c   if (getLanguage() == 1) {
001366 EC?? F0??      02504         CALL    _getLanguage
00136A 6E??           02505         MOVWF   r0x04
00136C 50??           02506         MOVF    r0x04, W
00136E 0A01           02507         XORLW   0x01
001370 E1??           02508         BNZ     _00198_DS_
                      02509 ;       .line   291; output.c   lcdString(" Enable password");
001372 0E??           02510         MOVLW   UPPER(___str_34)
001374 6E??           02511         MOVWF   r0x06
001376 0E??           02512         MOVLW   HIGH(___str_34)
001378 6E??           02513         MOVWF   r0x05
00137A 0E??           02514         MOVLW   LOW(___str_34)
00137C 6E??           02515         MOVWF   r0x04
00137E 50??           02516         MOVF    r0x06, W
001380 6EE5           02517         MOVWF   POSTDEC1
001382 50??           02518         MOVF    r0x05, W
001384 6EE5           02519         MOVWF   POSTDEC1
001386 50??           02520         MOVF    r0x04, W
001388 6EE5           02521         MOVWF   POSTDEC1
00138A EC?? F0??      02522         CALL    _lcdString
00138E 0E03           02523         MOVLW   0x03
001390 26E1           02524         ADDWF   FSR1L, F
001392                02525 _00198_DS_:
                      02526 ;       .line   295; output.c   if (numTela == SECURITY_SENHA) {
001392 50??           02527         MOVF    r0x00, W
001394 0A19           02528         XORLW   0x19
gpasm-1.5.0 #1285 (Sep 12 2016) build/default   7-4-2017  20:27:39          PAGE 50


LOC    OBJECT CODE    LINE  SOURCE TEXT
  VALUE

001396 E1??           02529         BNZ     _00800_DS_
001398 50??           02530         MOVF    r0x01, W
00139A E0??           02531         BZ      _00801_DS_
00139C                02532 _00800_DS_:
00139C D???           02533         BRA     _00219_DS_
00139E                02534 _00801_DS_:
                      02535 ;       .line   296; output.c   lcdCommand(0x80);
00139E 0E80           02536         MOVLW   0x80
0013A0 6EE5           02537         MOVWF   POSTDEC1
0013A2 EC?? F0??      02538         CALL    _lcdCommand
0013A6 52E6           02539         MOVF    POSTINC1, F
                      02540 ;       .line   297; output.c   lcdString(msgs[numTela][idioma]);
0013A8 50??           02541         MOVF    r0x01, W
0013AA 6EE5           02542         MOVWF   POSTDEC1
0013AC 50??           02543         MOVF    r0x00, W
0013AE 6EE5           02544         MOVWF   POSTDEC1
0013B0 0E00           02545         MOVLW   0x00
0013B2 6EE5           02546         MOVWF   POSTDEC1
0013B4 0E06           02547         MOVLW   0x06
0013B6 6EE5           02548         MOVWF   POSTDEC1
0013B8 EC?? F0??      02549         CALL    __mulint
0013BC 6E??           02550         MOVWF   r0x04
0013BE CFF3 F000      02551         MOVFF   PRODL, r0x05
0013C2 0E04           02552         MOVLW   0x04
0013C4 26E1           02553         ADDWF   FSR1L, F
0013C6 0E??           02554         MOVLW   LOW(_msgs)
0013C8 26??           02555         ADDWF   r0x04, F
0013CA 0E??           02556         MOVLW   HIGH(_msgs)
0013CC 22??           02557         ADDWFC  r0x05, F
0013CE 50??           02558         MOVF    r0x03, W
0013D0 6EE5           02559         MOVWF   POSTDEC1
0013D2 50??           02560         MOVF    r0x02, W
0013D4 6EE5           02561         MOVWF   POSTDEC1
0013D6 0E00           02562         MOVLW   0x00
0013D8 6EE5           02563         MOVWF   POSTDEC1
0013DA 0E03           02564         MOVLW   0x03
0013DC 6EE5           02565         MOVWF   POSTDEC1
0013DE EC?? F0??      02566         CALL    __mulint
0013E2 6E??           02567         MOVWF   r0x06
0013E4 CFF3 F000      02568         MOVFF   PRODL, r0x07
0013E8 0E04           02569         MOVLW   0x04
0013EA 26E1           02570         ADDWF   FSR1L, F
0013EC 50??           02571         MOVF    r0x06, W
0013EE 26??           02572         ADDWF   r0x04, F
0013F0 50??           02573         MOVF    r0x07, W
0013F2 22??           02574         ADDWFC  r0x05, F
0013F4 C??? F???      02575         MOVFF   r0x04, FSR0L
0013F8 C??? F???      02576         MOVFF   r0x05, FSR0H
0013FC CFEE F000      02577         MOVFF   POSTINC0, r0x04
001400 CFEE F000      02578         MOVFF   POSTINC0, r0x05
001404 CFEF F000      02579         MOVFF   INDF0, r0x06
001408 50??           02580         MOVF    r0x06, W
00140A 6EE5           02581         MOVWF   POSTDEC1
gpasm-1.5.0 #1285 (Sep 12 2016) build/default   7-4-2017  20:27:39          PAGE 51


LOC    OBJECT CODE    LINE  SOURCE TEXT
  VALUE

00140C 50??           02582         MOVF    r0x05, W
00140E 6EE5           02583         MOVWF   POSTDEC1
001410 50??           02584         MOVF    r0x04, W
001412 6EE5           02585         MOVWF   POSTDEC1
001414 EC?? F0??      02586         CALL    _lcdString
001418 0E03           02587         MOVLW   0x03
00141A 26E1           02588         ADDWF   FSR1L, F
                      02589 ;       .line   298; output.c   lcdCommand(0xC0);
00141C 0EC0           02590         MOVLW   0xc0
00141E 6EE5           02591         MOVWF   POSTDEC1
001420 EC?? F0??      02592         CALL    _lcdCommand
001424 52E6           02593         MOVF    POSTINC1, F
                      02594 ;       .line   299; output.c   if(getSenha_i() == 0 ){
001426 EC?? F0??      02595         CALL    _getSenha_i
00142A 6E??           02596         MOVWF   r0x04
00142C CFF3 F000      02597         MOVFF   PRODL, r0x05
001430 50??           02598         MOVF    r0x04, W
001432 10??           02599         IORWF   r0x05, W
001434 E1??           02600         BNZ     _00200_DS_
                      02601 ;       .line   300; output.c   lcdString("                "); 
001436 0E??           02602         MOVLW   UPPER(___str_5)
001438 6E??           02603         MOVWF   r0x06
00143A 0E??           02604         MOVLW   HIGH(___str_5)
00143C 6E??           02605         MOVWF   r0x05
00143E 0E??           02606         MOVLW   LOW(___str_5)
001440 6E??           02607         MOVWF   r0x04
001442 50??           02608         MOVF    r0x06, W
001444 6EE5           02609         MOVWF   POSTDEC1
001446 50??           02610         MOVF    r0x05, W
001448 6EE5           02611         MOVWF   POSTDEC1
00144A 50??           02612         MOVF    r0x04, W
00144C 6EE5           02613         MOVWF   POSTDEC1
00144E EC?? F0??      02614         CALL    _lcdString
001452 0E03           02615         MOVLW   0x03
001454 26E1           02616         ADDWF   FSR1L, F
001456                02617 _00200_DS_:
                      02618 ;       .line   302; output.c   if(getSenha_i() == 1 ){
001456 EC?? F0??      02619         CALL    _getSenha_i
00145A 6E??           02620         MOVWF   r0x04
00145C CFF3 F000      02621         MOVFF   PRODL, r0x05
001460 50??           02622         MOVF    r0x04, W
001462 0A01           02623         XORLW   0x01
001464 E1??           02624         BNZ     _00802_DS_
001466 50??           02625         MOVF    r0x05, W
001468 E0??           02626         BZ      _00803_DS_
00146A                02627 _00802_DS_:
00146A D???           02628         BRA     _00202_DS_
00146C                02629 _00803_DS_:
                      02630 ;       .line   303; output.c   lcdString("*               "); 
00146C 0E??           02631         MOVLW   UPPER(___str_6)
00146E 6E??           02632         MOVWF   r0x06
001470 0E??           02633         MOVLW   HIGH(___str_6)
001472 6E??           02634         MOVWF   r0x05
gpasm-1.5.0 #1285 (Sep 12 2016) build/default   7-4-2017  20:27:39          PAGE 52


LOC    OBJECT CODE    LINE  SOURCE TEXT
  VALUE

001474 0E??           02635         MOVLW   LOW(___str_6)
001476 6E??           02636         MOVWF   r0x04
001478 50??           02637         MOVF    r0x06, W
00147A 6EE5           02638         MOVWF   POSTDEC1
00147C 50??           02639         MOVF    r0x05, W
00147E 6EE5           02640         MOVWF   POSTDEC1
001480 50??           02641         MOVF    r0x04, W
001482 6EE5           02642         MOVWF   POSTDEC1
001484 EC?? F0??      02643         CALL    _lcdString
001488 0E03           02644         MOVLW   0x03
00148A 26E1           02645         ADDWF   FSR1L, F
00148C                02646 _00202_DS_:
                      02647 ;       .line   305; output.c   if(getSenha_i() == 2 ){ //colocar o nome certo do contador de digitos
00148C EC?? F0??      02648         CALL    _getSenha_i
001490 6E??           02649         MOVWF   r0x04
001492 CFF3 F000      02650         MOVFF   PRODL, r0x05
001496 50??           02651         MOVF    r0x04, W
001498 0A02           02652         XORLW   0x02
00149A E1??           02653         BNZ     _00804_DS_
00149C 50??           02654         MOVF    r0x05, W
00149E E0??           02655         BZ      _00805_DS_
0014A0                02656 _00804_DS_:
0014A0 D???           02657         BRA     _00204_DS_
0014A2                02658 _00805_DS_:
                      02659 ;       .line   306; output.c   lcdString("**              "); 
0014A2 0E??           02660         MOVLW   UPPER(___str_7)
0014A4 6E??           02661         MOVWF   r0x06
0014A6 0E??           02662         MOVLW   HIGH(___str_7)
0014A8 6E??           02663         MOVWF   r0x05
0014AA 0E??           02664         MOVLW   LOW(___str_7)
0014AC 6E??           02665         MOVWF   r0x04
0014AE 50??           02666         MOVF    r0x06, W
0014B0 6EE5           02667         MOVWF   POSTDEC1
0014B2 50??           02668         MOVF    r0x05, W
0014B4 6EE5           02669         MOVWF   POSTDEC1
0014B6 50??           02670         MOVF    r0x04, W
0014B8 6EE5           02671         MOVWF   POSTDEC1
0014BA EC?? F0??      02672         CALL    _lcdString
0014BE 0E03           02673         MOVLW   0x03
0014C0 26E1           02674         ADDWF   FSR1L, F
0014C2                02675 _00204_DS_:
                      02676 ;       .line   308; output.c   if(getSenha_i() == 3 ){ //colocar o nome certo do contador de digitos
0014C2 EC?? F0??      02677         CALL    _getSenha_i
0014C6 6E??           02678         MOVWF   r0x04
0014C8 CFF3 F000      02679         MOVFF   PRODL, r0x05
0014CC 50??           02680         MOVF    r0x04, W
0014CE 0A03           02681         XORLW   0x03
0014D0 E1??           02682         BNZ     _00806_DS_
0014D2 50??           02683         MOVF    r0x05, W
0014D4 E0??           02684         BZ      _00807_DS_
0014D6                02685 _00806_DS_:
0014D6 D???           02686         BRA     _00206_DS_
0014D8                02687 _00807_DS_:
gpasm-1.5.0 #1285 (Sep 12 2016) build/default   7-4-2017  20:27:39          PAGE 53


LOC    OBJECT CODE    LINE  SOURCE TEXT
  VALUE

                      02688 ;       .line   309; output.c   lcdString("***            "); 
0014D8 0E??           02689         MOVLW   UPPER(___str_8)
0014DA 6E??           02690         MOVWF   r0x06
0014DC 0E??           02691         MOVLW   HIGH(___str_8)
0014DE 6E??           02692         MOVWF   r0x05
0014E0 0E??           02693         MOVLW   LOW(___str_8)
0014E2 6E??           02694         MOVWF   r0x04
0014E4 50??           02695         MOVF    r0x06, W
0014E6 6EE5           02696         MOVWF   POSTDEC1
0014E8 50??           02697         MOVF    r0x05, W
0014EA 6EE5           02698         MOVWF   POSTDEC1
0014EC 50??           02699         MOVF    r0x04, W
0014EE 6EE5           02700         MOVWF   POSTDEC1
0014F0 EC?? F0??      02701         CALL    _lcdString
0014F4 0E03           02702         MOVLW   0x03
0014F6 26E1           02703         ADDWF   FSR1L, F
0014F8                02704 _00206_DS_:
                      02705 ;       .line   311; output.c   if(getSenha_i() == 4 ){ //colocar o nome certo do contador de digitos
0014F8 EC?? F0??      02706         CALL    _getSenha_i
0014FC 6E??           02707         MOVWF   r0x04
0014FE CFF3 F000      02708         MOVFF   PRODL, r0x05
001502 50??           02709         MOVF    r0x04, W
001504 0A04           02710         XORLW   0x04
001506 E1??           02711         BNZ     _00808_DS_
001508 50??           02712         MOVF    r0x05, W
00150A E0??           02713         BZ      _00809_DS_
00150C                02714 _00808_DS_:
00150C D???           02715         BRA     _00208_DS_
00150E                02716 _00809_DS_:
                      02717 ;       .line   312; output.c   lcdString("****           "); 
00150E 0E??           02718         MOVLW   UPPER(___str_9)
001510 6E??           02719         MOVWF   r0x06
001512 0E??           02720         MOVLW   HIGH(___str_9)
001514 6E??           02721         MOVWF   r0x05
001516 0E??           02722         MOVLW   LOW(___str_9)
001518 6E??           02723         MOVWF   r0x04
00151A 50??           02724         MOVF    r0x06, W
00151C 6EE5           02725         MOVWF   POSTDEC1
00151E 50??           02726         MOVF    r0x05, W
001520 6EE5           02727         MOVWF   POSTDEC1
001522 50??           02728         MOVF    r0x04, W
001524 6EE5           02729         MOVWF   POSTDEC1
001526 EC?? F0??      02730         CALL    _lcdString
00152A 0E03           02731         MOVLW   0x03
00152C 26E1           02732         ADDWF   FSR1L, F
00152E                02733 _00208_DS_:
                      02734 ;       .line   314; output.c   if(getSenha_i() == 5 ){ //colocar o nome certo do contador de digitos
00152E EC?? F0??      02735         CALL    _getSenha_i
001532 6E??           02736         MOVWF   r0x04
001534 CFF3 F000      02737         MOVFF   PRODL, r0x05
001538 50??           02738         MOVF    r0x04, W
00153A 0A05           02739         XORLW   0x05
00153C E1??           02740         BNZ     _00810_DS_
gpasm-1.5.0 #1285 (Sep 12 2016) build/default   7-4-2017  20:27:39          PAGE 54


LOC    OBJECT CODE    LINE  SOURCE TEXT
  VALUE

00153E 50??           02741         MOVF    r0x05, W
001540 E0??           02742         BZ      _00811_DS_
001542                02743 _00810_DS_:
001542 D???           02744         BRA     _00210_DS_
001544                02745 _00811_DS_:
                      02746 ;       .line   315; output.c   lcdString("*****          "); 
001544 0E??           02747         MOVLW   UPPER(___str_10)
001546 6E??           02748         MOVWF   r0x06
001548 0E??           02749         MOVLW   HIGH(___str_10)
00154A 6E??           02750         MOVWF   r0x05
00154C 0E??           02751         MOVLW   LOW(___str_10)
00154E 6E??           02752         MOVWF   r0x04
001550 50??           02753         MOVF    r0x06, W
001552 6EE5           02754         MOVWF   POSTDEC1
001554 50??           02755         MOVF    r0x05, W
001556 6EE5           02756         MOVWF   POSTDEC1
001558 50??           02757         MOVF    r0x04, W
00155A 6EE5           02758         MOVWF   POSTDEC1
00155C EC?? F0??      02759         CALL    _lcdString
001560 0E03           02760         MOVLW   0x03
001562 26E1           02761         ADDWF   FSR1L, F
001564                02762 _00210_DS_:
                      02763 ;       .line   317; output.c   if(getSenha_try() == 3){
001564 EC?? F0??      02764         CALL    _getSenha_try
001568 6E??           02765         MOVWF   r0x04
00156A CFF3 F000      02766         MOVFF   PRODL, r0x05
00156E 50??           02767         MOVF    r0x04, W
001570 0A03           02768         XORLW   0x03
001572 E1??           02769         BNZ     _00812_DS_
001574 50??           02770         MOVF    r0x05, W
001576 E0??           02771         BZ      _00813_DS_
001578                02772 _00812_DS_:
001578 D???           02773         BRA     _00219_DS_
00157A                02774 _00813_DS_:
                      02775 ;       .line   318; output.c   lcdCommand(0xC0);
00157A 0EC0           02776         MOVLW   0xc0
00157C 6EE5           02777         MOVWF   POSTDEC1
00157E EC?? F0??      02778         CALL    _lcdCommand
001582 52E6           02779         MOVF    POSTINC1, F
                      02780 ;       .line   319; output.c   if (getLanguage() == 0) {
001584 EC?? F0??      02781         CALL    _getLanguage
001588 6E??           02782         MOVWF   r0x04
00158A 50??           02783         MOVF    r0x04, W
00158C E1??           02784         BNZ     _00212_DS_
                      02785 ;       .line   320; output.c   lcdString("Senha incorreta!");
00158E 0E??           02786         MOVLW   UPPER(___str_11)
001590 6E??           02787         MOVWF   r0x06
001592 0E??           02788         MOVLW   HIGH(___str_11)
001594 6E??           02789         MOVWF   r0x05
001596 0E??           02790         MOVLW   LOW(___str_11)
001598 6E??           02791         MOVWF   r0x04
00159A 50??           02792         MOVF    r0x06, W
00159C 6EE5           02793         MOVWF   POSTDEC1
gpasm-1.5.0 #1285 (Sep 12 2016) build/default   7-4-2017  20:27:39          PAGE 55


LOC    OBJECT CODE    LINE  SOURCE TEXT
  VALUE

00159E 50??           02794         MOVF    r0x05, W
0015A0 6EE5           02795         MOVWF   POSTDEC1
0015A2 50??           02796         MOVF    r0x04, W
0015A4 6EE5           02797         MOVWF   POSTDEC1
0015A6 EC?? F0??      02798         CALL    _lcdString
0015AA 0E03           02799         MOVLW   0x03
0015AC 26E1           02800         ADDWF   FSR1L, F
0015AE                02801 _00212_DS_:
                      02802 ;       .line   322; output.c   if (getLanguage() == 1) {
0015AE EC?? F0??      02803         CALL    _getLanguage
0015B2 6E??           02804         MOVWF   r0x04
0015B4 50??           02805         MOVF    r0x04, W
0015B6 0A01           02806         XORLW   0x01
0015B8 E1??           02807         BNZ     _00214_DS_
                      02808 ;       .line   323; output.c   lcdString("Wrong password! ");
0015BA 0E??           02809         MOVLW   UPPER(___str_12)
0015BC 6E??           02810         MOVWF   r0x06
0015BE 0E??           02811         MOVLW   HIGH(___str_12)
0015C0 6E??           02812         MOVWF   r0x05
0015C2 0E??           02813         MOVLW   LOW(___str_12)
0015C4 6E??           02814         MOVWF   r0x04
0015C6 50??           02815         MOVF    r0x06, W
0015C8 6EE5           02816         MOVWF   POSTDEC1
0015CA 50??           02817         MOVF    r0x05, W
0015CC 6EE5           02818         MOVWF   POSTDEC1
0015CE 50??           02819         MOVF    r0x04, W
0015D0 6EE5           02820         MOVWF   POSTDEC1
0015D2 EC?? F0??      02821         CALL    _lcdString
0015D6 0E03           02822         MOVLW   0x03
0015D8 26E1           02823         ADDWF   FSR1L, F
0015DA                02824 _00214_DS_:
0015DA 010?           02825         BANKSEL _i
                      02826 ;       .line   325; output.c   for (i = 0; i <= 1500; i++) { //delay para leitur da frase de 5s
0015DC 6B??           02827         CLRF    _i, B
0015DE 010?           02828         BANKSEL (_i + 1)
0015E0 6B??           02829         CLRF    (_i + 1), B
0015E2                02830 _00342_DS_:
                      02831 ;       .line   326; output.c   Delay2ms(); 
0015E2 EC?? F0??      02832         CALL    _Delay2ms
0015E6 010?           02833         BANKSEL _i
                      02834 ;       .line   325; output.c   for (i = 0; i <= 1500; i++) { //delay para leitur da frase de 5s
0015E8 3F??           02835         INCFSZ  _i, F, B
0015EA D???           02836         BRA     _30112_DS_
0015EC 010?           02837         BANKSEL (_i + 1)
0015EE 2B??           02838         INCF    (_i + 1), F, B
0015F0                02839 _30112_DS_:
0015F0 0E05           02840         MOVLW   0x05
0015F2 010?           02841         BANKSEL (_i + 1)
0015F4 5D??           02842         SUBWF   (_i + 1), W, B
0015F6 E1??           02843         BNZ     _00816_DS_
0015F8 0EDD           02844         MOVLW   0xdd
0015FA 010?           02845         BANKSEL _i
0015FC 5D??           02846         SUBWF   _i, W, B
gpasm-1.5.0 #1285 (Sep 12 2016) build/default   7-4-2017  20:27:39          PAGE 56


LOC    OBJECT CODE    LINE  SOURCE TEXT
  VALUE

0015FE                02847 _00816_DS_:
0015FE E3??           02848         BNC     _00342_DS_
001600                02849 _00219_DS_:
                      02850 ;       .line   331; output.c   if (numTela == NOVA_SENHA) {
001600 50??           02851         MOVF    r0x00, W
001602 0A1A           02852         XORLW   0x1a
001604 E1??           02853         BNZ     _00817_DS_
001606 50??           02854         MOVF    r0x01, W
001608 E0??           02855         BZ      _00818_DS_
00160A                02856 _00817_DS_:
00160A EF?? F0??      02857         GOTO    _00260_DS_
00160E                02858 _00818_DS_:
                      02859 ;       .line   332; output.c   lcdCommand(0x80);
00160E 0E80           02860         MOVLW   0x80
001610 6EE5           02861         MOVWF   POSTDEC1
001612 EC?? F0??      02862         CALL    _lcdCommand
001616 52E6           02863         MOVF    POSTINC1, F
                      02864 ;       .line   333; output.c   lcdString(msgs[numTela][idioma]);
001618 50??           02865         MOVF    r0x01, W
00161A 6EE5           02866         MOVWF   POSTDEC1
00161C 50??           02867         MOVF    r0x00, W
00161E 6EE5           02868         MOVWF   POSTDEC1
001620 0E00           02869         MOVLW   0x00
001622 6EE5           02870         MOVWF   POSTDEC1
001624 0E06           02871         MOVLW   0x06
001626 6EE5           02872         MOVWF   POSTDEC1
001628 EC?? F0??      02873         CALL    __mulint
00162C 6E??           02874         MOVWF   r0x04
00162E CFF3 F000      02875         MOVFF   PRODL, r0x05
001632 0E04           02876         MOVLW   0x04
001634 26E1           02877         ADDWF   FSR1L, F
001636 0E??           02878         MOVLW   LOW(_msgs)
001638 26??           02879         ADDWF   r0x04, F
00163A 0E??           02880         MOVLW   HIGH(_msgs)
00163C 22??           02881         ADDWFC  r0x05, F
00163E 50??           02882         MOVF    r0x03, W
001640 6EE5           02883         MOVWF   POSTDEC1
001642 50??           02884         MOVF    r0x02, W
001644 6EE5           02885         MOVWF   POSTDEC1
001646 0E00           02886         MOVLW   0x00
001648 6EE5           02887         MOVWF   POSTDEC1
00164A 0E03           02888         MOVLW   0x03
00164C 6EE5           02889         MOVWF   POSTDEC1
00164E EC?? F0??      02890         CALL    __mulint
001652 6E??           02891         MOVWF   r0x06
001654 CFF3 F000      02892         MOVFF   PRODL, r0x07
001658 0E04           02893         MOVLW   0x04
00165A 26E1           02894         ADDWF   FSR1L, F
00165C 50??           02895         MOVF    r0x06, W
00165E 26??           02896         ADDWF   r0x04, F
001660 50??           02897         MOVF    r0x07, W
001662 22??           02898         ADDWFC  r0x05, F
001664 C??? F???      02899         MOVFF   r0x04, FSR0L
gpasm-1.5.0 #1285 (Sep 12 2016) build/default   7-4-2017  20:27:39          PAGE 57


LOC    OBJECT CODE    LINE  SOURCE TEXT
  VALUE

001668 C??? F???      02900         MOVFF   r0x05, FSR0H
00166C CFEE F000      02901         MOVFF   POSTINC0, r0x04
001670 CFEE F000      02902         MOVFF   POSTINC0, r0x05
001674 CFEF F000      02903         MOVFF   INDF0, r0x06
001678 50??           02904         MOVF    r0x06, W
00167A 6EE5           02905         MOVWF   POSTDEC1
00167C 50??           02906         MOVF    r0x05, W
00167E 6EE5           02907         MOVWF   POSTDEC1
001680 50??           02908         MOVF    r0x04, W
001682 6EE5           02909         MOVWF   POSTDEC1
001684 EC?? F0??      02910         CALL    _lcdString
001688 0E03           02911         MOVLW   0x03
00168A 26E1           02912         ADDWF   FSR1L, F
                      02913 ;       .line   334; output.c   lcdCommand(0xC0);
00168C 0EC0           02914         MOVLW   0xc0
00168E 6EE5           02915         MOVWF   POSTDEC1
001690 EC?? F0??      02916         CALL    _lcdCommand
001694 52E6           02917         MOVF    POSTINC1, F
                      02918 ;       .line   335; output.c   if(getSenha_i() == 0 ){
001696 EC?? F0??      02919         CALL    _getSenha_i
00169A 6E??           02920         MOVWF   r0x04
00169C CFF3 F000      02921         MOVFF   PRODL, r0x05
0016A0 50??           02922         MOVF    r0x04, W
0016A2 10??           02923         IORWF   r0x05, W
0016A4 E1??           02924         BNZ     _00221_DS_
                      02925 ;       .line   336; output.c   lcdString("                "); 
0016A6 0E??           02926         MOVLW   UPPER(___str_5)
0016A8 6E??           02927         MOVWF   r0x06
0016AA 0E??           02928         MOVLW   HIGH(___str_5)
0016AC 6E??           02929         MOVWF   r0x05
0016AE 0E??           02930         MOVLW   LOW(___str_5)
0016B0 6E??           02931         MOVWF   r0x04
0016B2 50??           02932         MOVF    r0x06, W
0016B4 6EE5           02933         MOVWF   POSTDEC1
0016B6 50??           02934         MOVF    r0x05, W
0016B8 6EE5           02935         MOVWF   POSTDEC1
0016BA 50??           02936         MOVF    r0x04, W
0016BC 6EE5           02937         MOVWF   POSTDEC1
0016BE EC?? F0??      02938         CALL    _lcdString
0016C2 0E03           02939         MOVLW   0x03
0016C4 26E1           02940         ADDWF   FSR1L, F
0016C6                02941 _00221_DS_:
                      02942 ;       .line   338; output.c   if(getSenha_i() == 1 ){
0016C6 EC?? F0??      02943         CALL    _getSenha_i
0016CA 6E??           02944         MOVWF   r0x04
0016CC CFF3 F000      02945         MOVFF   PRODL, r0x05
0016D0 50??           02946         MOVF    r0x04, W
0016D2 0A01           02947         XORLW   0x01
0016D4 E1??           02948         BNZ     _00819_DS_
0016D6 50??           02949         MOVF    r0x05, W
0016D8 E0??           02950         BZ      _00820_DS_
0016DA                02951 _00819_DS_:
0016DA D???           02952         BRA     _00223_DS_
gpasm-1.5.0 #1285 (Sep 12 2016) build/default   7-4-2017  20:27:39          PAGE 58


LOC    OBJECT CODE    LINE  SOURCE TEXT
  VALUE

0016DC                02953 _00820_DS_:
                      02954 ;       .line   339; output.c   lcdString("*               "); 
0016DC 0E??           02955         MOVLW   UPPER(___str_6)
0016DE 6E??           02956         MOVWF   r0x06
0016E0 0E??           02957         MOVLW   HIGH(___str_6)
0016E2 6E??           02958         MOVWF   r0x05
0016E4 0E??           02959         MOVLW   LOW(___str_6)
0016E6 6E??           02960         MOVWF   r0x04
0016E8 50??           02961         MOVF    r0x06, W
0016EA 6EE5           02962         MOVWF   POSTDEC1
0016EC 50??           02963         MOVF    r0x05, W
0016EE 6EE5           02964         MOVWF   POSTDEC1
0016F0 50??           02965         MOVF    r0x04, W
0016F2 6EE5           02966         MOVWF   POSTDEC1
0016F4 EC?? F0??      02967         CALL    _lcdString
0016F8 0E03           02968         MOVLW   0x03
0016FA 26E1           02969         ADDWF   FSR1L, F
0016FC                02970 _00223_DS_:
                      02971 ;       .line   341; output.c   if(getSenha_i() == 2 ){ //colocar o nome certo do contador de digitos
0016FC EC?? F0??      02972         CALL    _getSenha_i
001700 6E??           02973         MOVWF   r0x04
001702 CFF3 F000      02974         MOVFF   PRODL, r0x05
001706 50??           02975         MOVF    r0x04, W
001708 0A02           02976         XORLW   0x02
00170A E1??           02977         BNZ     _00821_DS_
00170C 50??           02978         MOVF    r0x05, W
00170E E0??           02979         BZ      _00822_DS_
001710                02980 _00821_DS_:
001710 D???           02981         BRA     _00225_DS_
001712                02982 _00822_DS_:
                      02983 ;       .line   342; output.c   lcdString("**              "); 
001712 0E??           02984         MOVLW   UPPER(___str_7)
001714 6E??           02985         MOVWF   r0x06
001716 0E??           02986         MOVLW   HIGH(___str_7)
001718 6E??           02987         MOVWF   r0x05
00171A 0E??           02988         MOVLW   LOW(___str_7)
00171C 6E??           02989         MOVWF   r0x04
00171E 50??           02990         MOVF    r0x06, W
001720 6EE5           02991         MOVWF   POSTDEC1
001722 50??           02992         MOVF    r0x05, W
001724 6EE5           02993         MOVWF   POSTDEC1
001726 50??           02994         MOVF    r0x04, W
001728 6EE5           02995         MOVWF   POSTDEC1
00172A EC?? F0??      02996         CALL    _lcdString
00172E 0E03           02997         MOVLW   0x03
001730 26E1           02998         ADDWF   FSR1L, F
001732                02999 _00225_DS_:
                      03000 ;       .line   344; output.c   if(getSenha_i() == 3 ){ //colocar o nome certo do contador de digitos
001732 EC?? F0??      03001         CALL    _getSenha_i
001736 6E??           03002         MOVWF   r0x04
001738 CFF3 F000      03003         MOVFF   PRODL, r0x05
00173C 50??           03004         MOVF    r0x04, W
00173E 0A03           03005         XORLW   0x03
gpasm-1.5.0 #1285 (Sep 12 2016) build/default   7-4-2017  20:27:39          PAGE 59


LOC    OBJECT CODE    LINE  SOURCE TEXT
  VALUE

001740 E1??           03006         BNZ     _00823_DS_
001742 50??           03007         MOVF    r0x05, W
001744 E0??           03008         BZ      _00824_DS_
001746                03009 _00823_DS_:
001746 D???           03010         BRA     _00227_DS_
001748                03011 _00824_DS_:
                      03012 ;       .line   345; output.c   lcdString("***             "); 
001748 0E??           03013         MOVLW   UPPER(___str_35)
00174A 6E??           03014         MOVWF   r0x06
00174C 0E??           03015         MOVLW   HIGH(___str_35)
00174E 6E??           03016         MOVWF   r0x05
001750 0E??           03017         MOVLW   LOW(___str_35)
001752 6E??           03018         MOVWF   r0x04
001754 50??           03019         MOVF    r0x06, W
001756 6EE5           03020         MOVWF   POSTDEC1
001758 50??           03021         MOVF    r0x05, W
00175A 6EE5           03022         MOVWF   POSTDEC1
00175C 50??           03023         MOVF    r0x04, W
00175E 6EE5           03024         MOVWF   POSTDEC1
001760 EC?? F0??      03025         CALL    _lcdString
001764 0E03           03026         MOVLW   0x03
001766 26E1           03027         ADDWF   FSR1L, F
001768                03028 _00227_DS_:
                      03029 ;       .line   347; output.c   if(getSenha_i() == 4 ){ //colocar o nome certo do contador de digitos
001768 EC?? F0??      03030         CALL    _getSenha_i
00176C 6E??           03031         MOVWF   r0x04
00176E CFF3 F000      03032         MOVFF   PRODL, r0x05
001772 50??           03033         MOVF    r0x04, W
001774 0A04           03034         XORLW   0x04
001776 E1??           03035         BNZ     _00825_DS_
001778 50??           03036         MOVF    r0x05, W
00177A E0??           03037         BZ      _00826_DS_
00177C                03038 _00825_DS_:
00177C D???           03039         BRA     _00229_DS_
00177E                03040 _00826_DS_:
                      03041 ;       .line   348; output.c   lcdString("****            "); 
00177E 0E??           03042         MOVLW   UPPER(___str_36)
001780 6E??           03043         MOVWF   r0x06
001782 0E??           03044         MOVLW   HIGH(___str_36)
001784 6E??           03045         MOVWF   r0x05
001786 0E??           03046         MOVLW   LOW(___str_36)
001788 6E??           03047         MOVWF   r0x04
00178A 50??           03048         MOVF    r0x06, W
00178C 6EE5           03049         MOVWF   POSTDEC1
00178E 50??           03050         MOVF    r0x05, W
001790 6EE5           03051         MOVWF   POSTDEC1
001792 50??           03052         MOVF    r0x04, W
001794 6EE5           03053         MOVWF   POSTDEC1
001796 EC?? F0??      03054         CALL    _lcdString
00179A 0E03           03055         MOVLW   0x03
00179C 26E1           03056         ADDWF   FSR1L, F
00179E                03057 _00229_DS_:
                      03058 ;       .line   350; output.c   if(getSenha_i() == 5 ){ //colocar o nome certo do contador de digitos
gpasm-1.5.0 #1285 (Sep 12 2016) build/default   7-4-2017  20:27:39          PAGE 60


LOC    OBJECT CODE    LINE  SOURCE TEXT
  VALUE

00179E EC?? F0??      03059         CALL    _getSenha_i
0017A2 6E??           03060         MOVWF   r0x04
0017A4 CFF3 F000      03061         MOVFF   PRODL, r0x05
0017A8 50??           03062         MOVF    r0x04, W
0017AA 0A05           03063         XORLW   0x05
0017AC E1??           03064         BNZ     _00827_DS_
0017AE 50??           03065         MOVF    r0x05, W
0017B0 E0??           03066         BZ      _00828_DS_
0017B2                03067 _00827_DS_:
0017B2 D???           03068         BRA     _00231_DS_
0017B4                03069 _00828_DS_:
                      03070 ;       .line   351; output.c   lcdString("*****           "); 
0017B4 0E??           03071         MOVLW   UPPER(___str_37)
0017B6 6E??           03072         MOVWF   r0x06
0017B8 0E??           03073         MOVLW   HIGH(___str_37)
0017BA 6E??           03074         MOVWF   r0x05
0017BC 0E??           03075         MOVLW   LOW(___str_37)
0017BE 6E??           03076         MOVWF   r0x04
0017C0 50??           03077         MOVF    r0x06, W
0017C2 6EE5           03078         MOVWF   POSTDEC1
0017C4 50??           03079         MOVF    r0x05, W
0017C6 6EE5           03080         MOVWF   POSTDEC1
0017C8 50??           03081         MOVF    r0x04, W
0017CA 6EE5           03082         MOVWF   POSTDEC1
0017CC EC?? F0??      03083         CALL    _lcdString
0017D0 0E03           03084         MOVLW   0x03
0017D2 26E1           03085         ADDWF   FSR1L, F
0017D4                03086 _00231_DS_:
                      03087 ;       .line   357; output.c   lcdCommand(0xC0);
0017D4 0EC0           03088         MOVLW   0xc0
0017D6 6EE5           03089         MOVWF   POSTDEC1
0017D8 EC?? F0??      03090         CALL    _lcdCommand
0017DC 52E6           03091         MOVF    POSTINC1, F
                      03092 ;       .line   358; output.c   if(getSenha_i() == 5 ){ //colocar o nome certo do contador de digitos
0017DE EC?? F0??      03093         CALL    _getSenha_i
0017E2 6E??           03094         MOVWF   r0x04
0017E4 CFF3 F000      03095         MOVFF   PRODL, r0x05
0017E8 50??           03096         MOVF    r0x04, W
0017EA 0A05           03097         XORLW   0x05
0017EC E1??           03098         BNZ     _00829_DS_
0017EE 50??           03099         MOVF    r0x05, W
0017F0 E0??           03100         BZ      _00830_DS_
0017F2                03101 _00829_DS_:
0017F2 D???           03102         BRA     _00233_DS_
0017F4                03103 _00830_DS_:
                      03104 ;       .line   359; output.c   lcdString("                "); 
0017F4 0E??           03105         MOVLW   UPPER(___str_5)
0017F6 6E??           03106         MOVWF   r0x06
0017F8 0E??           03107         MOVLW   HIGH(___str_5)
0017FA 6E??           03108         MOVWF   r0x05
0017FC 0E??           03109         MOVLW   LOW(___str_5)
0017FE 6E??           03110         MOVWF   r0x04
001800 50??           03111         MOVF    r0x06, W
gpasm-1.5.0 #1285 (Sep 12 2016) build/default   7-4-2017  20:27:39          PAGE 61


LOC    OBJECT CODE    LINE  SOURCE TEXT
  VALUE

001802 6EE5           03112         MOVWF   POSTDEC1
001804 50??           03113         MOVF    r0x05, W
001806 6EE5           03114         MOVWF   POSTDEC1
001808 50??           03115         MOVF    r0x04, W
00180A 6EE5           03116         MOVWF   POSTDEC1
00180C EC?? F0??      03117         CALL    _lcdString
001810 0E03           03118         MOVLW   0x03
001812 26E1           03119         ADDWF   FSR1L, F
001814                03120 _00233_DS_:
                      03121 ;       .line   361; output.c   if(getSenha_i() == 6 ){ //colocar o nome certo do contador de digitos
001814 EC?? F0??      03122         CALL    _getSenha_i
001818 6E??           03123         MOVWF   r0x04
00181A CFF3 F000      03124         MOVFF   PRODL, r0x05
00181E 50??           03125         MOVF    r0x04, W
001820 0A06           03126         XORLW   0x06
001822 E1??           03127         BNZ     _00831_DS_
001824 50??           03128         MOVF    r0x05, W
001826 E0??           03129         BZ      _00832_DS_
001828                03130 _00831_DS_:
001828 D???           03131         BRA     _00235_DS_
00182A                03132 _00832_DS_:
                      03133 ;       .line   362; output.c   lcdString("*               "); 
00182A 0E??           03134         MOVLW   UPPER(___str_6)
00182C 6E??           03135         MOVWF   r0x06
00182E 0E??           03136         MOVLW   HIGH(___str_6)
001830 6E??           03137         MOVWF   r0x05
001832 0E??           03138         MOVLW   LOW(___str_6)
001834 6E??           03139         MOVWF   r0x04
001836 50??           03140         MOVF    r0x06, W
001838 6EE5           03141         MOVWF   POSTDEC1
00183A 50??           03142         MOVF    r0x05, W
00183C 6EE5           03143         MOVWF   POSTDEC1
00183E 50??           03144         MOVF    r0x04, W
001840 6EE5           03145         MOVWF   POSTDEC1
001842 EC?? F0??      03146         CALL    _lcdString
001846 0E03           03147         MOVLW   0x03
001848 26E1           03148         ADDWF   FSR1L, F
00184A                03149 _00235_DS_:
                      03150 ;       .line   364; output.c   if(getSenha_i() == 7 ){ //colocar o nome certo do contador de digitos
00184A EC?? F0??      03151         CALL    _getSenha_i
00184E 6E??           03152         MOVWF   r0x04
001850 CFF3 F000      03153         MOVFF   PRODL, r0x05
001854 50??           03154         MOVF    r0x04, W
001856 0A07           03155         XORLW   0x07
001858 E1??           03156         BNZ     _00833_DS_
00185A 50??           03157         MOVF    r0x05, W
00185C E0??           03158         BZ      _00834_DS_
00185E                03159 _00833_DS_:
00185E D???           03160         BRA     _00237_DS_
001860                03161 _00834_DS_:
                      03162 ;       .line   365; output.c   lcdString("**              "); 
001860 0E??           03163         MOVLW   UPPER(___str_7)
001862 6E??           03164         MOVWF   r0x06
gpasm-1.5.0 #1285 (Sep 12 2016) build/default   7-4-2017  20:27:39          PAGE 62


LOC    OBJECT CODE    LINE  SOURCE TEXT
  VALUE

001864 0E??           03165         MOVLW   HIGH(___str_7)
001866 6E??           03166         MOVWF   r0x05
001868 0E??           03167         MOVLW   LOW(___str_7)
00186A 6E??           03168         MOVWF   r0x04
00186C 50??           03169         MOVF    r0x06, W
00186E 6EE5           03170         MOVWF   POSTDEC1
001870 50??           03171         MOVF    r0x05, W
001872 6EE5           03172         MOVWF   POSTDEC1
001874 50??           03173         MOVF    r0x04, W
001876 6EE5           03174         MOVWF   POSTDEC1
001878 EC?? F0??      03175         CALL    _lcdString
00187C 0E03           03176         MOVLW   0x03
00187E 26E1           03177         ADDWF   FSR1L, F
001880                03178 _00237_DS_:
                      03179 ;       .line   367; output.c   if(getSenha_i() == 8 ){ //colocar o nome certo do contador de digitos
001880 EC?? F0??      03180         CALL    _getSenha_i
001884 6E??           03181         MOVWF   r0x04
001886 CFF3 F000      03182         MOVFF   PRODL, r0x05
00188A 50??           03183         MOVF    r0x04, W
00188C 0A08           03184         XORLW   0x08
00188E E1??           03185         BNZ     _00835_DS_
001890 50??           03186         MOVF    r0x05, W
001892 E0??           03187         BZ      _00836_DS_
001894                03188 _00835_DS_:
001894 D???           03189         BRA     _00239_DS_
001896                03190 _00836_DS_:
                      03191 ;       .line   368; output.c   lcdString("***             "); 
001896 0E??           03192         MOVLW   UPPER(___str_35)
001898 6E??           03193         MOVWF   r0x06
00189A 0E??           03194         MOVLW   HIGH(___str_35)
00189C 6E??           03195         MOVWF   r0x05
00189E 0E??           03196         MOVLW   LOW(___str_35)
0018A0 6E??           03197         MOVWF   r0x04
0018A2 50??           03198         MOVF    r0x06, W
0018A4 6EE5           03199         MOVWF   POSTDEC1
0018A6 50??           03200         MOVF    r0x05, W
0018A8 6EE5           03201         MOVWF   POSTDEC1
0018AA 50??           03202         MOVF    r0x04, W
0018AC 6EE5           03203         MOVWF   POSTDEC1
0018AE EC?? F0??      03204         CALL    _lcdString
0018B2 0E03           03205         MOVLW   0x03
0018B4 26E1           03206         ADDWF   FSR1L, F
0018B6                03207 _00239_DS_:
                      03208 ;       .line   370; output.c   if(getSenha_i() == 9 ){ //colocar o nome certo do contador de digitos
0018B6 EC?? F0??      03209         CALL    _getSenha_i
0018BA 6E??           03210         MOVWF   r0x04
0018BC CFF3 F000      03211         MOVFF   PRODL, r0x05
0018C0 50??           03212         MOVF    r0x04, W
0018C2 0A09           03213         XORLW   0x09
0018C4 E1??           03214         BNZ     _00837_DS_
0018C6 50??           03215         MOVF    r0x05, W
0018C8 E0??           03216         BZ      _00838_DS_
0018CA                03217 _00837_DS_:
gpasm-1.5.0 #1285 (Sep 12 2016) build/default   7-4-2017  20:27:39          PAGE 63


LOC    OBJECT CODE    LINE  SOURCE TEXT
  VALUE

0018CA D???           03218         BRA     _00241_DS_
0018CC                03219 _00838_DS_:
                      03220 ;       .line   371; output.c   lcdString("****            "); 
0018CC 0E??           03221         MOVLW   UPPER(___str_36)
0018CE 6E??           03222         MOVWF   r0x06
0018D0 0E??           03223         MOVLW   HIGH(___str_36)
0018D2 6E??           03224         MOVWF   r0x05
0018D4 0E??           03225         MOVLW   LOW(___str_36)
0018D6 6E??           03226         MOVWF   r0x04
0018D8 50??           03227         MOVF    r0x06, W
0018DA 6EE5           03228         MOVWF   POSTDEC1
0018DC 50??           03229         MOVF    r0x05, W
0018DE 6EE5           03230         MOVWF   POSTDEC1
0018E0 50??           03231         MOVF    r0x04, W
0018E2 6EE5           03232         MOVWF   POSTDEC1
0018E4 EC?? F0??      03233         CALL    _lcdString
0018E8 0E03           03234         MOVLW   0x03
0018EA 26E1           03235         ADDWF   FSR1L, F
0018EC                03236 _00241_DS_:
                      03237 ;       .line   373; output.c   if(getSenha_i() == 10 ){ //colocar o nome certo do contador de digitos
0018EC EC?? F0??      03238         CALL    _getSenha_i
0018F0 6E??           03239         MOVWF   r0x04
0018F2 CFF3 F000      03240         MOVFF   PRODL, r0x05
0018F6 50??           03241         MOVF    r0x04, W
0018F8 0A0A           03242         XORLW   0x0a
0018FA E1??           03243         BNZ     _00839_DS_
0018FC 50??           03244         MOVF    r0x05, W
0018FE E0??           03245         BZ      _00840_DS_
001900                03246 _00839_DS_:
001900 D???           03247         BRA     _00244_DS_
001902                03248 _00840_DS_:
                      03249 ;       .line   374; output.c   lcdString("*****           ");
001902 0E??           03250         MOVLW   UPPER(___str_37)
001904 6E??           03251         MOVWF   r0x06
001906 0E??           03252         MOVLW   HIGH(___str_37)
001908 6E??           03253         MOVWF   r0x05
00190A 0E??           03254         MOVLW   LOW(___str_37)
00190C 6E??           03255         MOVWF   r0x04
00190E 50??           03256         MOVF    r0x06, W
001910 6EE5           03257         MOVWF   POSTDEC1
001912 50??           03258         MOVF    r0x05, W
001914 6EE5           03259         MOVWF   POSTDEC1
001916 50??           03260         MOVF    r0x04, W
001918 6EE5           03261         MOVWF   POSTDEC1
00191A EC?? F0??      03262         CALL    _lcdString
00191E 0E03           03263         MOVLW   0x03
001920 26E1           03264         ADDWF   FSR1L, F
001922 010?           03265         BANKSEL _i
                      03266 ;       .line   375; output.c   for (i = 0; i <= 1500; i++) { //delay para leitur da frase de 5s
001924 6B??           03267         CLRF    _i, B
001926 010?           03268         BANKSEL (_i + 1)
001928 6B??           03269         CLRF    (_i + 1), B
00192A                03270 _00344_DS_:
gpasm-1.5.0 #1285 (Sep 12 2016) build/default   7-4-2017  20:27:39          PAGE 64


LOC    OBJECT CODE    LINE  SOURCE TEXT
  VALUE

                      03271 ;       .line   376; output.c   Delay2ms(); 
00192A EC?? F0??      03272         CALL    _Delay2ms
00192E 010?           03273         BANKSEL _i
                      03274 ;       .line   375; output.c   for (i = 0; i <= 1500; i++) { //delay para leitur da frase de 5s
001930 3F??           03275         INCFSZ  _i, F, B
001932 D???           03276         BRA     _40113_DS_
001934 010?           03277         BANKSEL (_i + 1)
001936 2B??           03278         INCF    (_i + 1), F, B
001938                03279 _40113_DS_:
001938 0E05           03280         MOVLW   0x05
00193A 010?           03281         BANKSEL (_i + 1)
00193C 5D??           03282         SUBWF   (_i + 1), W, B
00193E E1??           03283         BNZ     _00841_DS_
001940 0EDD           03284         MOVLW   0xdd
001942 010?           03285         BANKSEL _i
001944 5D??           03286         SUBWF   _i, W, B
001946                03287 _00841_DS_:
001946 E3??           03288         BNC     _00344_DS_
001948                03289 _00244_DS_:
                      03290 ;       .line   379; output.c   if(getSenha_try() == 1){
001948 EC?? F0??      03291         CALL    _getSenha_try
00194C 6E??           03292         MOVWF   r0x04
00194E CFF3 F000      03293         MOVFF   PRODL, r0x05
001952 50??           03294         MOVF    r0x04, W
001954 0A01           03295         XORLW   0x01
001956 E1??           03296         BNZ     _00842_DS_
001958 50??           03297         MOVF    r0x05, W
00195A E0??           03298         BZ      _00843_DS_
00195C                03299 _00842_DS_:
00195C D???           03300         BRA     _00251_DS_
00195E                03301 _00843_DS_:
                      03302 ;       .line   380; output.c   lcdCommand(0xC0);
00195E 0EC0           03303         MOVLW   0xc0
001960 6EE5           03304         MOVWF   POSTDEC1
001962 EC?? F0??      03305         CALL    _lcdCommand
001966 52E6           03306         MOVF    POSTINC1, F
                      03307 ;       .line   381; output.c   if (getLanguage() == 0) {
001968 EC?? F0??      03308         CALL    _getLanguage
00196C 6E??           03309         MOVWF   r0x04
00196E 50??           03310         MOVF    r0x04, W
001970 E1??           03311         BNZ     _00246_DS_
                      03312 ;       .line   382; output.c   lcdString("Senha incorreta!");
001972 0E??           03313         MOVLW   UPPER(___str_11)
001974 6E??           03314         MOVWF   r0x06
001976 0E??           03315         MOVLW   HIGH(___str_11)
001978 6E??           03316         MOVWF   r0x05
00197A 0E??           03317         MOVLW   LOW(___str_11)
00197C 6E??           03318         MOVWF   r0x04
00197E 50??           03319         MOVF    r0x06, W
001980 6EE5           03320         MOVWF   POSTDEC1
001982 50??           03321         MOVF    r0x05, W
001984 6EE5           03322         MOVWF   POSTDEC1
001986 50??           03323         MOVF    r0x04, W
gpasm-1.5.0 #1285 (Sep 12 2016) build/default   7-4-2017  20:27:39          PAGE 65


LOC    OBJECT CODE    LINE  SOURCE TEXT
  VALUE

001988 6EE5           03324         MOVWF   POSTDEC1
00198A EC?? F0??      03325         CALL    _lcdString
00198E 0E03           03326         MOVLW   0x03
001990 26E1           03327         ADDWF   FSR1L, F
001992                03328 _00246_DS_:
                      03329 ;       .line   384; output.c   if (getLanguage() == 1) {
001992 EC?? F0??      03330         CALL    _getLanguage
001996 6E??           03331         MOVWF   r0x04
001998 50??           03332         MOVF    r0x04, W
00199A 0A01           03333         XORLW   0x01
00199C E1??           03334         BNZ     _00248_DS_
                      03335 ;       .line   385; output.c   lcdString("Wrong password! ");
00199E 0E??           03336         MOVLW   UPPER(___str_12)
0019A0 6E??           03337         MOVWF   r0x06
0019A2 0E??           03338         MOVLW   HIGH(___str_12)
0019A4 6E??           03339         MOVWF   r0x05
0019A6 0E??           03340         MOVLW   LOW(___str_12)
0019A8 6E??           03341         MOVWF   r0x04
0019AA 50??           03342         MOVF    r0x06, W
0019AC 6EE5           03343         MOVWF   POSTDEC1
0019AE 50??           03344         MOVF    r0x05, W
0019B0 6EE5           03345         MOVWF   POSTDEC1
0019B2 50??           03346         MOVF    r0x04, W
0019B4 6EE5           03347         MOVWF   POSTDEC1
0019B6 EC?? F0??      03348         CALL    _lcdString
0019BA 0E03           03349         MOVLW   0x03
0019BC 26E1           03350         ADDWF   FSR1L, F
0019BE                03351 _00248_DS_:
0019BE 010?           03352         BANKSEL _i
                      03353 ;       .line   387; output.c   for (i = 0; i <= 1500; i++) {
0019C0 6B??           03354         CLRF    _i, B
0019C2 010?           03355         BANKSEL (_i + 1)
0019C4 6B??           03356         CLRF    (_i + 1), B
0019C6                03357 _00346_DS_:
                      03358 ;       .line   388; output.c   Delay2ms(); 
0019C6 EC?? F0??      03359         CALL    _Delay2ms
0019CA 010?           03360         BANKSEL _i
                      03361 ;       .line   387; output.c   for (i = 0; i <= 1500; i++) {
0019CC 3F??           03362         INCFSZ  _i, F, B
0019CE D???           03363         BRA     _50114_DS_
0019D0 010?           03364         BANKSEL (_i + 1)
0019D2 2B??           03365         INCF    (_i + 1), F, B
0019D4                03366 _50114_DS_:
0019D4 0E05           03367         MOVLW   0x05
0019D6 010?           03368         BANKSEL (_i + 1)
0019D8 5D??           03369         SUBWF   (_i + 1), W, B
0019DA E1??           03370         BNZ     _00846_DS_
0019DC 0EDD           03371         MOVLW   0xdd
0019DE 010?           03372         BANKSEL _i
0019E0 5D??           03373         SUBWF   _i, W, B
0019E2                03374 _00846_DS_:
0019E2 E3??           03375         BNC     _00346_DS_
0019E4                03376 _00251_DS_:
gpasm-1.5.0 #1285 (Sep 12 2016) build/default   7-4-2017  20:27:39          PAGE 66


LOC    OBJECT CODE    LINE  SOURCE TEXT
  VALUE

                      03377 ;       .line   391; output.c   if(getTestResult()){
0019E4 EC?? F0??      03378         CALL    _getTestResult
0019E8 6E??           03379         MOVWF   r0x04
0019EA CFF3 F000      03380         MOVFF   PRODL, r0x05
0019EE 50??           03381         MOVF    r0x04, W
0019F0 10??           03382         IORWF   r0x05, W
0019F2 B4D8           03383         BTFSC   STATUS, 2
0019F4 D???           03384         BRA     _00260_DS_
                      03385 ;       .line   392; output.c   lcdCommand(0xC0);
0019F6 0EC0           03386         MOVLW   0xc0
0019F8 6EE5           03387         MOVWF   POSTDEC1
0019FA EC?? F0??      03388         CALL    _lcdCommand
0019FE 52E6           03389         MOVF    POSTINC1, F
                      03390 ;       .line   393; output.c   if (getLanguage() == 0) {
001A00 EC?? F0??      03391         CALL    _getLanguage
001A04 6E??           03392         MOVWF   r0x04
001A06 50??           03393         MOVF    r0x04, W
001A08 E1??           03394         BNZ     _00253_DS_
                      03395 ;       .line   394; output.c   lcdString("Senha alterada! ");
001A0A 0E??           03396         MOVLW   UPPER(___str_38)
001A0C 6E??           03397         MOVWF   r0x06
001A0E 0E??           03398         MOVLW   HIGH(___str_38)
001A10 6E??           03399         MOVWF   r0x05
001A12 0E??           03400         MOVLW   LOW(___str_38)
001A14 6E??           03401         MOVWF   r0x04
001A16 50??           03402         MOVF    r0x06, W
001A18 6EE5           03403         MOVWF   POSTDEC1
001A1A 50??           03404         MOVF    r0x05, W
001A1C 6EE5           03405         MOVWF   POSTDEC1
001A1E 50??           03406         MOVF    r0x04, W
001A20 6EE5           03407         MOVWF   POSTDEC1
001A22 EC?? F0??      03408         CALL    _lcdString
001A26 0E03           03409         MOVLW   0x03
001A28 26E1           03410         ADDWF   FSR1L, F
001A2A                03411 _00253_DS_:
                      03412 ;       .line   396; output.c   if (getLanguage() == 1) {
001A2A EC?? F0??      03413         CALL    _getLanguage
001A2E 6E??           03414         MOVWF   r0x04
001A30 50??           03415         MOVF    r0x04, W
001A32 0A01           03416         XORLW   0x01
001A34 E1??           03417         BNZ     _00255_DS_
                      03418 ;       .line   397; output.c   lcdString("Password changed!");
001A36 0E??           03419         MOVLW   UPPER(___str_39)
001A38 6E??           03420         MOVWF   r0x06
001A3A 0E??           03421         MOVLW   HIGH(___str_39)
001A3C 6E??           03422         MOVWF   r0x05
001A3E 0E??           03423         MOVLW   LOW(___str_39)
001A40 6E??           03424         MOVWF   r0x04
001A42 50??           03425         MOVF    r0x06, W
001A44 6EE5           03426         MOVWF   POSTDEC1
001A46 50??           03427         MOVF    r0x05, W
001A48 6EE5           03428         MOVWF   POSTDEC1
001A4A 50??           03429         MOVF    r0x04, W
gpasm-1.5.0 #1285 (Sep 12 2016) build/default   7-4-2017  20:27:39          PAGE 67


LOC    OBJECT CODE    LINE  SOURCE TEXT
  VALUE

001A4C 6EE5           03430         MOVWF   POSTDEC1
001A4E EC?? F0??      03431         CALL    _lcdString
001A52 0E03           03432         MOVLW   0x03
001A54 26E1           03433         ADDWF   FSR1L, F
001A56                03434 _00255_DS_:
001A56 010?           03435         BANKSEL _i
                      03436 ;       .line   399; output.c   for (i = 0; i <= 1500; i++) { //delay para leitur da frase de 5s
001A58 6B??           03437         CLRF    _i, B
001A5A 010?           03438         BANKSEL (_i + 1)
001A5C 6B??           03439         CLRF    (_i + 1), B
001A5E                03440 _00348_DS_:
                      03441 ;       .line   400; output.c   Delay2ms(); 
001A5E EC?? F0??      03442         CALL    _Delay2ms
001A62 010?           03443         BANKSEL _i
                      03444 ;       .line   399; output.c   for (i = 0; i <= 1500; i++) { //delay para leitur da frase de 5s
001A64 3F??           03445         INCFSZ  _i, F, B
001A66 D???           03446         BRA     _60115_DS_
001A68 010?           03447         BANKSEL (_i + 1)
001A6A 2B??           03448         INCF    (_i + 1), F, B
001A6C                03449 _60115_DS_:
001A6C 0E05           03450         MOVLW   0x05
001A6E 010?           03451         BANKSEL (_i + 1)
001A70 5D??           03452         SUBWF   (_i + 1), W, B
001A72 E1??           03453         BNZ     _00849_DS_
001A74 0EDD           03454         MOVLW   0xdd
001A76 010?           03455         BANKSEL _i
001A78 5D??           03456         SUBWF   _i, W, B
001A7A                03457 _00849_DS_:
001A7A E3??           03458         BNC     _00348_DS_
001A7C                03459 _00260_DS_:
                      03460 ;       .line   405; output.c   if(numTela == AGUARDO){
001A7C 50??           03461         MOVF    r0x00, W
001A7E 0A21           03462         XORLW   0x21
001A80 E1??           03463         BNZ     _00850_DS_
001A82 50??           03464         MOVF    r0x01, W
001A84 E0??           03465         BZ      _00851_DS_
001A86                03466 _00850_DS_:
001A86 D???           03467         BRA     _00267_DS_
001A88                03468 _00851_DS_:
                      03469 ;       .line   406; output.c   lcdCommand(0xC0);
001A88 0EC0           03470         MOVLW   0xc0
001A8A 6EE5           03471         MOVWF   POSTDEC1
001A8C EC?? F0??      03472         CALL    _lcdCommand
001A90 52E6           03473         MOVF    POSTINC1, F
                      03474 ;       .line   407; output.c   if (getLanguage() == 0) {
001A92 EC?? F0??      03475         CALL    _getLanguage
001A96 6E??           03476         MOVWF   r0x04
001A98 50??           03477         MOVF    r0x04, W
001A9A E1??           03478         BNZ     _00262_DS_
                      03479 ;       .line   408; output.c   lcdString("Insira novamente");
001A9C 0E??           03480         MOVLW   UPPER(___str_40)
001A9E 6E??           03481         MOVWF   r0x06
001AA0 0E??           03482         MOVLW   HIGH(___str_40)
gpasm-1.5.0 #1285 (Sep 12 2016) build/default   7-4-2017  20:27:39          PAGE 68


LOC    OBJECT CODE    LINE  SOURCE TEXT
  VALUE

001AA2 6E??           03483         MOVWF   r0x05
001AA4 0E??           03484         MOVLW   LOW(___str_40)
001AA6 6E??           03485         MOVWF   r0x04
001AA8 50??           03486         MOVF    r0x06, W
001AAA 6EE5           03487         MOVWF   POSTDEC1
001AAC 50??           03488         MOVF    r0x05, W
001AAE 6EE5           03489         MOVWF   POSTDEC1
001AB0 50??           03490         MOVF    r0x04, W
001AB2 6EE5           03491         MOVWF   POSTDEC1
001AB4 EC?? F0??      03492         CALL    _lcdString
001AB8 0E03           03493         MOVLW   0x03
001ABA 26E1           03494         ADDWF   FSR1L, F
001ABC                03495 _00262_DS_:
                      03496 ;       .line   410; output.c   if (getLanguage() == 1) {
001ABC EC?? F0??      03497         CALL    _getLanguage
001AC0 6E??           03498         MOVWF   r0x04
001AC2 50??           03499         MOVF    r0x04, W
001AC4 0A01           03500         XORLW   0x01
001AC6 E1??           03501         BNZ     _00264_DS_
                      03502 ;       .line   411; output.c   lcdString("Please re-enter ");
001AC8 0E??           03503         MOVLW   UPPER(___str_41)
001ACA 6E??           03504         MOVWF   r0x06
001ACC 0E??           03505         MOVLW   HIGH(___str_41)
001ACE 6E??           03506         MOVWF   r0x05
001AD0 0E??           03507         MOVLW   LOW(___str_41)
001AD2 6E??           03508         MOVWF   r0x04
001AD4 50??           03509         MOVF    r0x06, W
001AD6 6EE5           03510         MOVWF   POSTDEC1
001AD8 50??           03511         MOVF    r0x05, W
001ADA 6EE5           03512         MOVWF   POSTDEC1
001ADC 50??           03513         MOVF    r0x04, W
001ADE 6EE5           03514         MOVWF   POSTDEC1
001AE0 EC?? F0??      03515         CALL    _lcdString
001AE4 0E03           03516         MOVLW   0x03
001AE6 26E1           03517         ADDWF   FSR1L, F
001AE8                03518 _00264_DS_:
001AE8 010?           03519         BANKSEL _i
                      03520 ;       .line   413; output.c   for (i = 0; i <= 1500; i++){
001AEA 6B??           03521         CLRF    _i, B
001AEC 010?           03522         BANKSEL (_i + 1)
001AEE 6B??           03523         CLRF    (_i + 1), B
001AF0                03524 _00350_DS_:
                      03525 ;       .line   414; output.c   Delay2ms();
001AF0 EC?? F0??      03526         CALL    _Delay2ms
001AF4 010?           03527         BANKSEL _i
                      03528 ;       .line   413; output.c   for (i = 0; i <= 1500; i++){
001AF6 3F??           03529         INCFSZ  _i, F, B
001AF8 D???           03530         BRA     _70116_DS_
001AFA 010?           03531         BANKSEL (_i + 1)
001AFC 2B??           03532         INCF    (_i + 1), F, B
001AFE                03533 _70116_DS_:
001AFE 0E05           03534         MOVLW   0x05
001B00 010?           03535         BANKSEL (_i + 1)
gpasm-1.5.0 #1285 (Sep 12 2016) build/default   7-4-2017  20:27:39          PAGE 69


LOC    OBJECT CODE    LINE  SOURCE TEXT
  VALUE

001B02 5D??           03536         SUBWF   (_i + 1), W, B
001B04 E1??           03537         BNZ     _00854_DS_
001B06 0EDD           03538         MOVLW   0xdd
001B08 010?           03539         BANKSEL _i
001B0A 5D??           03540         SUBWF   _i, W, B
001B0C                03541 _00854_DS_:
001B0C E3??           03542         BNC     _00350_DS_
001B0E                03543 _00267_DS_:
                      03544 ;       .line   417; output.c   if (numTela == CONFIG_HABILITA) {
001B0E 50??           03545         MOVF    r0x00, W
001B10 0A1B           03546         XORLW   0x1b
001B12 E1??           03547         BNZ     _00855_DS_
001B14 50??           03548         MOVF    r0x01, W
001B16 E0??           03549         BZ      _00856_DS_
001B18                03550 _00855_DS_:
001B18 D???           03551         BRA     _00273_DS_
001B1A                03552 _00856_DS_:
                      03553 ;       .line   418; output.c   lcdCommand(0x80);
001B1A 0E80           03554         MOVLW   0x80
001B1C 6EE5           03555         MOVWF   POSTDEC1
001B1E EC?? F0??      03556         CALL    _lcdCommand
001B22 52E6           03557         MOVF    POSTINC1, F
                      03558 ;       .line   419; output.c   lcdString(msgs[numTela][idioma]);
001B24 50??           03559         MOVF    r0x01, W
001B26 6EE5           03560         MOVWF   POSTDEC1
001B28 50??           03561         MOVF    r0x00, W
001B2A 6EE5           03562         MOVWF   POSTDEC1
001B2C 0E00           03563         MOVLW   0x00
001B2E 6EE5           03564         MOVWF   POSTDEC1
001B30 0E06           03565         MOVLW   0x06
001B32 6EE5           03566         MOVWF   POSTDEC1
001B34 EC?? F0??      03567         CALL    __mulint
001B38 6E??           03568         MOVWF   r0x04
001B3A CFF3 F000      03569         MOVFF   PRODL, r0x05
001B3E 0E04           03570         MOVLW   0x04
001B40 26E1           03571         ADDWF   FSR1L, F
001B42 0E??           03572         MOVLW   LOW(_msgs)
001B44 26??           03573         ADDWF   r0x04, F
001B46 0E??           03574         MOVLW   HIGH(_msgs)
001B48 22??           03575         ADDWFC  r0x05, F
001B4A 50??           03576         MOVF    r0x03, W
001B4C 6EE5           03577         MOVWF   POSTDEC1
001B4E 50??           03578         MOVF    r0x02, W
001B50 6EE5           03579         MOVWF   POSTDEC1
001B52 0E00           03580         MOVLW   0x00
001B54 6EE5           03581         MOVWF   POSTDEC1
001B56 0E03           03582         MOVLW   0x03
001B58 6EE5           03583         MOVWF   POSTDEC1
001B5A EC?? F0??      03584         CALL    __mulint
001B5E 6E??           03585         MOVWF   r0x06
001B60 CFF3 F000      03586         MOVFF   PRODL, r0x07
001B64 0E04           03587         MOVLW   0x04
001B66 26E1           03588         ADDWF   FSR1L, F
gpasm-1.5.0 #1285 (Sep 12 2016) build/default   7-4-2017  20:27:39          PAGE 70


LOC    OBJECT CODE    LINE  SOURCE TEXT
  VALUE

001B68 50??           03589         MOVF    r0x06, W
001B6A 26??           03590         ADDWF   r0x04, F
001B6C 50??           03591         MOVF    r0x07, W
001B6E 22??           03592         ADDWFC  r0x05, F
001B70 C??? F???      03593         MOVFF   r0x04, FSR0L
001B74 C??? F???      03594         MOVFF   r0x05, FSR0H
001B78 CFEE F000      03595         MOVFF   POSTINC0, r0x04
001B7C CFEE F000      03596         MOVFF   POSTINC0, r0x05
001B80 CFEF F000      03597         MOVFF   INDF0, r0x06
001B84 50??           03598         MOVF    r0x06, W
001B86 6EE5           03599         MOVWF   POSTDEC1
001B88 50??           03600         MOVF    r0x05, W
001B8A 6EE5           03601         MOVWF   POSTDEC1
001B8C 50??           03602         MOVF    r0x04, W
001B8E 6EE5           03603         MOVWF   POSTDEC1
001B90 EC?? F0??      03604         CALL    _lcdString
001B94 0E03           03605         MOVLW   0x03
001B96 26E1           03606         ADDWF   FSR1L, F
                      03607 ;       .line   420; output.c   lcdCommand(0xC0);
001B98 0EC0           03608         MOVLW   0xc0
001B9A 6EE5           03609         MOVWF   POSTDEC1
001B9C EC?? F0??      03610         CALL    _lcdCommand
001BA0 52E6           03611         MOVF    POSTINC1, F
                      03612 ;       .line   421; output.c   if (getLanguage() == 0) {
001BA2 EC?? F0??      03613         CALL    _getLanguage
001BA6 6E??           03614         MOVWF   r0x04
001BA8 50??           03615         MOVF    r0x04, W
001BAA E1??           03616         BNZ     _00269_DS_
                      03617 ;       .line   422; output.c   lcdString("*Habilitar senha");
001BAC 0E??           03618         MOVLW   UPPER(___str_42)
001BAE 6E??           03619         MOVWF   r0x06
001BB0 0E??           03620         MOVLW   HIGH(___str_42)
001BB2 6E??           03621         MOVWF   r0x05
001BB4 0E??           03622         MOVLW   LOW(___str_42)
001BB6 6E??           03623         MOVWF   r0x04
001BB8 50??           03624         MOVF    r0x06, W
001BBA 6EE5           03625         MOVWF   POSTDEC1
001BBC 50??           03626         MOVF    r0x05, W
001BBE 6EE5           03627         MOVWF   POSTDEC1
001BC0 50??           03628         MOVF    r0x04, W
001BC2 6EE5           03629         MOVWF   POSTDEC1
001BC4 EC?? F0??      03630         CALL    _lcdString
001BC8 0E03           03631         MOVLW   0x03
001BCA 26E1           03632         ADDWF   FSR1L, F
001BCC                03633 _00269_DS_:
                      03634 ;       .line   424; output.c   if (getLanguage() == 1) {
001BCC EC?? F0??      03635         CALL    _getLanguage
001BD0 6E??           03636         MOVWF   r0x04
001BD2 50??           03637         MOVF    r0x04, W
001BD4 0A01           03638         XORLW   0x01
001BD6 E1??           03639         BNZ     _00273_DS_
                      03640 ;       .line   425; output.c   lcdString("*Enable password");
001BD8 0E??           03641         MOVLW   UPPER(___str_43)
gpasm-1.5.0 #1285 (Sep 12 2016) build/default   7-4-2017  20:27:39          PAGE 71


LOC    OBJECT CODE    LINE  SOURCE TEXT
  VALUE

001BDA 6E??           03642         MOVWF   r0x06
001BDC 0E??           03643         MOVLW   HIGH(___str_43)
001BDE 6E??           03644         MOVWF   r0x05
001BE0 0E??           03645         MOVLW   LOW(___str_43)
001BE2 6E??           03646         MOVWF   r0x04
001BE4 50??           03647         MOVF    r0x06, W
001BE6 6EE5           03648         MOVWF   POSTDEC1
001BE8 50??           03649         MOVF    r0x05, W
001BEA 6EE5           03650         MOVWF   POSTDEC1
001BEC 50??           03651         MOVF    r0x04, W
001BEE 6EE5           03652         MOVWF   POSTDEC1
001BF0 EC?? F0??      03653         CALL    _lcdString
001BF4 0E03           03654         MOVLW   0x03
001BF6 26E1           03655         ADDWF   FSR1L, F
001BF8                03656 _00273_DS_:
                      03657 ;       .line   431; output.c   if (numTela == SECURITY_HABILITA) {
001BF8 50??           03658         MOVF    r0x00, W
001BFA 0A1C           03659         XORLW   0x1c
001BFC E1??           03660         BNZ     _00859_DS_
001BFE 50??           03661         MOVF    r0x01, W
001C00 E0??           03662         BZ      _00860_DS_
001C02                03663 _00859_DS_:
001C02 D???           03664         BRA     _00295_DS_
001C04                03665 _00860_DS_:
                      03666 ;       .line   432; output.c   lcdCommand(0x80);
001C04 0E80           03667         MOVLW   0x80
001C06 6EE5           03668         MOVWF   POSTDEC1
001C08 EC?? F0??      03669         CALL    _lcdCommand
001C0C 52E6           03670         MOVF    POSTINC1, F
                      03671 ;       .line   433; output.c   lcdString(msgs[numTela][idioma]);
001C0E 50??           03672         MOVF    r0x01, W
001C10 6EE5           03673         MOVWF   POSTDEC1
001C12 50??           03674         MOVF    r0x00, W
001C14 6EE5           03675         MOVWF   POSTDEC1
001C16 0E00           03676         MOVLW   0x00
001C18 6EE5           03677         MOVWF   POSTDEC1
001C1A 0E06           03678         MOVLW   0x06
001C1C 6EE5           03679         MOVWF   POSTDEC1
001C1E EC?? F0??      03680         CALL    __mulint
001C22 6E??           03681         MOVWF   r0x04
001C24 CFF3 F000      03682         MOVFF   PRODL, r0x05
001C28 0E04           03683         MOVLW   0x04
001C2A 26E1           03684         ADDWF   FSR1L, F
001C2C 0E??           03685         MOVLW   LOW(_msgs)
001C2E 26??           03686         ADDWF   r0x04, F
001C30 0E??           03687         MOVLW   HIGH(_msgs)
001C32 22??           03688         ADDWFC  r0x05, F
001C34 50??           03689         MOVF    r0x03, W
001C36 6EE5           03690         MOVWF   POSTDEC1
001C38 50??           03691         MOVF    r0x02, W
001C3A 6EE5           03692         MOVWF   POSTDEC1
001C3C 0E00           03693         MOVLW   0x00
001C3E 6EE5           03694         MOVWF   POSTDEC1
gpasm-1.5.0 #1285 (Sep 12 2016) build/default   7-4-2017  20:27:39          PAGE 72


LOC    OBJECT CODE    LINE  SOURCE TEXT
  VALUE

001C40 0E03           03695         MOVLW   0x03
001C42 6EE5           03696         MOVWF   POSTDEC1
001C44 EC?? F0??      03697         CALL    __mulint
001C48 6E??           03698         MOVWF   r0x06
001C4A CFF3 F000      03699         MOVFF   PRODL, r0x07
001C4E 0E04           03700         MOVLW   0x04
001C50 26E1           03701         ADDWF   FSR1L, F
001C52 50??           03702         MOVF    r0x06, W
001C54 26??           03703         ADDWF   r0x04, F
001C56 50??           03704         MOVF    r0x07, W
001C58 22??           03705         ADDWFC  r0x05, F
001C5A C??? F???      03706         MOVFF   r0x04, FSR0L
001C5E C??? F???      03707         MOVFF   r0x05, FSR0H
001C62 CFEE F000      03708         MOVFF   POSTINC0, r0x04
001C66 CFEE F000      03709         MOVFF   POSTINC0, r0x05
001C6A CFEF F000      03710         MOVFF   INDF0, r0x06
001C6E 50??           03711         MOVF    r0x06, W
001C70 6EE5           03712         MOVWF   POSTDEC1
001C72 50??           03713         MOVF    r0x05, W
001C74 6EE5           03714         MOVWF   POSTDEC1
001C76 50??           03715         MOVF    r0x04, W
001C78 6EE5           03716         MOVWF   POSTDEC1
001C7A EC?? F0??      03717         CALL    _lcdString
001C7E 0E03           03718         MOVLW   0x03
001C80 26E1           03719         ADDWF   FSR1L, F
                      03720 ;       .line   434; output.c   lcdCommand(0xC0);
001C82 0EC0           03721         MOVLW   0xc0
001C84 6EE5           03722         MOVWF   POSTDEC1
001C86 EC?? F0??      03723         CALL    _lcdCommand
001C8A 52E6           03724         MOVF    POSTINC1, F
                      03725 ;       .line   435; output.c   if(getSenha_i() == 0 ){
001C8C EC?? F0??      03726         CALL    _getSenha_i
001C90 6E??           03727         MOVWF   r0x04
001C92 CFF3 F000      03728         MOVFF   PRODL, r0x05
001C96 50??           03729         MOVF    r0x04, W
001C98 10??           03730         IORWF   r0x05, W
001C9A E1??           03731         BNZ     _00275_DS_
                      03732 ;       .line   436; output.c   lcdString("                "); 
001C9C 0E??           03733         MOVLW   UPPER(___str_5)
001C9E 6E??           03734         MOVWF   r0x06
001CA0 0E??           03735         MOVLW   HIGH(___str_5)
001CA2 6E??           03736         MOVWF   r0x05
001CA4 0E??           03737         MOVLW   LOW(___str_5)
001CA6 6E??           03738         MOVWF   r0x04
001CA8 50??           03739         MOVF    r0x06, W
001CAA 6EE5           03740         MOVWF   POSTDEC1
001CAC 50??           03741         MOVF    r0x05, W
001CAE 6EE5           03742         MOVWF   POSTDEC1
001CB0 50??           03743         MOVF    r0x04, W
001CB2 6EE5           03744         MOVWF   POSTDEC1
001CB4 EC?? F0??      03745         CALL    _lcdString
001CB8 0E03           03746         MOVLW   0x03
001CBA 26E1           03747         ADDWF   FSR1L, F
gpasm-1.5.0 #1285 (Sep 12 2016) build/default   7-4-2017  20:27:39          PAGE 73


LOC    OBJECT CODE    LINE  SOURCE TEXT
  VALUE

001CBC                03748 _00275_DS_:
                      03749 ;       .line   438; output.c   if(getSenha_i() == 1 ){
001CBC EC?? F0??      03750         CALL    _getSenha_i
001CC0 6E??           03751         MOVWF   r0x04
001CC2 CFF3 F000      03752         MOVFF   PRODL, r0x05
001CC6 50??           03753         MOVF    r0x04, W
001CC8 0A01           03754         XORLW   0x01
001CCA E1??           03755         BNZ     _00861_DS_
001CCC 50??           03756         MOVF    r0x05, W
001CCE E0??           03757         BZ      _00862_DS_
001CD0                03758 _00861_DS_:
001CD0 D???           03759         BRA     _00277_DS_
001CD2                03760 _00862_DS_:
                      03761 ;       .line   439; output.c   lcdString("*               "); 
001CD2 0E??           03762         MOVLW   UPPER(___str_6)
001CD4 6E??           03763         MOVWF   r0x06
001CD6 0E??           03764         MOVLW   HIGH(___str_6)
001CD8 6E??           03765         MOVWF   r0x05
001CDA 0E??           03766         MOVLW   LOW(___str_6)
001CDC 6E??           03767         MOVWF   r0x04
001CDE 50??           03768         MOVF    r0x06, W
001CE0 6EE5           03769         MOVWF   POSTDEC1
001CE2 50??           03770         MOVF    r0x05, W
001CE4 6EE5           03771         MOVWF   POSTDEC1
001CE6 50??           03772         MOVF    r0x04, W
001CE8 6EE5           03773         MOVWF   POSTDEC1
001CEA EC?? F0??      03774         CALL    _lcdString
001CEE 0E03           03775         MOVLW   0x03
001CF0 26E1           03776         ADDWF   FSR1L, F
001CF2                03777 _00277_DS_:
                      03778 ;       .line   441; output.c   if(getSenha_i() == 2 ){ //colocar o nome certo do contador de digitos
001CF2 EC?? F0??      03779         CALL    _getSenha_i
001CF6 6E??           03780         MOVWF   r0x04
001CF8 CFF3 F000      03781         MOVFF   PRODL, r0x05
001CFC 50??           03782         MOVF    r0x04, W
001CFE 0A02           03783         XORLW   0x02
001D00 E1??           03784         BNZ     _00863_DS_
001D02 50??           03785         MOVF    r0x05, W
001D04 E0??           03786         BZ      _00864_DS_
001D06                03787 _00863_DS_:
001D06 D???           03788         BRA     _00279_DS_
001D08                03789 _00864_DS_:
                      03790 ;       .line   442; output.c   lcdString("**              "); 
001D08 0E??           03791         MOVLW   UPPER(___str_7)
001D0A 6E??           03792         MOVWF   r0x06
001D0C 0E??           03793         MOVLW   HIGH(___str_7)
001D0E 6E??           03794         MOVWF   r0x05
001D10 0E??           03795         MOVLW   LOW(___str_7)
001D12 6E??           03796         MOVWF   r0x04
001D14 50??           03797         MOVF    r0x06, W
001D16 6EE5           03798         MOVWF   POSTDEC1
001D18 50??           03799         MOVF    r0x05, W
001D1A 6EE5           03800         MOVWF   POSTDEC1
gpasm-1.5.0 #1285 (Sep 12 2016) build/default   7-4-2017  20:27:39          PAGE 74


LOC    OBJECT CODE    LINE  SOURCE TEXT
  VALUE

001D1C 50??           03801         MOVF    r0x04, W
001D1E 6EE5           03802         MOVWF   POSTDEC1
001D20 EC?? F0??      03803         CALL    _lcdString
001D24 0E03           03804         MOVLW   0x03
001D26 26E1           03805         ADDWF   FSR1L, F
001D28                03806 _00279_DS_:
                      03807 ;       .line   444; output.c   if(getSenha_i() == 3 ){ //colocar o nome certo do contador de digitos
001D28 EC?? F0??      03808         CALL    _getSenha_i
001D2C 6E??           03809         MOVWF   r0x04
001D2E CFF3 F000      03810         MOVFF   PRODL, r0x05
001D32 50??           03811         MOVF    r0x04, W
001D34 0A03           03812         XORLW   0x03
001D36 E1??           03813         BNZ     _00865_DS_
001D38 50??           03814         MOVF    r0x05, W
001D3A E0??           03815         BZ      _00866_DS_
001D3C                03816 _00865_DS_:
001D3C D???           03817         BRA     _00281_DS_
001D3E                03818 _00866_DS_:
                      03819 ;       .line   445; output.c   lcdString("***            "); 
001D3E 0E??           03820         MOVLW   UPPER(___str_8)
001D40 6E??           03821         MOVWF   r0x06
001D42 0E??           03822         MOVLW   HIGH(___str_8)
001D44 6E??           03823         MOVWF   r0x05
001D46 0E??           03824         MOVLW   LOW(___str_8)
001D48 6E??           03825         MOVWF   r0x04
001D4A 50??           03826         MOVF    r0x06, W
001D4C 6EE5           03827         MOVWF   POSTDEC1
001D4E 50??           03828         MOVF    r0x05, W
001D50 6EE5           03829         MOVWF   POSTDEC1
001D52 50??           03830         MOVF    r0x04, W
001D54 6EE5           03831         MOVWF   POSTDEC1
001D56 EC?? F0??      03832         CALL    _lcdString
001D5A 0E03           03833         MOVLW   0x03
001D5C 26E1           03834         ADDWF   FSR1L, F
001D5E                03835 _00281_DS_:
                      03836 ;       .line   447; output.c   if(getSenha_i() == 4 ){ //colocar o nome certo do contador de digitos
001D5E EC?? F0??      03837         CALL    _getSenha_i
001D62 6E??           03838         MOVWF   r0x04
001D64 CFF3 F000      03839         MOVFF   PRODL, r0x05
001D68 50??           03840         MOVF    r0x04, W
001D6A 0A04           03841         XORLW   0x04
001D6C E1??           03842         BNZ     _00867_DS_
001D6E 50??           03843         MOVF    r0x05, W
001D70 E0??           03844         BZ      _00868_DS_
001D72                03845 _00867_DS_:
001D72 D???           03846         BRA     _00283_DS_
001D74                03847 _00868_DS_:
                      03848 ;       .line   448; output.c   lcdString("****           "); 
001D74 0E??           03849         MOVLW   UPPER(___str_9)
001D76 6E??           03850         MOVWF   r0x06
001D78 0E??           03851         MOVLW   HIGH(___str_9)
001D7A 6E??           03852         MOVWF   r0x05
001D7C 0E??           03853         MOVLW   LOW(___str_9)
gpasm-1.5.0 #1285 (Sep 12 2016) build/default   7-4-2017  20:27:39          PAGE 75


LOC    OBJECT CODE    LINE  SOURCE TEXT
  VALUE

001D7E 6E??           03854         MOVWF   r0x04
001D80 50??           03855         MOVF    r0x06, W
001D82 6EE5           03856         MOVWF   POSTDEC1
001D84 50??           03857         MOVF    r0x05, W
001D86 6EE5           03858         MOVWF   POSTDEC1
001D88 50??           03859         MOVF    r0x04, W
001D8A 6EE5           03860         MOVWF   POSTDEC1
001D8C EC?? F0??      03861         CALL    _lcdString
001D90 0E03           03862         MOVLW   0x03
001D92 26E1           03863         ADDWF   FSR1L, F
001D94                03864 _00283_DS_:
                      03865 ;       .line   450; output.c   if(getSenha_i() == 5 ){ //colocar o nome certo do contador de digitos
001D94 EC?? F0??      03866         CALL    _getSenha_i
001D98 6E??           03867         MOVWF   r0x04
001D9A CFF3 F000      03868         MOVFF   PRODL, r0x05
001D9E 50??           03869         MOVF    r0x04, W
001DA0 0A05           03870         XORLW   0x05
001DA2 E1??           03871         BNZ     _00869_DS_
001DA4 50??           03872         MOVF    r0x05, W
001DA6 E0??           03873         BZ      _00870_DS_
001DA8                03874 _00869_DS_:
001DA8 D???           03875         BRA     _00286_DS_
001DAA                03876 _00870_DS_:
                      03877 ;       .line   451; output.c   lcdString("*****          "); 
001DAA 0E??           03878         MOVLW   UPPER(___str_10)
001DAC 6E??           03879         MOVWF   r0x06
001DAE 0E??           03880         MOVLW   HIGH(___str_10)
001DB0 6E??           03881         MOVWF   r0x05
001DB2 0E??           03882         MOVLW   LOW(___str_10)
001DB4 6E??           03883         MOVWF   r0x04
001DB6 50??           03884         MOVF    r0x06, W
001DB8 6EE5           03885         MOVWF   POSTDEC1
001DBA 50??           03886         MOVF    r0x05, W
001DBC 6EE5           03887         MOVWF   POSTDEC1
001DBE 50??           03888         MOVF    r0x04, W
001DC0 6EE5           03889         MOVWF   POSTDEC1
001DC2 EC?? F0??      03890         CALL    _lcdString
001DC6 0E03           03891         MOVLW   0x03
001DC8 26E1           03892         ADDWF   FSR1L, F
001DCA 010?           03893         BANKSEL _i
                      03894 ;       .line   452; output.c   for (i = 0; i <= 1500; i++) { //delay para leitur da frase de 5s
001DCC 6B??           03895         CLRF    _i, B
001DCE 010?           03896         BANKSEL (_i + 1)
001DD0 6B??           03897         CLRF    (_i + 1), B
001DD2                03898 _00352_DS_:
                      03899 ;       .line   453; output.c   Delay2ms(); 
001DD2 EC?? F0??      03900         CALL    _Delay2ms
001DD6 010?           03901         BANKSEL _i
                      03902 ;       .line   452; output.c   for (i = 0; i <= 1500; i++) { //delay para leitur da frase de 5s
001DD8 3F??           03903         INCFSZ  _i, F, B
001DDA D???           03904         BRA     _80117_DS_
001DDC 010?           03905         BANKSEL (_i + 1)
001DDE 2B??           03906         INCF    (_i + 1), F, B
gpasm-1.5.0 #1285 (Sep 12 2016) build/default   7-4-2017  20:27:39          PAGE 76


LOC    OBJECT CODE    LINE  SOURCE TEXT
  VALUE

001DE0                03907 _80117_DS_:
001DE0 0E05           03908         MOVLW   0x05
001DE2 010?           03909         BANKSEL (_i + 1)
001DE4 5D??           03910         SUBWF   (_i + 1), W, B
001DE6 E1??           03911         BNZ     _00871_DS_
001DE8 0EDD           03912         MOVLW   0xdd
001DEA 010?           03913         BANKSEL _i
001DEC 5D??           03914         SUBWF   _i, W, B
001DEE                03915 _00871_DS_:
001DEE E3??           03916         BNC     _00352_DS_
001DF0                03917 _00286_DS_:
                      03918 ;       .line   456; output.c   if(getSenha_try() == 3){
001DF0 EC?? F0??      03919         CALL    _getSenha_try
001DF4 6E??           03920         MOVWF   r0x04
001DF6 CFF3 F000      03921         MOVFF   PRODL, r0x05
001DFA 50??           03922         MOVF    r0x04, W
001DFC 0A03           03923         XORLW   0x03
001DFE E1??           03924         BNZ     _00872_DS_
001E00 50??           03925         MOVF    r0x05, W
001E02 E0??           03926         BZ      _00873_DS_
001E04                03927 _00872_DS_:
001E04 D???           03928         BRA     _00295_DS_
001E06                03929 _00873_DS_:
                      03930 ;       .line   457; output.c   lcdCommand(0xC0);
001E06 0EC0           03931         MOVLW   0xc0
001E08 6EE5           03932         MOVWF   POSTDEC1
001E0A EC?? F0??      03933         CALL    _lcdCommand
001E0E 52E6           03934         MOVF    POSTINC1, F
                      03935 ;       .line   458; output.c   if (getLanguage() == 0) {
001E10 EC?? F0??      03936         CALL    _getLanguage
001E14 6E??           03937         MOVWF   r0x04
001E16 50??           03938         MOVF    r0x04, W
001E18 E1??           03939         BNZ     _00288_DS_
                      03940 ;       .line   459; output.c   lcdString("Senha incorreta!");
001E1A 0E??           03941         MOVLW   UPPER(___str_11)
001E1C 6E??           03942         MOVWF   r0x06
001E1E 0E??           03943         MOVLW   HIGH(___str_11)
001E20 6E??           03944         MOVWF   r0x05
001E22 0E??           03945         MOVLW   LOW(___str_11)
001E24 6E??           03946         MOVWF   r0x04
001E26 50??           03947         MOVF    r0x06, W
001E28 6EE5           03948         MOVWF   POSTDEC1
001E2A 50??           03949         MOVF    r0x05, W
001E2C 6EE5           03950         MOVWF   POSTDEC1
001E2E 50??           03951         MOVF    r0x04, W
001E30 6EE5           03952         MOVWF   POSTDEC1
001E32 EC?? F0??      03953         CALL    _lcdString
001E36 0E03           03954         MOVLW   0x03
001E38 26E1           03955         ADDWF   FSR1L, F
001E3A                03956 _00288_DS_:
                      03957 ;       .line   461; output.c   if (getLanguage() == 1) {
001E3A EC?? F0??      03958         CALL    _getLanguage
001E3E 6E??           03959         MOVWF   r0x04
gpasm-1.5.0 #1285 (Sep 12 2016) build/default   7-4-2017  20:27:39          PAGE 77


LOC    OBJECT CODE    LINE  SOURCE TEXT
  VALUE

001E40 50??           03960         MOVF    r0x04, W
001E42 0A01           03961         XORLW   0x01
001E44 E1??           03962         BNZ     _00290_DS_
                      03963 ;       .line   462; output.c   lcdString("Wrong password! ");
001E46 0E??           03964         MOVLW   UPPER(___str_12)
001E48 6E??           03965         MOVWF   r0x06
001E4A 0E??           03966         MOVLW   HIGH(___str_12)
001E4C 6E??           03967         MOVWF   r0x05
001E4E 0E??           03968         MOVLW   LOW(___str_12)
001E50 6E??           03969         MOVWF   r0x04
001E52 50??           03970         MOVF    r0x06, W
001E54 6EE5           03971         MOVWF   POSTDEC1
001E56 50??           03972         MOVF    r0x05, W
001E58 6EE5           03973         MOVWF   POSTDEC1
001E5A 50??           03974         MOVF    r0x04, W
001E5C 6EE5           03975         MOVWF   POSTDEC1
001E5E EC?? F0??      03976         CALL    _lcdString
001E62 0E03           03977         MOVLW   0x03
001E64 26E1           03978         ADDWF   FSR1L, F
001E66                03979 _00290_DS_:
001E66 010?           03980         BANKSEL _i
                      03981 ;       .line   464; output.c   for (i = 0; i <= 1500; i++) { //delay para leitur da frase de 5s
001E68 6B??           03982         CLRF    _i, B
001E6A 010?           03983         BANKSEL (_i + 1)
001E6C 6B??           03984         CLRF    (_i + 1), B
001E6E                03985 _00354_DS_:
                      03986 ;       .line   465; output.c   Delay2ms(); 
001E6E EC?? F0??      03987         CALL    _Delay2ms
001E72 010?           03988         BANKSEL _i
                      03989 ;       .line   464; output.c   for (i = 0; i <= 1500; i++) { //delay para leitur da frase de 5s
001E74 3F??           03990         INCFSZ  _i, F, B
001E76 D???           03991         BRA     _90118_DS_
001E78 010?           03992         BANKSEL (_i + 1)
001E7A 2B??           03993         INCF    (_i + 1), F, B
001E7C                03994 _90118_DS_:
001E7C 0E05           03995         MOVLW   0x05
001E7E 010?           03996         BANKSEL (_i + 1)
001E80 5D??           03997         SUBWF   (_i + 1), W, B
001E82 E1??           03998         BNZ     _00876_DS_
001E84 0EDD           03999         MOVLW   0xdd
001E86 010?           04000         BANKSEL _i
001E88 5D??           04001         SUBWF   _i, W, B
001E8A                04002 _00876_DS_:
001E8A E3??           04003         BNC     _00354_DS_
001E8C                04004 _00295_DS_:
                      04005 ;       .line   470; output.c   if(numTela == HABILITA_SENHA){   
001E8C 50??           04006         MOVF    r0x00, W
001E8E 0A1D           04007         XORLW   0x1d
001E90 E1??           04008         BNZ     _00877_DS_
001E92 50??           04009         MOVF    r0x01, W
001E94 E0??           04010         BZ      _00878_DS_
001E96                04011 _00877_DS_:
001E96 D???           04012         BRA     _00301_DS_
gpasm-1.5.0 #1285 (Sep 12 2016) build/default   7-4-2017  20:27:39          PAGE 78


LOC    OBJECT CODE    LINE  SOURCE TEXT
  VALUE

001E98                04013 _00878_DS_:
                      04014 ;       .line   471; output.c   lcdCommand(0x80);
001E98 0E80           04015         MOVLW   0x80
001E9A 6EE5           04016         MOVWF   POSTDEC1
001E9C EC?? F0??      04017         CALL    _lcdCommand
001EA0 52E6           04018         MOVF    POSTINC1, F
                      04019 ;       .line   472; output.c   lcdString(msgs[numTela][idioma]);
001EA2 50??           04020         MOVF    r0x01, W
001EA4 6EE5           04021         MOVWF   POSTDEC1
001EA6 50??           04022         MOVF    r0x00, W
001EA8 6EE5           04023         MOVWF   POSTDEC1
001EAA 0E00           04024         MOVLW   0x00
001EAC 6EE5           04025         MOVWF   POSTDEC1
001EAE 0E06           04026         MOVLW   0x06
001EB0 6EE5           04027         MOVWF   POSTDEC1
001EB2 EC?? F0??      04028         CALL    __mulint
001EB6 6E??           04029         MOVWF   r0x04
001EB8 CFF3 F000      04030         MOVFF   PRODL, r0x05
001EBC 0E04           04031         MOVLW   0x04
001EBE 26E1           04032         ADDWF   FSR1L, F
001EC0 0E??           04033         MOVLW   LOW(_msgs)
001EC2 26??           04034         ADDWF   r0x04, F
001EC4 0E??           04035         MOVLW   HIGH(_msgs)
001EC6 22??           04036         ADDWFC  r0x05, F
001EC8 50??           04037         MOVF    r0x03, W
001ECA 6EE5           04038         MOVWF   POSTDEC1
001ECC 50??           04039         MOVF    r0x02, W
001ECE 6EE5           04040         MOVWF   POSTDEC1
001ED0 0E00           04041         MOVLW   0x00
001ED2 6EE5           04042         MOVWF   POSTDEC1
001ED4 0E03           04043         MOVLW   0x03
001ED6 6EE5           04044         MOVWF   POSTDEC1
001ED8 EC?? F0??      04045         CALL    __mulint
001EDC 6E??           04046         MOVWF   r0x06
001EDE CFF3 F000      04047         MOVFF   PRODL, r0x07
001EE2 0E04           04048         MOVLW   0x04
001EE4 26E1           04049         ADDWF   FSR1L, F
001EE6 50??           04050         MOVF    r0x06, W
001EE8 26??           04051         ADDWF   r0x04, F
001EEA 50??           04052         MOVF    r0x07, W
001EEC 22??           04053         ADDWFC  r0x05, F
001EEE C??? F???      04054         MOVFF   r0x04, FSR0L
001EF2 C??? F???      04055         MOVFF   r0x05, FSR0H
001EF6 CFEE F000      04056         MOVFF   POSTINC0, r0x04
001EFA CFEE F000      04057         MOVFF   POSTINC0, r0x05
001EFE CFEF F000      04058         MOVFF   INDF0, r0x06
001F02 50??           04059         MOVF    r0x06, W
001F04 6EE5           04060         MOVWF   POSTDEC1
001F06 50??           04061         MOVF    r0x05, W
001F08 6EE5           04062         MOVWF   POSTDEC1
001F0A 50??           04063         MOVF    r0x04, W
001F0C 6EE5           04064         MOVWF   POSTDEC1
001F0E EC?? F0??      04065         CALL    _lcdString
gpasm-1.5.0 #1285 (Sep 12 2016) build/default   7-4-2017  20:27:39          PAGE 79


LOC    OBJECT CODE    LINE  SOURCE TEXT
  VALUE

001F12 0E03           04066         MOVLW   0x03
001F14 26E1           04067         ADDWF   FSR1L, F
                      04068 ;       .line   473; output.c   lcdCommand(0xC0);
001F16 0EC0           04069         MOVLW   0xc0
001F18 6EE5           04070         MOVWF   POSTDEC1
001F1A EC?? F0??      04071         CALL    _lcdCommand
001F1E 52E6           04072         MOVF    POSTINC1, F
                      04073 ;       .line   474; output.c   if (getLanguage() == 0) {
001F20 EC?? F0??      04074         CALL    _getLanguage
001F24 6E??           04075         MOVWF   r0x04
001F26 50??           04076         MOVF    r0x04, W
001F28 E1??           04077         BNZ     _00297_DS_
                      04078 ;       .line   475; output.c   lcdString(" Desabilitar    ");
001F2A 0E??           04079         MOVLW   UPPER(___str_44)
001F2C 6E??           04080         MOVWF   r0x06
001F2E 0E??           04081         MOVLW   HIGH(___str_44)
001F30 6E??           04082         MOVWF   r0x05
001F32 0E??           04083         MOVLW   LOW(___str_44)
001F34 6E??           04084         MOVWF   r0x04
001F36 50??           04085         MOVF    r0x06, W
001F38 6EE5           04086         MOVWF   POSTDEC1
001F3A 50??           04087         MOVF    r0x05, W
001F3C 6EE5           04088         MOVWF   POSTDEC1
001F3E 50??           04089         MOVF    r0x04, W
001F40 6EE5           04090         MOVWF   POSTDEC1
001F42 EC?? F0??      04091         CALL    _lcdString
001F46 0E03           04092         MOVLW   0x03
001F48 26E1           04093         ADDWF   FSR1L, F
001F4A                04094 _00297_DS_:
                      04095 ;       .line   477; output.c   if (getLanguage() == 1) {
001F4A EC?? F0??      04096         CALL    _getLanguage
001F4E 6E??           04097         MOVWF   r0x04
001F50 50??           04098         MOVF    r0x04, W
001F52 0A01           04099         XORLW   0x01
001F54 E1??           04100         BNZ     _00301_DS_
                      04101 ;       .line   478; output.c   lcdString(" Disable        "); 
001F56 0E??           04102         MOVLW   UPPER(___str_45)
001F58 6E??           04103         MOVWF   r0x06
001F5A 0E??           04104         MOVLW   HIGH(___str_45)
001F5C 6E??           04105         MOVWF   r0x05
001F5E 0E??           04106         MOVLW   LOW(___str_45)
001F60 6E??           04107         MOVWF   r0x04
001F62 50??           04108         MOVF    r0x06, W
001F64 6EE5           04109         MOVWF   POSTDEC1
001F66 50??           04110         MOVF    r0x05, W
001F68 6EE5           04111         MOVWF   POSTDEC1
001F6A 50??           04112         MOVF    r0x04, W
001F6C 6EE5           04113         MOVWF   POSTDEC1
001F6E EC?? F0??      04114         CALL    _lcdString
001F72 0E03           04115         MOVLW   0x03
001F74 26E1           04116         ADDWF   FSR1L, F
001F76                04117 _00301_DS_:
                      04118 ;       .line   482; output.c   if(numTela == DESABILITA_SENHA){   
gpasm-1.5.0 #1285 (Sep 12 2016) build/default   7-4-2017  20:27:39          PAGE 80


LOC    OBJECT CODE    LINE  SOURCE TEXT
  VALUE

001F76 50??           04119         MOVF    r0x00, W
001F78 0A1E           04120         XORLW   0x1e
001F7A E1??           04121         BNZ     _00881_DS_
001F7C 50??           04122         MOVF    r0x01, W
001F7E E0??           04123         BZ      _00882_DS_
001F80                04124 _00881_DS_:
001F80 D???           04125         BRA     _00307_DS_
001F82                04126 _00882_DS_:
                      04127 ;       .line   483; output.c   lcdCommand(0x80);
001F82 0E80           04128         MOVLW   0x80
001F84 6EE5           04129         MOVWF   POSTDEC1
001F86 EC?? F0??      04130         CALL    _lcdCommand
001F8A 52E6           04131         MOVF    POSTINC1, F
                      04132 ;       .line   484; output.c   lcdString(msgs[numTela][idioma]);
001F8C 50??           04133         MOVF    r0x01, W
001F8E 6EE5           04134         MOVWF   POSTDEC1
001F90 50??           04135         MOVF    r0x00, W
001F92 6EE5           04136         MOVWF   POSTDEC1
001F94 0E00           04137         MOVLW   0x00
001F96 6EE5           04138         MOVWF   POSTDEC1
001F98 0E06           04139         MOVLW   0x06
001F9A 6EE5           04140         MOVWF   POSTDEC1
001F9C EC?? F0??      04141         CALL    __mulint
001FA0 6E??           04142         MOVWF   r0x04
001FA2 CFF3 F000      04143         MOVFF   PRODL, r0x05
001FA6 0E04           04144         MOVLW   0x04
001FA8 26E1           04145         ADDWF   FSR1L, F
001FAA 0E??           04146         MOVLW   LOW(_msgs)
001FAC 26??           04147         ADDWF   r0x04, F
001FAE 0E??           04148         MOVLW   HIGH(_msgs)
001FB0 22??           04149         ADDWFC  r0x05, F
001FB2 50??           04150         MOVF    r0x03, W
001FB4 6EE5           04151         MOVWF   POSTDEC1
001FB6 50??           04152         MOVF    r0x02, W
001FB8 6EE5           04153         MOVWF   POSTDEC1
001FBA 0E00           04154         MOVLW   0x00
001FBC 6EE5           04155         MOVWF   POSTDEC1
001FBE 0E03           04156         MOVLW   0x03
001FC0 6EE5           04157         MOVWF   POSTDEC1
001FC2 EC?? F0??      04158         CALL    __mulint
001FC6 6E??           04159         MOVWF   r0x06
001FC8 CFF3 F000      04160         MOVFF   PRODL, r0x07
001FCC 0E04           04161         MOVLW   0x04
001FCE 26E1           04162         ADDWF   FSR1L, F
001FD0 50??           04163         MOVF    r0x06, W
001FD2 26??           04164         ADDWF   r0x04, F
001FD4 50??           04165         MOVF    r0x07, W
001FD6 22??           04166         ADDWFC  r0x05, F
001FD8 C??? F???      04167         MOVFF   r0x04, FSR0L
001FDC C??? F???      04168         MOVFF   r0x05, FSR0H
001FE0 CFEE F000      04169         MOVFF   POSTINC0, r0x04
001FE4 CFEE F000      04170         MOVFF   POSTINC0, r0x05
001FE8 CFEF F000      04171         MOVFF   INDF0, r0x06
gpasm-1.5.0 #1285 (Sep 12 2016) build/default   7-4-2017  20:27:39          PAGE 81


LOC    OBJECT CODE    LINE  SOURCE TEXT
  VALUE

001FEC 50??           04172         MOVF    r0x06, W
001FEE 6EE5           04173         MOVWF   POSTDEC1
001FF0 50??           04174         MOVF    r0x05, W
001FF2 6EE5           04175         MOVWF   POSTDEC1
001FF4 50??           04176         MOVF    r0x04, W
001FF6 6EE5           04177         MOVWF   POSTDEC1
001FF8 EC?? F0??      04178         CALL    _lcdString
001FFC 0E03           04179         MOVLW   0x03
001FFE 26E1           04180         ADDWF   FSR1L, F
                      04181 ;       .line   485; output.c   lcdCommand(0xC0);
002000 0EC0           04182         MOVLW   0xc0
002002 6EE5           04183         MOVWF   POSTDEC1
002004 EC?? F0??      04184         CALL    _lcdCommand
002008 52E6           04185         MOVF    POSTINC1, F
                      04186 ;       .line   486; output.c   if (getLanguage() == 0) {
00200A EC?? F0??      04187         CALL    _getLanguage
00200E 6E??           04188         MOVWF   r0x04
002010 50??           04189         MOVF    r0x04, W
002012 E1??           04190         BNZ     _00303_DS_
                      04191 ;       .line   487; output.c   lcdString("*Desabilitar    ");
002014 0E??           04192         MOVLW   UPPER(___str_46)
002016 6E??           04193         MOVWF   r0x06
002018 0E??           04194         MOVLW   HIGH(___str_46)
00201A 6E??           04195         MOVWF   r0x05
00201C 0E??           04196         MOVLW   LOW(___str_46)
00201E 6E??           04197         MOVWF   r0x04
002020 50??           04198         MOVF    r0x06, W
002022 6EE5           04199         MOVWF   POSTDEC1
002024 50??           04200         MOVF    r0x05, W
002026 6EE5           04201         MOVWF   POSTDEC1
002028 50??           04202         MOVF    r0x04, W
00202A 6EE5           04203         MOVWF   POSTDEC1
00202C EC?? F0??      04204         CALL    _lcdString
002030 0E03           04205         MOVLW   0x03
002032 26E1           04206         ADDWF   FSR1L, F
002034                04207 _00303_DS_:
                      04208 ;       .line   489; output.c   if (getLanguage() == 1) {
002034 EC?? F0??      04209         CALL    _getLanguage
002038 6E??           04210         MOVWF   r0x04
00203A 50??           04211         MOVF    r0x04, W
00203C 0A01           04212         XORLW   0x01
00203E E1??           04213         BNZ     _00307_DS_
                      04214 ;       .line   490; output.c   lcdString("*Disable        "); 
002040 0E??           04215         MOVLW   UPPER(___str_47)
002042 6E??           04216         MOVWF   r0x06
002044 0E??           04217         MOVLW   HIGH(___str_47)
002046 6E??           04218         MOVWF   r0x05
002048 0E??           04219         MOVLW   LOW(___str_47)
00204A 6E??           04220         MOVWF   r0x04
00204C 50??           04221         MOVF    r0x06, W
00204E 6EE5           04222         MOVWF   POSTDEC1
002050 50??           04223         MOVF    r0x05, W
002052 6EE5           04224         MOVWF   POSTDEC1
gpasm-1.5.0 #1285 (Sep 12 2016) build/default   7-4-2017  20:27:39          PAGE 82


LOC    OBJECT CODE    LINE  SOURCE TEXT
  VALUE

002054 50??           04225         MOVF    r0x04, W
002056 6EE5           04226         MOVWF   POSTDEC1
002058 EC?? F0??      04227         CALL    _lcdString
00205C 0E03           04228         MOVLW   0x03
00205E 26E1           04229         ADDWF   FSR1L, F
002060                04230 _00307_DS_:
                      04231 ;       .line   494; output.c   if (numTela == STATE_RESET) {
002060 50??           04232         MOVF    r0x00, W
002062 0A1F           04233         XORLW   0x1f
002064 E1??           04234         BNZ     _00885_DS_
002066 50??           04235         MOVF    r0x01, W
002068 E0??           04236         BZ      _00886_DS_
00206A                04237 _00885_DS_:
00206A D???           04238         BRA     _00309_DS_
00206C                04239 _00886_DS_:
                      04240 ;       .line   495; output.c   lcdCommand(0x80);
00206C 0E80           04241         MOVLW   0x80
00206E 6EE5           04242         MOVWF   POSTDEC1
002070 EC?? F0??      04243         CALL    _lcdCommand
002074 52E6           04244         MOVF    POSTINC1, F
                      04245 ;       .line   496; output.c   lcdString(msgs[numTela][idioma]);
002076 50??           04246         MOVF    r0x01, W
002078 6EE5           04247         MOVWF   POSTDEC1
00207A 50??           04248         MOVF    r0x00, W
00207C 6EE5           04249         MOVWF   POSTDEC1
00207E 0E00           04250         MOVLW   0x00
002080 6EE5           04251         MOVWF   POSTDEC1
002082 0E06           04252         MOVLW   0x06
002084 6EE5           04253         MOVWF   POSTDEC1
002086 EC?? F0??      04254         CALL    __mulint
00208A 6E??           04255         MOVWF   r0x04
00208C CFF3 F000      04256         MOVFF   PRODL, r0x05
002090 0E04           04257         MOVLW   0x04
002092 26E1           04258         ADDWF   FSR1L, F
002094 0E??           04259         MOVLW   LOW(_msgs)
002096 26??           04260         ADDWF   r0x04, F
002098 0E??           04261         MOVLW   HIGH(_msgs)
00209A 22??           04262         ADDWFC  r0x05, F
00209C 50??           04263         MOVF    r0x03, W
00209E 6EE5           04264         MOVWF   POSTDEC1
0020A0 50??           04265         MOVF    r0x02, W
0020A2 6EE5           04266         MOVWF   POSTDEC1
0020A4 0E00           04267         MOVLW   0x00
0020A6 6EE5           04268         MOVWF   POSTDEC1
0020A8 0E03           04269         MOVLW   0x03
0020AA 6EE5           04270         MOVWF   POSTDEC1
0020AC EC?? F0??      04271         CALL    __mulint
0020B0 6E??           04272         MOVWF   r0x06
0020B2 CFF3 F000      04273         MOVFF   PRODL, r0x07
0020B6 0E04           04274         MOVLW   0x04
0020B8 26E1           04275         ADDWF   FSR1L, F
0020BA 50??           04276         MOVF    r0x06, W
0020BC 26??           04277         ADDWF   r0x04, F
gpasm-1.5.0 #1285 (Sep 12 2016) build/default   7-4-2017  20:27:39          PAGE 83


LOC    OBJECT CODE    LINE  SOURCE TEXT
  VALUE

0020BE 50??           04278         MOVF    r0x07, W
0020C0 22??           04279         ADDWFC  r0x05, F
0020C2 C??? F???      04280         MOVFF   r0x04, FSR0L
0020C6 C??? F???      04281         MOVFF   r0x05, FSR0H
0020CA CFEE F000      04282         MOVFF   POSTINC0, r0x04
0020CE CFEE F000      04283         MOVFF   POSTINC0, r0x05
0020D2 CFEF F000      04284         MOVFF   INDF0, r0x06
0020D6 50??           04285         MOVF    r0x06, W
0020D8 6EE5           04286         MOVWF   POSTDEC1
0020DA 50??           04287         MOVF    r0x05, W
0020DC 6EE5           04288         MOVWF   POSTDEC1
0020DE 50??           04289         MOVF    r0x04, W
0020E0 6EE5           04290         MOVWF   POSTDEC1
0020E2 EC?? F0??      04291         CALL    _lcdString
0020E6 0E03           04292         MOVLW   0x03
0020E8 26E1           04293         ADDWF   FSR1L, F
                      04294 ;       .line   497; output.c   lcdCommand(0xC0);
0020EA 0EC0           04295         MOVLW   0xc0
0020EC 6EE5           04296         MOVWF   POSTDEC1
0020EE EC?? F0??      04297         CALL    _lcdCommand
0020F2 52E6           04298         MOVF    POSTINC1, F
                      04299 ;       .line   498; output.c   lcdString("                ");
0020F4 0E??           04300         MOVLW   UPPER(___str_5)
0020F6 6E??           04301         MOVWF   r0x06
0020F8 0E??           04302         MOVLW   HIGH(___str_5)
0020FA 6E??           04303         MOVWF   r0x05
0020FC 0E??           04304         MOVLW   LOW(___str_5)
0020FE 6E??           04305         MOVWF   r0x04
002100 50??           04306         MOVF    r0x06, W
002102 6EE5           04307         MOVWF   POSTDEC1
002104 50??           04308         MOVF    r0x05, W
002106 6EE5           04309         MOVWF   POSTDEC1
002108 50??           04310         MOVF    r0x04, W
00210A 6EE5           04311         MOVWF   POSTDEC1
00210C EC?? F0??      04312         CALL    _lcdString
002110 0E03           04313         MOVLW   0x03
002112 26E1           04314         ADDWF   FSR1L, F
002114                04315 _00309_DS_:
                      04316 ;       .line   501; output.c   if (numTela == SECURITY_RESET) {
002114 50??           04317         MOVF    r0x00, W
002116 0A20           04318         XORLW   0x20
002118 E1??           04319         BNZ     _00887_DS_
00211A 50??           04320         MOVF    r0x01, W
00211C E0??           04321         BZ      _00888_DS_
00211E                04322 _00887_DS_:
00211E D???           04323         BRA     _00360_DS_
002120                04324 _00888_DS_:
                      04325 ;       .line   502; output.c   lcdCommand(0x80);
002120 0E80           04326         MOVLW   0x80
002122 6EE5           04327         MOVWF   POSTDEC1
002124 EC?? F0??      04328         CALL    _lcdCommand
002128 52E6           04329         MOVF    POSTINC1, F
                      04330 ;       .line   503; output.c   lcdString(msgs[numTela][idioma]);
gpasm-1.5.0 #1285 (Sep 12 2016) build/default   7-4-2017  20:27:39          PAGE 84


LOC    OBJECT CODE    LINE  SOURCE TEXT
  VALUE

00212A 50??           04331         MOVF    r0x01, W
00212C 6EE5           04332         MOVWF   POSTDEC1
00212E 50??           04333         MOVF    r0x00, W
002130 6EE5           04334         MOVWF   POSTDEC1
002132 0E00           04335         MOVLW   0x00
002134 6EE5           04336         MOVWF   POSTDEC1
002136 0E06           04337         MOVLW   0x06
002138 6EE5           04338         MOVWF   POSTDEC1
00213A EC?? F0??      04339         CALL    __mulint
00213E 6E??           04340         MOVWF   r0x00
002140 CFF3 F000      04341         MOVFF   PRODL, r0x01
002144 0E04           04342         MOVLW   0x04
002146 26E1           04343         ADDWF   FSR1L, F
002148 0E??           04344         MOVLW   LOW(_msgs)
00214A 26??           04345         ADDWF   r0x00, F
00214C 0E??           04346         MOVLW   HIGH(_msgs)
00214E 22??           04347         ADDWFC  r0x01, F
002150 50??           04348         MOVF    r0x03, W
002152 6EE5           04349         MOVWF   POSTDEC1
002154 50??           04350         MOVF    r0x02, W
002156 6EE5           04351         MOVWF   POSTDEC1
002158 0E00           04352         MOVLW   0x00
00215A 6EE5           04353         MOVWF   POSTDEC1
00215C 0E03           04354         MOVLW   0x03
00215E 6EE5           04355         MOVWF   POSTDEC1
002160 EC?? F0??      04356         CALL    __mulint
002164 6E??           04357         MOVWF   r0x02
002166 CFF3 F000      04358         MOVFF   PRODL, r0x03
00216A 0E04           04359         MOVLW   0x04
00216C 26E1           04360         ADDWF   FSR1L, F
00216E 50??           04361         MOVF    r0x02, W
002170 26??           04362         ADDWF   r0x00, F
002172 50??           04363         MOVF    r0x03, W
002174 22??           04364         ADDWFC  r0x01, F
002176 C??? F???      04365         MOVFF   r0x00, FSR0L
00217A C??? F???      04366         MOVFF   r0x01, FSR0H
00217E CFEE F000      04367         MOVFF   POSTINC0, r0x00
002182 CFEE F000      04368         MOVFF   POSTINC0, r0x01
002186 CFEF F000      04369         MOVFF   INDF0, r0x02
00218A 50??           04370         MOVF    r0x02, W
00218C 6EE5           04371         MOVWF   POSTDEC1
00218E 50??           04372         MOVF    r0x01, W
002190 6EE5           04373         MOVWF   POSTDEC1
002192 50??           04374         MOVF    r0x00, W
002194 6EE5           04375         MOVWF   POSTDEC1
002196 EC?? F0??      04376         CALL    _lcdString
00219A 0E03           04377         MOVLW   0x03
00219C 26E1           04378         ADDWF   FSR1L, F
                      04379 ;       .line   504; output.c   lcdCommand(0xC0);
00219E 0EC0           04380         MOVLW   0xc0
0021A0 6EE5           04381         MOVWF   POSTDEC1
0021A2 EC?? F0??      04382         CALL    _lcdCommand
0021A6 52E6           04383         MOVF    POSTINC1, F
gpasm-1.5.0 #1285 (Sep 12 2016) build/default   7-4-2017  20:27:39          PAGE 85


LOC    OBJECT CODE    LINE  SOURCE TEXT
  VALUE

                      04384 ;       .line   505; output.c   if(getSenha_i() == 0 ){
0021A8 EC?? F0??      04385         CALL    _getSenha_i
0021AC 6E??           04386         MOVWF   r0x00
0021AE CFF3 F000      04387         MOVFF   PRODL, r0x01
0021B2 50??           04388         MOVF    r0x00, W
0021B4 10??           04389         IORWF   r0x01, W
0021B6 E1??           04390         BNZ     _00311_DS_
                      04391 ;       .line   506; output.c   lcdString("                "); 
0021B8 0E??           04392         MOVLW   UPPER(___str_5)
0021BA 6E??           04393         MOVWF   r0x02
0021BC 0E??           04394         MOVLW   HIGH(___str_5)
0021BE 6E??           04395         MOVWF   r0x01
0021C0 0E??           04396         MOVLW   LOW(___str_5)
0021C2 6E??           04397         MOVWF   r0x00
0021C4 50??           04398         MOVF    r0x02, W
0021C6 6EE5           04399         MOVWF   POSTDEC1
0021C8 50??           04400         MOVF    r0x01, W
0021CA 6EE5           04401         MOVWF   POSTDEC1
0021CC 50??           04402         MOVF    r0x00, W
0021CE 6EE5           04403         MOVWF   POSTDEC1
0021D0 EC?? F0??      04404         CALL    _lcdString
0021D4 0E03           04405         MOVLW   0x03
0021D6 26E1           04406         ADDWF   FSR1L, F
0021D8                04407 _00311_DS_:
                      04408 ;       .line   508; output.c   if(getSenha_i() == 1 ){
0021D8 EC?? F0??      04409         CALL    _getSenha_i
0021DC 6E??           04410         MOVWF   r0x00
0021DE CFF3 F000      04411         MOVFF   PRODL, r0x01
0021E2 50??           04412         MOVF    r0x00, W
0021E4 0A01           04413         XORLW   0x01
0021E6 E1??           04414         BNZ     _00889_DS_
0021E8 50??           04415         MOVF    r0x01, W
0021EA E0??           04416         BZ      _00890_DS_
0021EC                04417 _00889_DS_:
0021EC D???           04418         BRA     _00313_DS_
0021EE                04419 _00890_DS_:
                      04420 ;       .line   509; output.c   lcdString("*               "); 
0021EE 0E??           04421         MOVLW   UPPER(___str_6)
0021F0 6E??           04422         MOVWF   r0x02
0021F2 0E??           04423         MOVLW   HIGH(___str_6)
0021F4 6E??           04424         MOVWF   r0x01
0021F6 0E??           04425         MOVLW   LOW(___str_6)
0021F8 6E??           04426         MOVWF   r0x00
0021FA 50??           04427         MOVF    r0x02, W
0021FC 6EE5           04428         MOVWF   POSTDEC1
0021FE 50??           04429         MOVF    r0x01, W
002200 6EE5           04430         MOVWF   POSTDEC1
002202 50??           04431         MOVF    r0x00, W
002204 6EE5           04432         MOVWF   POSTDEC1
002206 EC?? F0??      04433         CALL    _lcdString
00220A 0E03           04434         MOVLW   0x03
00220C 26E1           04435         ADDWF   FSR1L, F
00220E                04436 _00313_DS_:
gpasm-1.5.0 #1285 (Sep 12 2016) build/default   7-4-2017  20:27:39          PAGE 86


LOC    OBJECT CODE    LINE  SOURCE TEXT
  VALUE

                      04437 ;       .line   511; output.c   if(getSenha_i() == 2 ){ //colocar o nome certo do contador de digitos
00220E EC?? F0??      04438         CALL    _getSenha_i
002212 6E??           04439         MOVWF   r0x00
002214 CFF3 F000      04440         MOVFF   PRODL, r0x01
002218 50??           04441         MOVF    r0x00, W
00221A 0A02           04442         XORLW   0x02
00221C E1??           04443         BNZ     _00891_DS_
00221E 50??           04444         MOVF    r0x01, W
002220 E0??           04445         BZ      _00892_DS_
002222                04446 _00891_DS_:
002222 D???           04447         BRA     _00315_DS_
002224                04448 _00892_DS_:
                      04449 ;       .line   512; output.c   lcdString("**              "); 
002224 0E??           04450         MOVLW   UPPER(___str_7)
002226 6E??           04451         MOVWF   r0x02
002228 0E??           04452         MOVLW   HIGH(___str_7)
00222A 6E??           04453         MOVWF   r0x01
00222C 0E??           04454         MOVLW   LOW(___str_7)
00222E 6E??           04455         MOVWF   r0x00
002230 50??           04456         MOVF    r0x02, W
002232 6EE5           04457         MOVWF   POSTDEC1
002234 50??           04458         MOVF    r0x01, W
002236 6EE5           04459         MOVWF   POSTDEC1
002238 50??           04460         MOVF    r0x00, W
00223A 6EE5           04461         MOVWF   POSTDEC1
00223C EC?? F0??      04462         CALL    _lcdString
002240 0E03           04463         MOVLW   0x03
002242 26E1           04464         ADDWF   FSR1L, F
002244                04465 _00315_DS_:
                      04466 ;       .line   514; output.c   if(getSenha_i() == 3 ){ //colocar o nome certo do contador de digitos
002244 EC?? F0??      04467         CALL    _getSenha_i
002248 6E??           04468         MOVWF   r0x00
00224A CFF3 F000      04469         MOVFF   PRODL, r0x01
00224E 50??           04470         MOVF    r0x00, W
002250 0A03           04471         XORLW   0x03
002252 E1??           04472         BNZ     _00893_DS_
002254 50??           04473         MOVF    r0x01, W
002256 E0??           04474         BZ      _00894_DS_
002258                04475 _00893_DS_:
002258 D???           04476         BRA     _00317_DS_
00225A                04477 _00894_DS_:
                      04478 ;       .line   515; output.c   lcdString("***            "); 
00225A 0E??           04479         MOVLW   UPPER(___str_8)
00225C 6E??           04480         MOVWF   r0x02
00225E 0E??           04481         MOVLW   HIGH(___str_8)
002260 6E??           04482         MOVWF   r0x01
002262 0E??           04483         MOVLW   LOW(___str_8)
002264 6E??           04484         MOVWF   r0x00
002266 50??           04485         MOVF    r0x02, W
002268 6EE5           04486         MOVWF   POSTDEC1
00226A 50??           04487         MOVF    r0x01, W
00226C 6EE5           04488         MOVWF   POSTDEC1
00226E 50??           04489         MOVF    r0x00, W
gpasm-1.5.0 #1285 (Sep 12 2016) build/default   7-4-2017  20:27:39          PAGE 87


LOC    OBJECT CODE    LINE  SOURCE TEXT
  VALUE

002270 6EE5           04490         MOVWF   POSTDEC1
002272 EC?? F0??      04491         CALL    _lcdString
002276 0E03           04492         MOVLW   0x03
002278 26E1           04493         ADDWF   FSR1L, F
00227A                04494 _00317_DS_:
                      04495 ;       .line   517; output.c   if(getSenha_i() == 4 ){ //colocar o nome certo do contador de digitos
00227A EC?? F0??      04496         CALL    _getSenha_i
00227E 6E??           04497         MOVWF   r0x00
002280 CFF3 F000      04498         MOVFF   PRODL, r0x01
002284 50??           04499         MOVF    r0x00, W
002286 0A04           04500         XORLW   0x04
002288 E1??           04501         BNZ     _00895_DS_
00228A 50??           04502         MOVF    r0x01, W
00228C E0??           04503         BZ      _00896_DS_
00228E                04504 _00895_DS_:
00228E D???           04505         BRA     _00319_DS_
002290                04506 _00896_DS_:
                      04507 ;       .line   518; output.c   lcdString("****           "); 
002290 0E??           04508         MOVLW   UPPER(___str_9)
002292 6E??           04509         MOVWF   r0x02
002294 0E??           04510         MOVLW   HIGH(___str_9)
002296 6E??           04511         MOVWF   r0x01
002298 0E??           04512         MOVLW   LOW(___str_9)
00229A 6E??           04513         MOVWF   r0x00
00229C 50??           04514         MOVF    r0x02, W
00229E 6EE5           04515         MOVWF   POSTDEC1
0022A0 50??           04516         MOVF    r0x01, W
0022A2 6EE5           04517         MOVWF   POSTDEC1
0022A4 50??           04518         MOVF    r0x00, W
0022A6 6EE5           04519         MOVWF   POSTDEC1
0022A8 EC?? F0??      04520         CALL    _lcdString
0022AC 0E03           04521         MOVLW   0x03
0022AE 26E1           04522         ADDWF   FSR1L, F
0022B0                04523 _00319_DS_:
                      04524 ;       .line   520; output.c   if(getSenha_i() == 5 ){ //colocar o nome certo do contador de digitos
0022B0 EC?? F0??      04525         CALL    _getSenha_i
0022B4 6E??           04526         MOVWF   r0x00
0022B6 CFF3 F000      04527         MOVFF   PRODL, r0x01
0022BA 50??           04528         MOVF    r0x00, W
0022BC 0A05           04529         XORLW   0x05
0022BE E1??           04530         BNZ     _00897_DS_
0022C0 50??           04531         MOVF    r0x01, W
0022C2 E0??           04532         BZ      _00898_DS_
0022C4                04533 _00897_DS_:
0022C4 D???           04534         BRA     _00321_DS_
0022C6                04535 _00898_DS_:
                      04536 ;       .line   521; output.c   lcdString("*****          "); 
0022C6 0E??           04537         MOVLW   UPPER(___str_10)
0022C8 6E??           04538         MOVWF   r0x02
0022CA 0E??           04539         MOVLW   HIGH(___str_10)
0022CC 6E??           04540         MOVWF   r0x01
0022CE 0E??           04541         MOVLW   LOW(___str_10)
0022D0 6E??           04542         MOVWF   r0x00
gpasm-1.5.0 #1285 (Sep 12 2016) build/default   7-4-2017  20:27:39          PAGE 88


LOC    OBJECT CODE    LINE  SOURCE TEXT
  VALUE

0022D2 50??           04543         MOVF    r0x02, W
0022D4 6EE5           04544         MOVWF   POSTDEC1
0022D6 50??           04545         MOVF    r0x01, W
0022D8 6EE5           04546         MOVWF   POSTDEC1
0022DA 50??           04547         MOVF    r0x00, W
0022DC 6EE5           04548         MOVWF   POSTDEC1
0022DE EC?? F0??      04549         CALL    _lcdString
0022E2 0E03           04550         MOVLW   0x03
0022E4 26E1           04551         ADDWF   FSR1L, F
0022E6                04552 _00321_DS_:
                      04553 ;       .line   523; output.c   lcdCommand(0xC0);
0022E6 0EC0           04554         MOVLW   0xc0
0022E8 6EE5           04555         MOVWF   POSTDEC1
0022EA EC?? F0??      04556         CALL    _lcdCommand
0022EE 52E6           04557         MOVF    POSTINC1, F
                      04558 ;       .line   524; output.c   if(getSenha_try() == 3){
0022F0 EC?? F0??      04559         CALL    _getSenha_try
0022F4 6E??           04560         MOVWF   r0x00
0022F6 CFF3 F000      04561         MOVFF   PRODL, r0x01
0022FA 50??           04562         MOVF    r0x00, W
0022FC 0A03           04563         XORLW   0x03
0022FE E1??           04564         BNZ     _00899_DS_
002300 50??           04565         MOVF    r0x01, W
002302 E0??           04566         BZ      _00900_DS_
002304                04567 _00899_DS_:
002304 D???           04568         BRA     _00328_DS_
002306                04569 _00900_DS_:
                      04570 ;       .line   525; output.c   lcdCommand(0xC0);
002306 0EC0           04571         MOVLW   0xc0
002308 6EE5           04572         MOVWF   POSTDEC1
00230A EC?? F0??      04573         CALL    _lcdCommand
00230E 52E6           04574         MOVF    POSTINC1, F
                      04575 ;       .line   526; output.c   if (getLanguage() == 0) {
002310 EC?? F0??      04576         CALL    _getLanguage
002314 6E??           04577         MOVWF   r0x00
002316 50??           04578         MOVF    r0x00, W
002318 E1??           04579         BNZ     _00323_DS_
                      04580 ;       .line   527; output.c   lcdString("Senha incorreta!");
00231A 0E??           04581         MOVLW   UPPER(___str_11)
00231C 6E??           04582         MOVWF   r0x02
00231E 0E??           04583         MOVLW   HIGH(___str_11)
002320 6E??           04584         MOVWF   r0x01
002322 0E??           04585         MOVLW   LOW(___str_11)
002324 6E??           04586         MOVWF   r0x00
002326 50??           04587         MOVF    r0x02, W
002328 6EE5           04588         MOVWF   POSTDEC1
00232A 50??           04589         MOVF    r0x01, W
00232C 6EE5           04590         MOVWF   POSTDEC1
00232E 50??           04591         MOVF    r0x00, W
002330 6EE5           04592         MOVWF   POSTDEC1
002332 EC?? F0??      04593         CALL    _lcdString
002336 0E03           04594         MOVLW   0x03
002338 26E1           04595         ADDWF   FSR1L, F
gpasm-1.5.0 #1285 (Sep 12 2016) build/default   7-4-2017  20:27:39          PAGE 89


LOC    OBJECT CODE    LINE  SOURCE TEXT
  VALUE

00233A                04596 _00323_DS_:
                      04597 ;       .line   529; output.c   if (getLanguage() == 1) {
00233A EC?? F0??      04598         CALL    _getLanguage
00233E 6E??           04599         MOVWF   r0x00
002340 50??           04600         MOVF    r0x00, W
002342 0A01           04601         XORLW   0x01
002344 E1??           04602         BNZ     _00325_DS_
                      04603 ;       .line   530; output.c   lcdString("Wrong password! ");
002346 0E??           04604         MOVLW   UPPER(___str_12)
002348 6E??           04605         MOVWF   r0x02
00234A 0E??           04606         MOVLW   HIGH(___str_12)
00234C 6E??           04607         MOVWF   r0x01
00234E 0E??           04608         MOVLW   LOW(___str_12)
002350 6E??           04609         MOVWF   r0x00
002352 50??           04610         MOVF    r0x02, W
002354 6EE5           04611         MOVWF   POSTDEC1
002356 50??           04612         MOVF    r0x01, W
002358 6EE5           04613         MOVWF   POSTDEC1
00235A 50??           04614         MOVF    r0x00, W
00235C 6EE5           04615         MOVWF   POSTDEC1
00235E EC?? F0??      04616         CALL    _lcdString
002362 0E03           04617         MOVLW   0x03
002364 26E1           04618         ADDWF   FSR1L, F
002366                04619 _00325_DS_:
002366 010?           04620         BANKSEL _i
                      04621 ;       .line   532; output.c   for (i = 0; i <= 1500; i++) { //delay para leitur da frase de 5s
002368 6B??           04622         CLRF    _i, B
00236A 010?           04623         BANKSEL (_i + 1)
00236C 6B??           04624         CLRF    (_i + 1), B
00236E                04625 _00356_DS_:
                      04626 ;       .line   533; output.c   Delay2ms(); 
00236E EC?? F0??      04627         CALL    _Delay2ms
002372 010?           04628         BANKSEL _i
                      04629 ;       .line   532; output.c   for (i = 0; i <= 1500; i++) { //delay para leitur da frase de 5s
002374 3F??           04630         INCFSZ  _i, F, B
002376 D???           04631         BRA     _100119_DS_
002378 010?           04632         BANKSEL (_i + 1)
00237A 2B??           04633         INCF    (_i + 1), F, B
00237C                04634 _100119_DS_:
00237C 0E05           04635         MOVLW   0x05
00237E 010?           04636         BANKSEL (_i + 1)
002380 5D??           04637         SUBWF   (_i + 1), W, B
002382 E1??           04638         BNZ     _00903_DS_
002384 0EDD           04639         MOVLW   0xdd
002386 010?           04640         BANKSEL _i
002388 5D??           04641         SUBWF   _i, W, B
00238A                04642 _00903_DS_:
00238A E3??           04643         BNC     _00356_DS_
00238C                04644 _00328_DS_:
                      04645 ;       .line   536; output.c   if(getTestResult()){
00238C EC?? F0??      04646         CALL    _getTestResult
002390 6E??           04647         MOVWF   r0x00
002392 CFF3 F000      04648         MOVFF   PRODL, r0x01
gpasm-1.5.0 #1285 (Sep 12 2016) build/default   7-4-2017  20:27:39          PAGE 90


LOC    OBJECT CODE    LINE  SOURCE TEXT
  VALUE

002396 50??           04649         MOVF    r0x00, W
002398 10??           04650         IORWF   r0x01, W
00239A B4D8           04651         BTFSC   STATUS, 2
00239C D???           04652         BRA     _00360_DS_
                      04653 ;       .line   537; output.c   if (getLanguage() == 0) {
00239E EC?? F0??      04654         CALL    _getLanguage
0023A2 6E??           04655         MOVWF   r0x00
0023A4 50??           04656         MOVF    r0x00, W
0023A6 E1??           04657         BNZ     _00330_DS_
                      04658 ;       .line   538; output.c   lcdString("ReiniciandoTchau");
0023A8 0E??           04659         MOVLW   UPPER(___str_48)
0023AA 6E??           04660         MOVWF   r0x02
0023AC 0E??           04661         MOVLW   HIGH(___str_48)
0023AE 6E??           04662         MOVWF   r0x01
0023B0 0E??           04663         MOVLW   LOW(___str_48)
0023B2 6E??           04664         MOVWF   r0x00
0023B4 50??           04665         MOVF    r0x02, W
0023B6 6EE5           04666         MOVWF   POSTDEC1
0023B8 50??           04667         MOVF    r0x01, W
0023BA 6EE5           04668         MOVWF   POSTDEC1
0023BC 50??           04669         MOVF    r0x00, W
0023BE 6EE5           04670         MOVWF   POSTDEC1
0023C0 EC?? F0??      04671         CALL    _lcdString
0023C4 0E03           04672         MOVLW   0x03
0023C6 26E1           04673         ADDWF   FSR1L, F
0023C8                04674 _00330_DS_:
                      04675 ;       .line   540; output.c   if (getLanguage() == 1) {
0023C8 EC?? F0??      04676         CALL    _getLanguage
0023CC 6E??           04677         MOVWF   r0x00
0023CE 50??           04678         MOVF    r0x00, W
0023D0 0A01           04679         XORLW   0x01
0023D2 E1??           04680         BNZ     _00332_DS_
                      04681 ;       .line   541; output.c   lcdString("RestartingByebye");
0023D4 0E??           04682         MOVLW   UPPER(___str_49)
0023D6 6E??           04683         MOVWF   r0x02
0023D8 0E??           04684         MOVLW   HIGH(___str_49)
0023DA 6E??           04685         MOVWF   r0x01
0023DC 0E??           04686         MOVLW   LOW(___str_49)
0023DE 6E??           04687         MOVWF   r0x00
0023E0 50??           04688         MOVF    r0x02, W
0023E2 6EE5           04689         MOVWF   POSTDEC1
0023E4 50??           04690         MOVF    r0x01, W
0023E6 6EE5           04691         MOVWF   POSTDEC1
0023E8 50??           04692         MOVF    r0x00, W
0023EA 6EE5           04693         MOVWF   POSTDEC1
0023EC EC?? F0??      04694         CALL    _lcdString
0023F0 0E03           04695         MOVLW   0x03
0023F2 26E1           04696         ADDWF   FSR1L, F
0023F4                04697 _00332_DS_:
0023F4 010?           04698         BANKSEL _i
                      04699 ;       .line   543; output.c   for (i = 0; i <= 1500; i++){
0023F6 6B??           04700         CLRF    _i, B
0023F8 010?           04701         BANKSEL (_i + 1)
gpasm-1.5.0 #1285 (Sep 12 2016) build/default   7-4-2017  20:27:39          PAGE 91


LOC    OBJECT CODE    LINE  SOURCE TEXT
  VALUE

0023FA 6B??           04702         CLRF    (_i + 1), B
0023FC                04703 _00358_DS_:
                      04704 ;       .line   544; output.c   Delay2ms();
0023FC EC?? F0??      04705         CALL    _Delay2ms
002400 010?           04706         BANKSEL _i
                      04707 ;       .line   543; output.c   for (i = 0; i <= 1500; i++){
002402 3F??           04708         INCFSZ  _i, F, B
002404 D???           04709         BRA     _110120_DS_
002406 010?           04710         BANKSEL (_i + 1)
002408 2B??           04711         INCF    (_i + 1), F, B
00240A                04712 _110120_DS_:
00240A 0E05           04713         MOVLW   0x05
00240C 010?           04714         BANKSEL (_i + 1)
00240E 5D??           04715         SUBWF   (_i + 1), W, B
002410 E1??           04716         BNZ     _00906_DS_
002412 0EDD           04717         MOVLW   0xdd
002414 010?           04718         BANKSEL _i
002416 5D??           04719         SUBWF   _i, W, B
002418                04720 _00906_DS_:
002418 E3??           04721         BNC     _00358_DS_
00241A                04722 _00360_DS_:
00241A CFE4 F000      04723         MOVFF   PREINC1, r0x07
00241E CFE4 F000      04724         MOVFF   PREINC1, r0x06
002422 CFE4 F000      04725         MOVFF   PREINC1, r0x05
002426 CFE4 F000      04726         MOVFF   PREINC1, r0x04
00242A CFE4 F000      04727         MOVFF   PREINC1, r0x03
00242E CFE4 F000      04728         MOVFF   PREINC1, r0x02
002432 CFE4 F000      04729         MOVFF   PREINC1, r0x01
002436 CFE4 F000      04730         MOVFF   PREINC1, r0x00
00243A CFE4 FFD9      04731         MOVFF   PREINC1, FSR2L
00243E 0012           04732         RETURN  
                      04733 
                      04734 ; ; Starting pCode block
                      04735 S_output__outputInit    code
000000                04736 _outputInit:
                      04737 ;       .line   53; output.c    void outputInit(void) {
000000 CFD9 FFE5      04738         MOVFF   FSR2L, POSTDEC1
000004 CFE1 FFD9      04739         MOVFF   FSR1L, FSR2L
                      04740 ;       .line   54; output.c    lcdInit();
000008 EC?? F0??      04741         CALL    _lcdInit
                      04742 ;       .line   55; output.c    ADread = 19;
00000C 0E13           04743         MOVLW   0x13
00000E 010?           04744         BANKSEL _ADread
000010 6F??           04745         MOVWF   _ADread, B
000012 010?           04746         BANKSEL (_ADread + 1)
000014 6B??           04747         CLRF    (_ADread + 1), B
000016 CFE4 FFD9      04748         MOVFF   PREINC1, FSR2L
00001A 0012           04749         RETURN  
                      04750 
                      04751 ; ; Starting pCode block
00001C                04752 ___str_0:
00001C 0020           04753         DB      0x20, 0x00
                      04754 ; ; Starting pCode block
gpasm-1.5.0 #1285 (Sep 12 2016) build/default   7-4-2017  20:27:39          PAGE 92


LOC    OBJECT CODE    LINE  SOURCE TEXT
  VALUE

00001E                04755 ___str_1:
00001E 7528 696E 0029 04756         DB      0x28, 0x75, 0x6e, 0x69, 0x29, 0x00
                      04757 ; ; Starting pCode block
000024                04758 ___str_2:
000024 002F           04759         DB      0x2f, 0x00
                      04760 ; ; Starting pCode block
000026                04761 ___str_3:
000026 2020 0000      04762         DB      0x20, 0x20, 0x00
                      04763 ; ; Starting pCode block
00002A                04764 ___str_4:
00002A 003A           04765         DB      0x3a, 0x00
                      04766 ; ; Starting pCode block
00002C                04767 ___str_5:
00002C 2020 2020 2020 04768         DB      0x20, 0x20, 0x20, 0x20, 0x20, 0x20, 0x20, 0x20, 0x20, 0x20, 0x20, 0x20
       2020 2020 2020 
000038 2020 2020 0000 04769         DB      0x20, 0x20, 0x20, 0x20, 0x00
                      04770 ; ; Starting pCode block
00003E                04771 ___str_6:
00003E 202A 2020 2020 04772         DB      0x2a, 0x20, 0x20, 0x20, 0x20, 0x20, 0x20, 0x20, 0x20, 0x20, 0x20, 0x20
       2020 2020 2020 
00004A 2020 2020 0000 04773         DB      0x20, 0x20, 0x20, 0x20, 0x00
                      04774 ; ; Starting pCode block
000050                04775 ___str_7:
000050 2A2A 2020 2020 04776         DB      0x2a, 0x2a, 0x20, 0x20, 0x20, 0x20, 0x20, 0x20, 0x20, 0x20, 0x20, 0x20
       2020 2020 2020 
00005C 2020 2020 0000 04777         DB      0x20, 0x20, 0x20, 0x20, 0x00
                      04778 ; ; Starting pCode block
000062                04779 ___str_8:
000062 2A2A 202A 2020 04780         DB      0x2a, 0x2a, 0x2a, 0x20, 0x20, 0x20, 0x20, 0x20, 0x20, 0x20, 0x20, 0x20
       2020 2020 2020 
00006E 2020 0020      04781         DB      0x20, 0x20, 0x20, 0x00
                      04782 ; ; Starting pCode block
000072                04783 ___str_9:
000072 2A2A 2A2A 2020 04784         DB      0x2a, 0x2a, 0x2a, 0x2a, 0x20, 0x20, 0x20, 0x20, 0x20, 0x20, 0x20, 0x20
       2020 2020 2020 
00007E 2020 0020      04785         DB      0x20, 0x20, 0x20, 0x00
                      04786 ; ; Starting pCode block
000082                04787 ___str_10:
000082 2A2A 2A2A 202A 04788         DB      0x2a, 0x2a, 0x2a, 0x2a, 0x2a, 0x20, 0x20, 0x20, 0x20, 0x20, 0x20, 0x20
       2020 2020 2020 
00008E 2020 0020      04789         DB      0x20, 0x20, 0x20, 0x00
                      04790 ; ; Starting pCode block
000092                04791 ___str_11:
000092 6553 686E 2061 04792         DB      0x53, 0x65, 0x6e, 0x68, 0x61, 0x20, 0x69, 0x6e, 0x63, 0x6f, 0x72, 0x72
       6E69 6F63 7272 
00009E 7465 2161 0000 04793         DB      0x65, 0x74, 0x61, 0x21, 0x00
                      04794 ; ; Starting pCode block
0000A4                04795 ___str_12:
0000A4 7257 6E6F 2067 04796         DB      0x57, 0x72, 0x6f, 0x6e, 0x67, 0x20, 0x70, 0x61, 0x73, 0x73, 0x77, 0x6f
       6170 7373 6F77 
0000B0 6472 2021 0000 04797         DB      0x72, 0x64, 0x21, 0x20, 0x00
                      04798 ; ; Starting pCode block
0000B6                04799 ___str_13:
gpasm-1.5.0 #1285 (Sep 12 2016) build/default   7-4-2017  20:27:39          PAGE 93


LOC    OBJECT CODE    LINE  SOURCE TEXT
  VALUE

0000B6 2020 2820 0000 04800         DB      0x20, 0x20, 0x20, 0x28, 0x00
                      04801 ; ; Starting pCode block
0000BC                04802 ___str_14:
0000BC 002C           04803         DB      0x2c, 0x00
                      04804 ; ; Starting pCode block
0000BE                04805 ___str_15:
0000BE 2029 0000      04806         DB      0x29, 0x20, 0x00
                      04807 ; ; Starting pCode block
0000C2                04808 ___str_16:
0000C2 2020 0020      04809         DB      0x20, 0x20, 0x20, 0x00
                      04810 ; ; Starting pCode block
0000C6                04811 ___str_17:
0000C6 4320 6E6F 6966 04812         DB      0x20, 0x43, 0x6f, 0x6e, 0x66, 0x69, 0x67, 0x75, 0x72, 0x61, 0x20, 0x74
       7567 6172 7420 
0000D2 6D65 6F70 0000 04813         DB      0x65, 0x6d, 0x70, 0x6f, 0x00
                      04814 ; ; Starting pCode block
0000D8                04815 ___str_18:
0000D8 5320 7465 7420 04816         DB      0x20, 0x53, 0x65, 0x74, 0x20, 0x74, 0x69, 0x6d, 0x65, 0x3a, 0x20, 0x20
       6D69 3A65 2020 
0000E4 2020 2020 0020 04817         DB      0x20, 0x20, 0x20, 0x20, 0x20, 0x00
                      04818 ; ; Starting pCode block
0000EA                04819 ___str_19:
0000EA 2020 2020 2020 04820         DB      0x20, 0x20, 0x20, 0x20, 0x20, 0x20, 0x00
       0000           
                      04821 ; ; Starting pCode block
0000F2                04822 ___str_20:
0000F2 432A 6E6F 6966 04823         DB      0x2a, 0x43, 0x6f, 0x6e, 0x66, 0x69, 0x67, 0x75, 0x72, 0x61, 0x20, 0x74
       7567 6172 7420 
0000FE 6D65 6F70 0000 04824         DB      0x65, 0x6d, 0x70, 0x6f, 0x00
                      04825 ; ; Starting pCode block
000104                04826 ___str_21:
000104 532A 7465 7420 04827         DB      0x2a, 0x53, 0x65, 0x74, 0x20, 0x74, 0x69, 0x6d, 0x65, 0x3a, 0x20, 0x20
       6D69 3A65 2020 
000110 2020 2020 0000 04828         DB      0x20, 0x20, 0x20, 0x20, 0x00
                      04829 ; ; Starting pCode block
000116                04830 ___str_22:
000116 2020 2020 2020 04831         DB      0x20, 0x20, 0x20, 0x20, 0x20, 0x20, 0x20, 0x00
       0020           
                      04832 ; ; Starting pCode block
00011E                04833 ___str_23:
00011E 6F50 7472 6775 04834         DB      0x50, 0x6f, 0x72, 0x74, 0x75, 0x67, 0x75, 0x65, 0x73, 0x20, 0x20, 0x20
       6575 2073 2020 
00012A 2020 2020 0000 04835         DB      0x20, 0x20, 0x20, 0x20, 0x00
                      04836 ; ; Starting pCode block
000130                04837 ___str_24:
000130 6E45 6C67 7369 04838         DB      0x45, 0x6e, 0x67, 0x6c, 0x69, 0x73, 0x68, 0x20, 0x20, 0x20, 0x20, 0x20
       2068 2020 2020 
00013C 2020 2020 0000 04839         DB      0x20, 0x20, 0x20, 0x20, 0x00
                      04840 ; ; Starting pCode block
000142                04841 ___str_25:
000142 502A 726F 7574 04842         DB      0x2a, 0x50, 0x6f, 0x72, 0x74, 0x75, 0x67, 0x75, 0x65, 0x73, 0x20, 0x20
       7567 7365 2020 
00014E 2020 2020 0000 04843         DB      0x20, 0x20, 0x20, 0x20, 0x00
gpasm-1.5.0 #1285 (Sep 12 2016) build/default   7-4-2017  20:27:39          PAGE 94


LOC    OBJECT CODE    LINE  SOURCE TEXT
  VALUE

                      04844 ; ; Starting pCode block
000154                04845 ___str_26:
000154 452A 676E 696C 04846         DB      0x2a, 0x45, 0x6e, 0x67, 0x6c, 0x69, 0x73, 0x68, 0x20, 0x20, 0x20, 0x20
       6873 2020 2020 
000160 2020 2020 0000 04847         DB      0x20, 0x20, 0x20, 0x20, 0x00
                      04848 ; ; Starting pCode block
000166                04849 ___str_27:
000166 4820 726F 2061 04850         DB      0x20, 0x48, 0x6f, 0x72, 0x61, 0x20, 0x20, 0x20, 0x20, 0x20, 0x20, 0x20
       2020 2020 2020 
000172 2020 2020 0000 04851         DB      0x20, 0x20, 0x20, 0x20, 0x00
                      04852 ; ; Starting pCode block
000178                04853 ___str_28:
000178 4820 756F 2072 04854         DB      0x20, 0x48, 0x6f, 0x75, 0x72, 0x20, 0x20, 0x20, 0x20, 0x20, 0x20, 0x20
       2020 2020 2020 
000184 2020 2020 0000 04855         DB      0x20, 0x20, 0x20, 0x20, 0x00
                      04856 ; ; Starting pCode block
00018A                04857 ___str_29:
00018A 2020 2020 2020 04858         DB      0x20, 0x20, 0x20, 0x20, 0x20, 0x20, 0x20, 0x20, 0x00
       2020 0000      
                      04859 ; ; Starting pCode block
000194                04860 ___str_30:
000194 482A 726F 2061 04861         DB      0x2a, 0x48, 0x6f, 0x72, 0x61, 0x20, 0x20, 0x20, 0x20, 0x20, 0x20, 0x20
       2020 2020 2020 
0001A0 2020 2020 0000 04862         DB      0x20, 0x20, 0x20, 0x20, 0x00
                      04863 ; ; Starting pCode block
0001A6                04864 ___str_31:
0001A6 482A 756F 2072 04865         DB      0x2a, 0x48, 0x6f, 0x75, 0x72, 0x20, 0x20, 0x20, 0x20, 0x20, 0x20, 0x20
       2020 2020 2020 
0001B2 2020 2020 0000 04866         DB      0x20, 0x20, 0x20, 0x20, 0x00
                      04867 ; ; Starting pCode block
0001B8                04868 ___str_32:
0001B8 2020 2020 2020 04869         DB      0x20, 0x20, 0x20, 0x20, 0x20, 0x20, 0x20, 0x20, 0x20, 0x00
       2020 0020      
                      04870 ; ; Starting pCode block
0001C2                04871 ___str_33:
0001C2 4820 6261 6C69 04872         DB      0x20, 0x48, 0x61, 0x62, 0x69, 0x6c, 0x69, 0x74, 0x61, 0x72, 0x20, 0x73
       7469 7261 7320 
0001CE 6E65 6168 0000 04873         DB      0x65, 0x6e, 0x68, 0x61, 0x00
                      04874 ; ; Starting pCode block
0001D4                04875 ___str_34:
0001D4 4520 616E 6C62 04876         DB      0x20, 0x45, 0x6e, 0x61, 0x62, 0x6c, 0x65, 0x20, 0x70, 0x61, 0x73, 0x73
       2065 6170 7373 
0001E0 6F77 6472 0000 04877         DB      0x77, 0x6f, 0x72, 0x64, 0x00
                      04878 ; ; Starting pCode block
0001E6                04879 ___str_35:
0001E6 2A2A 202A 2020 04880         DB      0x2a, 0x2a, 0x2a, 0x20, 0x20, 0x20, 0x20, 0x20, 0x20, 0x20, 0x20, 0x20
       2020 2020 2020 
0001F2 2020 2020 0000 04881         DB      0x20, 0x20, 0x20, 0x20, 0x00
                      04882 ; ; Starting pCode block
0001F8                04883 ___str_36:
0001F8 2A2A 2A2A 2020 04884         DB      0x2a, 0x2a, 0x2a, 0x2a, 0x20, 0x20, 0x20, 0x20, 0x20, 0x20, 0x20, 0x20
       2020 2020 2020 
000204 2020 2020 0000 04885         DB      0x20, 0x20, 0x20, 0x20, 0x00
gpasm-1.5.0 #1285 (Sep 12 2016) build/default   7-4-2017  20:27:39          PAGE 95


LOC    OBJECT CODE    LINE  SOURCE TEXT
  VALUE

                      04886 ; ; Starting pCode block
00020A                04887 ___str_37:
00020A 2A2A 2A2A 202A 04888         DB      0x2a, 0x2a, 0x2a, 0x2a, 0x2a, 0x20, 0x20, 0x20, 0x20, 0x20, 0x20, 0x20
       2020 2020 2020 
000216 2020 2020 0000 04889         DB      0x20, 0x20, 0x20, 0x20, 0x00
                      04890 ; ; Starting pCode block
00021C                04891 ___str_38:
00021C 6553 686E 2061 04892         DB      0x53, 0x65, 0x6e, 0x68, 0x61, 0x20, 0x61, 0x6c, 0x74, 0x65, 0x72, 0x61
       6C61 6574 6172 
000228 6164 2021 0000 04893         DB      0x64, 0x61, 0x21, 0x20, 0x00
                      04894 ; ; Starting pCode block
00022E                04895 ___str_39:
00022E 6150 7373 6F77 04896         DB      0x50, 0x61, 0x73, 0x73, 0x77, 0x6f, 0x72, 0x64, 0x20, 0x63, 0x68, 0x61
       6472 6320 6168 
00023A 676E 6465 0021 04897         DB      0x6e, 0x67, 0x65, 0x64, 0x21, 0x00
                      04898 ; ; Starting pCode block
000240                04899 ___str_40:
000240 6E49 6973 6172 04900         DB      0x49, 0x6e, 0x73, 0x69, 0x72, 0x61, 0x20, 0x6e, 0x6f, 0x76, 0x61, 0x6d
       6E20 766F 6D61 
00024C 6E65 6574 0000 04901         DB      0x65, 0x6e, 0x74, 0x65, 0x00
                      04902 ; ; Starting pCode block
000252                04903 ___str_41:
000252 6C50 6165 6573 04904         DB      0x50, 0x6c, 0x65, 0x61, 0x73, 0x65, 0x20, 0x72, 0x65, 0x2d, 0x65, 0x6e
       7220 2D65 6E65 
00025E 6574 2072 0000 04905         DB      0x74, 0x65, 0x72, 0x20, 0x00
                      04906 ; ; Starting pCode block
000264                04907 ___str_42:
000264 482A 6261 6C69 04908         DB      0x2a, 0x48, 0x61, 0x62, 0x69, 0x6c, 0x69, 0x74, 0x61, 0x72, 0x20, 0x73
       7469 7261 7320 
000270 6E65 6168 0000 04909         DB      0x65, 0x6e, 0x68, 0x61, 0x00
                      04910 ; ; Starting pCode block
000276                04911 ___str_43:
000276 452A 616E 6C62 04912         DB      0x2a, 0x45, 0x6e, 0x61, 0x62, 0x6c, 0x65, 0x20, 0x70, 0x61, 0x73, 0x73
       2065 6170 7373 
000282 6F77 6472 0000 04913         DB      0x77, 0x6f, 0x72, 0x64, 0x00
                      04914 ; ; Starting pCode block
000288                04915 ___str_44:
000288 4420 7365 6261 04916         DB      0x20, 0x44, 0x65, 0x73, 0x61, 0x62, 0x69, 0x6c, 0x69, 0x74, 0x61, 0x72
       6C69 7469 7261 
000294 2020 2020 0000 04917         DB      0x20, 0x20, 0x20, 0x20, 0x00
                      04918 ; ; Starting pCode block
00029A                04919 ___str_45:
00029A 4420 7369 6261 04920         DB      0x20, 0x44, 0x69, 0x73, 0x61, 0x62, 0x6c, 0x65, 0x20, 0x20, 0x20, 0x20
       656C 2020 2020 
0002A6 2020 2020 0000 04921         DB      0x20, 0x20, 0x20, 0x20, 0x00
                      04922 ; ; Starting pCode block
0002AC                04923 ___str_46:
0002AC 442A 7365 6261 04924         DB      0x2a, 0x44, 0x65, 0x73, 0x61, 0x62, 0x69, 0x6c, 0x69, 0x74, 0x61, 0x72
       6C69 7469 7261 
0002B8 2020 2020 0000 04925         DB      0x20, 0x20, 0x20, 0x20, 0x00
                      04926 ; ; Starting pCode block
0002BE                04927 ___str_47:
0002BE 442A 7369 6261 04928         DB      0x2a, 0x44, 0x69, 0x73, 0x61, 0x62, 0x6c, 0x65, 0x20, 0x20, 0x20, 0x20
gpasm-1.5.0 #1285 (Sep 12 2016) build/default   7-4-2017  20:27:39          PAGE 96


LOC    OBJECT CODE    LINE  SOURCE TEXT
  VALUE

       656C 2020 2020 
0002CA 2020 2020 0000 04929         DB      0x20, 0x20, 0x20, 0x20, 0x00
                      04930 ; ; Starting pCode block
0002D0                04931 ___str_48:
0002D0 6552 6E69 6369 04932         DB      0x52, 0x65, 0x69, 0x6e, 0x69, 0x63, 0x69, 0x61, 0x6e, 0x64, 0x6f, 0x54
       6169 646E 546F 
0002DC 6863 7561 0000 04933         DB      0x63, 0x68, 0x61, 0x75, 0x00
                      04934 ; ; Starting pCode block
0002E2                04935 ___str_49:
0002E2 6552 7473 7261 04936         DB      0x52, 0x65, 0x73, 0x74, 0x61, 0x72, 0x74, 0x69, 0x6e, 0x67, 0x42, 0x79
       6974 676E 7942 
0002EE 6265 6579 0000 04937         DB      0x65, 0x62, 0x79, 0x65, 0x00
                      04938 ; ; Starting pCode block
0002F4                04939 ___str_50:
0002F4 654C 7469 7275 04940         DB      0x4c, 0x65, 0x69, 0x74, 0x75, 0x72, 0x61, 0x3a, 0x00
       3A61 0000      
                      04941 ; ; Starting pCode block
0002FE                04942 ___str_51:
0002FE 6552 6461 6E69 04943         DB      0x52, 0x65, 0x61, 0x64, 0x69, 0x6e, 0x67, 0x3a, 0x00
       3A67 0000      
                      04944 ; ; Starting pCode block
000308                04945 ___str_52:
000308 6E49 6573 6972 04946         DB      0x49, 0x6e, 0x73, 0x65, 0x72, 0x69, 0x72, 0x20, 0x73, 0x65, 0x6e, 0x68
       2072 6573 686E 
000314 3A61 2020 0000 04947         DB      0x61, 0x3a, 0x20, 0x20, 0x00
                      04948 ; ; Starting pCode block
00031A                04949 ___str_53:
00031A 6E49 6573 7472 04950         DB      0x49, 0x6e, 0x73, 0x65, 0x72, 0x74, 0x20, 0x70, 0x61, 0x73, 0x73, 0x77
       7020 7361 7773 
000326 726F 3A64 0000 04951         DB      0x6f, 0x72, 0x64, 0x3a, 0x00
                      04952 ; ; Starting pCode block
00032C                04953 ___str_54:
00032C 6F43 666E 6769 04954         DB      0x43, 0x6f, 0x6e, 0x66, 0x69, 0x67, 0x75, 0x72, 0x61, 0x20, 0x61, 0x6c
       7275 2061 6C61 
000338 7261 656D 0000 04955         DB      0x61, 0x72, 0x6d, 0x65, 0x00
                      04956 ; ; Starting pCode block
00033E                04957 ___str_55:
00033E 6553 2074 6C61 04958         DB      0x53, 0x65, 0x74, 0x20, 0x61, 0x6c, 0x61, 0x72, 0x6d, 0x20, 0x20, 0x20
       7261 206D 2020 
00034A 2020 2020 0000 04959         DB      0x20, 0x20, 0x20, 0x20, 0x00
                      04960 ; ; Starting pCode block
000350                04961 ___str_56:
000350 412A 616C 6D72 04962         DB      0x2a, 0x41, 0x6c, 0x61, 0x72, 0x6d, 0x65, 0x73, 0x20, 0x28, 0x42, 0x2f
       7365 2820 2F42 
00035C 2941 2020 0000 04963         DB      0x41, 0x29, 0x20, 0x20, 0x00
                      04964 ; ; Starting pCode block
000362                04965 ___str_57:
000362 412A 616C 6D72 04966         DB      0x2a, 0x41, 0x6c, 0x61, 0x72, 0x6d, 0x73, 0x20, 0x28, 0x4c, 0x2f, 0x48
       2073 4C28 482F 
00036E 2029 2020 0000 04967         DB      0x29, 0x20, 0x20, 0x20, 0x00
                      04968 ; ; Starting pCode block
000374                04969 ___str_58:
000374 6142 7869 3A6F 04970         DB      0x42, 0x61, 0x69, 0x78, 0x6f, 0x3a, 0x20, 0x20, 0x20, 0x41, 0x6c, 0x74
gpasm-1.5.0 #1285 (Sep 12 2016) build/default   7-4-2017  20:27:39          PAGE 97


LOC    OBJECT CODE    LINE  SOURCE TEXT
  VALUE

       2020 4120 746C 
000380 3A6F 2020 0000 04971         DB      0x6f, 0x3a, 0x20, 0x20, 0x00
                      04972 ; ; Starting pCode block
000386                04973 ___str_59:
000386 6F4C 3A77 2020 04974         DB      0x4c, 0x6f, 0x77, 0x3a, 0x20, 0x20, 0x20, 0x20, 0x48, 0x69, 0x67, 0x68
       2020 6948 6867 
000392 203A 2020 0000 04975         DB      0x3a, 0x20, 0x20, 0x20, 0x00
                      04976 ; ; Starting pCode block
000398                04977 ___str_60:
000398 4120 616C 6D72 04978         DB      0x20, 0x41, 0x6c, 0x61, 0x72, 0x6d, 0x65, 0x73, 0x20, 0x28, 0x42, 0x2f
       7365 2820 2F42 
0003A4 2941 2020 0000 04979         DB      0x41, 0x29, 0x20, 0x20, 0x00
                      04980 ; ; Starting pCode block
0003AA                04981 ___str_61:
0003AA 4120 616C 6D72 04982         DB      0x20, 0x41, 0x6c, 0x61, 0x72, 0x6d, 0x73, 0x20, 0x28, 0x4c, 0x2f, 0x48
       2073 4C28 482F 
0003B6 2029 2020 0000 04983         DB      0x29, 0x20, 0x20, 0x20, 0x00
                      04984 ; ; Starting pCode block
0003BC                04985 ___str_62:
0003BC 6554 706D 206F 04986         DB      0x54, 0x65, 0x6d, 0x70, 0x6f, 0x20, 0x61, 0x71, 0x75, 0x69, 0x73, 0x69
       7161 6975 6973 
0003C8 E3E7 3A6F 0000 04987         DB      0xe7, 0xe3, 0x6f, 0x3a, 0x00
                      04988 ; ; Starting pCode block
0003CE                04989 ___str_63:
0003CE 6954 656D 6120 04990         DB      0x54, 0x69, 0x6d, 0x65, 0x20, 0x61, 0x63, 0x71, 0x75, 0x69, 0x73, 0x69
       7163 6975 6973 
0003DA 6974 6E6F 0000 04991         DB      0x74, 0x69, 0x6f, 0x6e, 0x00
                      04992 ; ; Starting pCode block
0003E0                04993 ___str_64:
0003E0 6F43 666E 6769 04994         DB      0x43, 0x6f, 0x6e, 0x66, 0x69, 0x67, 0x75, 0x72, 0x61, 0x20, 0x69, 0x64
       7275 2061 6469 
0003EC 6F69 616D 0000 04995         DB      0x69, 0x6f, 0x6d, 0x61, 0x00
                      04996 ; ; Starting pCode block
0003F2                04997 ___str_65:
0003F2 6553 2074 616C 04998         DB      0x53, 0x65, 0x74, 0x20, 0x6c, 0x61, 0x6e, 0x67, 0x75, 0x61, 0x67, 0x65
       676E 6175 6567 
0003FE 2020 2020 0000 04999         DB      0x20, 0x20, 0x20, 0x20, 0x00
                      05000 ; ; Starting pCode block
000404                05001 ___str_66:
000404 6553 656C 6963 05002         DB      0x53, 0x65, 0x6c, 0x65, 0x63, 0x69, 0x6f, 0x6e, 0x61, 0x20, 0x69, 0x64
       6E6F 2061 6469 
000410 6F69 616D 0000 05003         DB      0x69, 0x6f, 0x6d, 0x61, 0x00
                      05004 ; ; Starting pCode block
000416                05005 ___str_67:
000416 6553 656C 7463 05006         DB      0x53, 0x65, 0x6c, 0x65, 0x63, 0x74, 0x20, 0x6c, 0x61, 0x6e, 0x67, 0x75
       6C20 6E61 7567 
000422 6761 2065 0000 05007         DB      0x61, 0x67, 0x65, 0x20, 0x00
                      05008 ; ; Starting pCode block
000428                05009 ___str_68:
000428 6144 6174 2020 05010         DB      0x44, 0x61, 0x74, 0x61, 0x20, 0x20, 0x2f, 0x20, 0x20, 0x48, 0x6f, 0x72
       202F 4820 726F 
000434 3A61 2020 0000 05011         DB      0x61, 0x3a, 0x20, 0x20, 0x00
                      05012 ; ; Starting pCode block
gpasm-1.5.0 #1285 (Sep 12 2016) build/default   7-4-2017  20:27:39          PAGE 98


LOC    OBJECT CODE    LINE  SOURCE TEXT
  VALUE

00043A                05013 ___str_69:
00043A 6144 6574 2020 05014         DB      0x44, 0x61, 0x74, 0x65, 0x20, 0x20, 0x2f, 0x20, 0x20, 0x54, 0x69, 0x6d
       202F 5420 6D69 
000446 2065 2020 0000 05015         DB      0x65, 0x20, 0x20, 0x20, 0x00
                      05016 ; ; Starting pCode block
00044C                05017 ___str_70:
00044C 442A 7461 2061 05018         DB      0x2a, 0x44, 0x61, 0x74, 0x61, 0x20, 0x20, 0x20, 0x20, 0x20, 0x20, 0x20
       2020 2020 2020 
000458 2020 2020 0000 05019         DB      0x20, 0x20, 0x20, 0x20, 0x00
                      05020 ; ; Starting pCode block
00045E                05021 ___str_71:
00045E 442A 7461 2065 05022         DB      0x2a, 0x44, 0x61, 0x74, 0x65, 0x20, 0x20, 0x20, 0x20, 0x20, 0x20, 0x20
       2020 2020 2020 
00046A 2020 2020 0000 05023         DB      0x20, 0x20, 0x20, 0x20, 0x00
                      05024 ; ; Starting pCode block
000470                05025 ___str_72:
000470 4420 7461 3A61 05026         DB      0x20, 0x44, 0x61, 0x74, 0x61, 0x3a, 0x20, 0x20, 0x20, 0x20, 0x20, 0x20
       2020 2020 2020 
00047C 2020 2020 0000 05027         DB      0x20, 0x20, 0x20, 0x20, 0x00
                      05028 ; ; Starting pCode block
000482                05029 ___str_73:
000482 4420 7461 3A65 05030         DB      0x20, 0x44, 0x61, 0x74, 0x65, 0x3a, 0x20, 0x20, 0x20, 0x20, 0x20, 0x20
       2020 2020 2020 
00048E 2020 2020 0000 05031         DB      0x20, 0x20, 0x20, 0x20, 0x00
                      05032 ; ; Starting pCode block
000494                05033 ___str_74:
000494 4420 7461 2061 05034         DB      0x20, 0x44, 0x61, 0x74, 0x61, 0x20, 0x20, 0x20, 0x20, 0x20, 0x20, 0x20
       2020 2020 2020 
0004A0 2020 2020 0000 05035         DB      0x20, 0x20, 0x20, 0x20, 0x00
                      05036 ; ; Starting pCode block
0004A6                05037 ___str_75:
0004A6 4420 7461 2065 05038         DB      0x20, 0x44, 0x61, 0x74, 0x65, 0x20, 0x20, 0x20, 0x20, 0x20, 0x20, 0x20
       2020 2020 2020 
0004B2 2020 2020 0000 05039         DB      0x20, 0x20, 0x20, 0x20, 0x00
                      05040 ; ; Starting pCode block
0004B8                05041 ___str_76:
0004B8 4820 726F 7361 05042         DB      0x20, 0x48, 0x6f, 0x72, 0x61, 0x73, 0x3a, 0x20, 0x20, 0x20, 0x20, 0x20
       203A 2020 2020 
0004C4 2020 2020 0000 05043         DB      0x20, 0x20, 0x20, 0x20, 0x00
                      05044 ; ; Starting pCode block
0004CA                05045 ___str_77:
0004CA 5420 6D69 3A65 05046         DB      0x20, 0x54, 0x69, 0x6d, 0x65, 0x3a, 0x20, 0x20, 0x20, 0x20, 0x20, 0x20
       2020 2020 2020 
0004D6 2020 2020 0000 05047         DB      0x20, 0x20, 0x20, 0x20, 0x00
                      05048 ; ; Starting pCode block
0004DC                05049 ___str_78:
0004DC 6F43 666E 6769 05050         DB      0x43, 0x6f, 0x6e, 0x66, 0x69, 0x67, 0x2e, 0x73, 0x65, 0x67, 0x75, 0x72
       732E 6765 7275 
0004E8 6E61 61E7 0000 05051         DB      0x61, 0x6e, 0xe7, 0x61, 0x00
                      05052 ; ; Starting pCode block
0004EE                05053 ___str_79:
0004EE 6F43 666E 6769 05054         DB      0x43, 0x6f, 0x6e, 0x66, 0x69, 0x67, 0x2e, 0x20, 0x73, 0x65, 0x63, 0x75
       202E 6573 7563 
gpasm-1.5.0 #1285 (Sep 12 2016) build/default   7-4-2017  20:27:39          PAGE 99


LOC    OBJECT CODE    LINE  SOURCE TEXT
  VALUE

0004FA 6972 7974 0000 05055         DB      0x72, 0x69, 0x74, 0x79, 0x00
                      05056 ; ; Starting pCode block
000500                05057 ___str_80:
000500 412A 746C 7265 05058         DB      0x2a, 0x41, 0x6c, 0x74, 0x65, 0x72, 0x61, 0x72, 0x20, 0x73, 0x65, 0x6e
       7261 7320 6E65 
00050C 6168 2020 0000 05059         DB      0x68, 0x61, 0x20, 0x20, 0x00
                      05060 ; ; Starting pCode block
000512                05061 ___str_81:
000512 532A 7465 7020 05062         DB      0x2a, 0x53, 0x65, 0x74, 0x20, 0x70, 0x61, 0x73, 0x73, 0x77, 0x6f, 0x72
       7361 7773 726F 
00051E 2064 2020 0000 05063         DB      0x64, 0x20, 0x20, 0x20, 0x00
                      05064 ; ; Starting pCode block
000524                05065 ___str_82:
000524 6553 686E 2061 05066         DB      0x53, 0x65, 0x6e, 0x68, 0x61, 0x20, 0x61, 0x74, 0x75, 0x61, 0x6c, 0x20
       7461 6175 206C 
000530 2020 2020 0000 05067         DB      0x20, 0x20, 0x20, 0x20, 0x00
                      05068 ; ; Starting pCode block
000536                05069 ___str_83:
000536 7543 7272 6E65 05070         DB      0x43, 0x75, 0x72, 0x72, 0x65, 0x6e, 0x74, 0x20, 0x70, 0x61, 0x73, 0x73
       2074 6170 7373 
000542 6F77 6472 0000 05071         DB      0x77, 0x6f, 0x72, 0x64, 0x00
                      05072 ; ; Starting pCode block
000548                05073 ___str_84:
000548 6553 686E 2061 05074         DB      0x53, 0x65, 0x6e, 0x68, 0x61, 0x20, 0x6e, 0x6f, 0x76, 0x61, 0x20, 0x20
       6F6E 6176 2020 
000554 2020 2020 0000 05075         DB      0x20, 0x20, 0x20, 0x20, 0x00
                      05076 ; ; Starting pCode block
00055A                05077 ___str_85:
00055A 654E 2077 6170 05078         DB      0x4e, 0x65, 0x77, 0x20, 0x70, 0x61, 0x73, 0x73, 0x77, 0x6f, 0x72, 0x64
       7373 6F77 6472 
000566 2020 2020 0000 05079         DB      0x20, 0x20, 0x20, 0x20, 0x00
                      05080 ; ; Starting pCode block
00056C                05081 ___str_86:
00056C 4120 746C 7265 05082         DB      0x20, 0x41, 0x6c, 0x74, 0x65, 0x72, 0x61, 0x72, 0x20, 0x73, 0x65, 0x6e
       7261 7320 6E65 
000578 6168 2020 0000 05083         DB      0x68, 0x61, 0x20, 0x20, 0x00
                      05084 ; ; Starting pCode block
00057E                05085 ___str_87:
00057E 5320 7465 7020 05086         DB      0x20, 0x53, 0x65, 0x74, 0x20, 0x70, 0x61, 0x73, 0x73, 0x77, 0x6f, 0x72
       7361 7773 726F 
00058A 2064 2020 0000 05087         DB      0x64, 0x20, 0x20, 0x20, 0x00
                      05088 ; ; Starting pCode block
000590                05089 ___str_88:
000590 6E49 6573 6972 05090         DB      0x49, 0x6e, 0x73, 0x65, 0x72, 0x69, 0x72, 0x20, 0x73, 0x65, 0x6e, 0x68
       2072 6573 686E 
00059C 2061 2020 0000 05091         DB      0x61, 0x20, 0x20, 0x20, 0x00
                      05092 ; ; Starting pCode block
0005A2                05093 ___str_89:
0005A2 6E49 6573 7472 05094         DB      0x49, 0x6e, 0x73, 0x65, 0x72, 0x74, 0x20, 0x70, 0x61, 0x73, 0x73, 0x77
       7020 7361 7773 
0005AE 726F 2020 0000 05095         DB      0x6f, 0x72, 0x20, 0x20, 0x00
                      05096 ; ; Starting pCode block
0005B4                05097 ___str_90:
gpasm-1.5.0 #1285 (Sep 12 2016) build/default   7-4-2017  20:27:39          PAGE 100


LOC    OBJECT CODE    LINE  SOURCE TEXT
  VALUE

0005B4 482A 6261 6C69 05098         DB      0x2a, 0x48, 0x61, 0x62, 0x69, 0x6c, 0x69, 0x74, 0x61, 0x72, 0x20, 0x20
       7469 7261 2020 
0005C0 2020 2020 0000 05099         DB      0x20, 0x20, 0x20, 0x20, 0x00
                      05100 ; ; Starting pCode block
0005C6                05101 ___str_91:
0005C6 452A 616E 6C62 05102         DB      0x2a, 0x45, 0x6e, 0x61, 0x62, 0x6c, 0x65, 0x20, 0x20, 0x20, 0x20, 0x20
       2065 2020 2020 
0005D2 2020 2020 0000 05103         DB      0x20, 0x20, 0x20, 0x20, 0x00
                      05104 ; ; Starting pCode block
0005D8                05105 ___str_92:
0005D8 4820 6261 6C69 05106         DB      0x20, 0x48, 0x61, 0x62, 0x69, 0x6c, 0x69, 0x74, 0x61, 0x72, 0x20, 0x20
       7469 7261 2020 
0005E4 2020 2020 0000 05107         DB      0x20, 0x20, 0x20, 0x20, 0x00
                      05108 ; ; Starting pCode block
0005EA                05109 ___str_93:
0005EA 4520 616E 6C62 05110         DB      0x20, 0x45, 0x6e, 0x61, 0x62, 0x6c, 0x65, 0x20, 0x20, 0x20, 0x20, 0x20
       2065 2020 2020 
0005F6 2020 2020 0000 05111         DB      0x20, 0x20, 0x20, 0x20, 0x00
                      05112 ; ; Starting pCode block
0005FC                05113 ___str_94:
0005FC 6552 6573 2074 05114         DB      0x52, 0x65, 0x73, 0x65, 0x74, 0x20, 0x64, 0x6f, 0x20, 0x73, 0x69, 0x73
       6F64 7320 7369 
000608 6574 616D 0000 05115         DB      0x74, 0x65, 0x6d, 0x61, 0x00
                      05116 ; ; Starting pCode block
00060E                05117 ___str_95:
00060E 7953 7473 6D65 05118         DB      0x53, 0x79, 0x73, 0x74, 0x65, 0x6d, 0x20, 0x72, 0x65, 0x73, 0x65, 0x74
       7220 7365 7465 
00061A 2020 2020 0000 05119         DB      0x20, 0x20, 0x20, 0x20, 0x00
                      05120 
                      05121 
                      05122 ; Statistics:
                      05123 ; code size:     9662 (0x25be) bytes ( 7.37%)
                      05124 ;                4831 (0x12df) words
                      05125 ; udata size:       4 (0x0004) bytes ( 0.31%)
                      05126 ; access size:      8 (0x0008) bytes
                      05127 
                      05128 
                      05129         end
gpasm-1.5.0 #1285 (Sep 12 2016) build/default   7-4-2017  20:27:39          PAGE 101


SYMBOL TABLE
  LABEL                              TYPE        VALUE         VALUE          VALUE
                                                 (hex)         (dec)          (text)

FSR0H                             CONSTANT      00000FEA           4074
FSR0L                             CONSTANT      00000FE9           4073
FSR1L                             CONSTANT      00000FE1           4065
FSR2L                             CONSTANT      00000FD9           4057
INDF0                             CONSTANT      00000FEF           4079
PLUSW2                            CONSTANT      00000FDB           4059
POSTDEC1                          CONSTANT      00000FE5           4069
POSTINC0                          CONSTANT      00000FEE           4078
POSTINC1                          CONSTANT      00000FE6           4070
PREINC1                           CONSTANT      00000FE4           4068
PRODL                             CONSTANT      00000FF3           4083
STATUS                            CONSTANT      00000FD8           4056
_00111_DS_                        ADDRESS       00000278            632
_00113_DS_                        ADDRESS       0000033C            828
_00115_DS_                        ADDRESS       00000372            882
_00117_DS_                        ADDRESS       000003A8            936
_00119_DS_                        ADDRESS       000003DE            990
_00121_DS_                        ADDRESS       00000414           1044
_00124_DS_                        ADDRESS       00000470           1136
_00126_DS_                        ADDRESS       000004BA           1210
_00128_DS_                        ADDRESS       000004E6           1254
_00133_DS_                        ADDRESS       0000050C           1292
_00135_DS_                        ADDRESS       00000686           1670
_00137_DS_                        ADDRESS       00000744           1860
_00141_DS_                        ADDRESS       00000770           1904
_00142_DS_                        ADDRESS       0000079A           1946
_00143_DS_                        ADDRESS       000008AE           2222
_00148_DS_                        ADDRESS       0000096C           2412
_00152_DS_                        ADDRESS       00000998           2456
_00153_DS_                        ADDRESS       000009B8           2488
_00154_DS_                        ADDRESS       00000AD4           2772
_00158_DS_                        ADDRESS       00000B92           2962
_00162_DS_                        ADDRESS       00000BBE           3006
_00164_DS_                        ADDRESS       00000C7C           3196
_00168_DS_                        ADDRESS       00000CA8           3240
_00170_DS_                        ADDRESS       00000D5C           3420
_00172_DS_                        ADDRESS       00000E1A           3610
_00176_DS_                        ADDRESS       00000E46           3654
_00177_DS_                        ADDRESS       00000E66           3686
_00178_DS_                        ADDRESS       00000FBA           4026
_00182_DS_                        ADDRESS       00001078           4216
_00186_DS_                        ADDRESS       000010A4           4260
_00187_DS_                        ADDRESS       000010C4           4292
_00188_DS_                        ADDRESS       000011F4           4596
_00192_DS_                        ADDRESS       000012A8           4776
_00194_DS_                        ADDRESS       00001366           4966
_00198_DS_                        ADDRESS       00001392           5010
_00200_DS_                        ADDRESS       00001456           5206
_00202_DS_                        ADDRESS       0000148C           5260
_00204_DS_                        ADDRESS       000014C2           5314
_00206_DS_                        ADDRESS       000014F8           5368
_00208_DS_                        ADDRESS       0000152E           5422
gpasm-1.5.0 #1285 (Sep 12 2016) build/default   7-4-2017  20:27:39          PAGE 102


SYMBOL TABLE
  LABEL                              TYPE        VALUE         VALUE          VALUE
                                                 (hex)         (dec)          (text)

_00210_DS_                        ADDRESS       00001564           5476
_00212_DS_                        ADDRESS       000015AE           5550
_00214_DS_                        ADDRESS       000015DA           5594
_00219_DS_                        ADDRESS       00001600           5632
_00221_DS_                        ADDRESS       000016C6           5830
_00223_DS_                        ADDRESS       000016FC           5884
_00225_DS_                        ADDRESS       00001732           5938
_00227_DS_                        ADDRESS       00001768           5992
_00229_DS_                        ADDRESS       0000179E           6046
_00231_DS_                        ADDRESS       000017D4           6100
_00233_DS_                        ADDRESS       00001814           6164
_00235_DS_                        ADDRESS       0000184A           6218
_00237_DS_                        ADDRESS       00001880           6272
_00239_DS_                        ADDRESS       000018B6           6326
_00241_DS_                        ADDRESS       000018EC           6380
_00244_DS_                        ADDRESS       00001948           6472
_00246_DS_                        ADDRESS       00001992           6546
_00248_DS_                        ADDRESS       000019BE           6590
_00251_DS_                        ADDRESS       000019E4           6628
_00253_DS_                        ADDRESS       00001A2A           6698
_00255_DS_                        ADDRESS       00001A56           6742
_00260_DS_                        ADDRESS       00001A7C           6780
_00262_DS_                        ADDRESS       00001ABC           6844
_00264_DS_                        ADDRESS       00001AE8           6888
_00267_DS_                        ADDRESS       00001B0E           6926
_00269_DS_                        ADDRESS       00001BCC           7116
_00273_DS_                        ADDRESS       00001BF8           7160
_00275_DS_                        ADDRESS       00001CBC           7356
_00277_DS_                        ADDRESS       00001CF2           7410
_00279_DS_                        ADDRESS       00001D28           7464
_00281_DS_                        ADDRESS       00001D5E           7518
_00283_DS_                        ADDRESS       00001D94           7572
_00286_DS_                        ADDRESS       00001DF0           7664
_00288_DS_                        ADDRESS       00001E3A           7738
_00290_DS_                        ADDRESS       00001E66           7782
_00295_DS_                        ADDRESS       00001E8C           7820
_00297_DS_                        ADDRESS       00001F4A           8010
_00301_DS_                        ADDRESS       00001F76           8054
_00303_DS_                        ADDRESS       00002034           8244
_00307_DS_                        ADDRESS       00002060           8288
_00309_DS_                        ADDRESS       00002114           8468
_00311_DS_                        ADDRESS       000021D8           8664
_00313_DS_                        ADDRESS       0000220E           8718
_00315_DS_                        ADDRESS       00002244           8772
_00317_DS_                        ADDRESS       0000227A           8826
_00319_DS_                        ADDRESS       000022B0           8880
_00321_DS_                        ADDRESS       000022E6           8934
_00323_DS_                        ADDRESS       0000233A           9018
_00325_DS_                        ADDRESS       00002366           9062
_00328_DS_                        ADDRESS       0000238C           9100
_00330_DS_                        ADDRESS       000023C8           9160
_00332_DS_                        ADDRESS       000023F4           9204
gpasm-1.5.0 #1285 (Sep 12 2016) build/default   7-4-2017  20:27:39          PAGE 103


SYMBOL TABLE
  LABEL                              TYPE        VALUE         VALUE          VALUE
                                                 (hex)         (dec)          (text)

_00338_DS_                        ADDRESS       00000452           1106
_00340_DS_                        ADDRESS       000004EE           1262
_00342_DS_                        ADDRESS       000015E2           5602
_00344_DS_                        ADDRESS       0000192A           6442
_00346_DS_                        ADDRESS       000019C6           6598
_00348_DS_                        ADDRESS       00001A5E           6750
_00350_DS_                        ADDRESS       00001AF0           6896
_00352_DS_                        ADDRESS       00001DD2           7634
_00354_DS_                        ADDRESS       00001E6E           7790
_00356_DS_                        ADDRESS       0000236E           9070
_00358_DS_                        ADDRESS       000023FC           9212
_00360_DS_                        ADDRESS       0000241A           9242
_00722_DS_                        ADDRESS       00000282            642
_00723_DS_                        ADDRESS       00000284            644
_00724_DS_                        ADDRESS       00000350            848
_00725_DS_                        ADDRESS       00000352            850
_00726_DS_                        ADDRESS       00000386            902
_00727_DS_                        ADDRESS       00000388            904
_00728_DS_                        ADDRESS       000003BC            956
_00729_DS_                        ADDRESS       000003BE            958
_00730_DS_                        ADDRESS       000003F2           1010
_00731_DS_                        ADDRESS       000003F4           1012
_00732_DS_                        ADDRESS       00000428           1064
_00733_DS_                        ADDRESS       0000042A           1066
_00734_DS_                        ADDRESS       0000046E           1134
_00735_DS_                        ADDRESS       00000484           1156
_00736_DS_                        ADDRESS       00000486           1158
_00739_DS_                        ADDRESS       0000050A           1290
_00740_DS_                        ADDRESS       00000516           1302
_00741_DS_                        ADDRESS       00000518           1304
_00742_DS_                        ADDRESS       00000690           1680
_00743_DS_                        ADDRESS       00000692           1682
_00747_DS_                        ADDRESS       0000077A           1914
_00749_DS_                        ADDRESS       00000784           1924
_00751_DS_                        ADDRESS       0000078E           1934
_00752_DS_                        ADDRESS       00000798           1944
_00754_DS_                        ADDRESS       000008B8           2232
_00755_DS_                        ADDRESS       000008BA           2234
_00759_DS_                        ADDRESS       000009A2           2466
_00761_DS_                        ADDRESS       000009AC           2476
_00762_DS_                        ADDRESS       000009B6           2486
_00764_DS_                        ADDRESS       00000ADE           2782
_00765_DS_                        ADDRESS       00000AE0           2784
_00768_DS_                        ADDRESS       00000BC8           3016
_00769_DS_                        ADDRESS       00000BCA           3018
_00772_DS_                        ADDRESS       00000CB2           3250
_00773_DS_                        ADDRESS       00000CB4           3252
_00774_DS_                        ADDRESS       00000D66           3430
_00775_DS_                        ADDRESS       00000D68           3432
_00779_DS_                        ADDRESS       00000E50           3664
_00781_DS_                        ADDRESS       00000E5A           3674
_00782_DS_                        ADDRESS       00000E64           3684
gpasm-1.5.0 #1285 (Sep 12 2016) build/default   7-4-2017  20:27:39          PAGE 104


SYMBOL TABLE
  LABEL                              TYPE        VALUE         VALUE          VALUE
                                                 (hex)         (dec)          (text)

_00784_DS_                        ADDRESS       00000FC4           4036
_00785_DS_                        ADDRESS       00000FC6           4038
_00789_DS_                        ADDRESS       000010AE           4270
_00791_DS_                        ADDRESS       000010B8           4280
_00792_DS_                        ADDRESS       000010C2           4290
_00794_DS_                        ADDRESS       000011FE           4606
_00795_DS_                        ADDRESS       00001200           4608
_00796_DS_                        ADDRESS       000012B2           4786
_00797_DS_                        ADDRESS       000012B4           4788
_00800_DS_                        ADDRESS       0000139C           5020
_00801_DS_                        ADDRESS       0000139E           5022
_00802_DS_                        ADDRESS       0000146A           5226
_00803_DS_                        ADDRESS       0000146C           5228
_00804_DS_                        ADDRESS       000014A0           5280
_00805_DS_                        ADDRESS       000014A2           5282
_00806_DS_                        ADDRESS       000014D6           5334
_00807_DS_                        ADDRESS       000014D8           5336
_00808_DS_                        ADDRESS       0000150C           5388
_00809_DS_                        ADDRESS       0000150E           5390
_00810_DS_                        ADDRESS       00001542           5442
_00811_DS_                        ADDRESS       00001544           5444
_00812_DS_                        ADDRESS       00001578           5496
_00813_DS_                        ADDRESS       0000157A           5498
_00816_DS_                        ADDRESS       000015FE           5630
_00817_DS_                        ADDRESS       0000160A           5642
_00818_DS_                        ADDRESS       0000160E           5646
_00819_DS_                        ADDRESS       000016DA           5850
_00820_DS_                        ADDRESS       000016DC           5852
_00821_DS_                        ADDRESS       00001710           5904
_00822_DS_                        ADDRESS       00001712           5906
_00823_DS_                        ADDRESS       00001746           5958
_00824_DS_                        ADDRESS       00001748           5960
_00825_DS_                        ADDRESS       0000177C           6012
_00826_DS_                        ADDRESS       0000177E           6014
_00827_DS_                        ADDRESS       000017B2           6066
_00828_DS_                        ADDRESS       000017B4           6068
_00829_DS_                        ADDRESS       000017F2           6130
_00830_DS_                        ADDRESS       000017F4           6132
_00831_DS_                        ADDRESS       00001828           6184
_00832_DS_                        ADDRESS       0000182A           6186
_00833_DS_                        ADDRESS       0000185E           6238
_00834_DS_                        ADDRESS       00001860           6240
_00835_DS_                        ADDRESS       00001894           6292
_00836_DS_                        ADDRESS       00001896           6294
_00837_DS_                        ADDRESS       000018CA           6346
_00838_DS_                        ADDRESS       000018CC           6348
_00839_DS_                        ADDRESS       00001900           6400
_00840_DS_                        ADDRESS       00001902           6402
_00841_DS_                        ADDRESS       00001946           6470
_00842_DS_                        ADDRESS       0000195C           6492
_00843_DS_                        ADDRESS       0000195E           6494
_00846_DS_                        ADDRESS       000019E2           6626
gpasm-1.5.0 #1285 (Sep 12 2016) build/default   7-4-2017  20:27:39          PAGE 105


SYMBOL TABLE
  LABEL                              TYPE        VALUE         VALUE          VALUE
                                                 (hex)         (dec)          (text)

_00849_DS_                        ADDRESS       00001A7A           6778
_00850_DS_                        ADDRESS       00001A86           6790
_00851_DS_                        ADDRESS       00001A88           6792
_00854_DS_                        ADDRESS       00001B0C           6924
_00855_DS_                        ADDRESS       00001B18           6936
_00856_DS_                        ADDRESS       00001B1A           6938
_00859_DS_                        ADDRESS       00001C02           7170
_00860_DS_                        ADDRESS       00001C04           7172
_00861_DS_                        ADDRESS       00001CD0           7376
_00862_DS_                        ADDRESS       00001CD2           7378
_00863_DS_                        ADDRESS       00001D06           7430
_00864_DS_                        ADDRESS       00001D08           7432
_00865_DS_                        ADDRESS       00001D3C           7484
_00866_DS_                        ADDRESS       00001D3E           7486
_00867_DS_                        ADDRESS       00001D72           7538
_00868_DS_                        ADDRESS       00001D74           7540
_00869_DS_                        ADDRESS       00001DA8           7592
_00870_DS_                        ADDRESS       00001DAA           7594
_00871_DS_                        ADDRESS       00001DEE           7662
_00872_DS_                        ADDRESS       00001E04           7684
_00873_DS_                        ADDRESS       00001E06           7686
_00876_DS_                        ADDRESS       00001E8A           7818
_00877_DS_                        ADDRESS       00001E96           7830
_00878_DS_                        ADDRESS       00001E98           7832
_00881_DS_                        ADDRESS       00001F80           8064
_00882_DS_                        ADDRESS       00001F82           8066
_00885_DS_                        ADDRESS       0000206A           8298
_00886_DS_                        ADDRESS       0000206C           8300
_00887_DS_                        ADDRESS       0000211E           8478
_00888_DS_                        ADDRESS       00002120           8480
_00889_DS_                        ADDRESS       000021EC           8684
_00890_DS_                        ADDRESS       000021EE           8686
_00891_DS_                        ADDRESS       00002222           8738
_00892_DS_                        ADDRESS       00002224           8740
_00893_DS_                        ADDRESS       00002258           8792
_00894_DS_                        ADDRESS       0000225A           8794
_00895_DS_                        ADDRESS       0000228E           8846
_00896_DS_                        ADDRESS       00002290           8848
_00897_DS_                        ADDRESS       000022C4           8900
_00898_DS_                        ADDRESS       000022C6           8902
_00899_DS_                        ADDRESS       00002304           8964
_00900_DS_                        ADDRESS       00002306           8966
_00903_DS_                        ADDRESS       0000238A           9098
_00906_DS_                        ADDRESS       00002418           9240
_10110_DS_                        ADDRESS       00000460           1120
_20111_DS_                        ADDRESS       000004FC           1276
_30112_DS_                        ADDRESS       000015F0           5616
_40113_DS_                        ADDRESS       00001938           6456
_50114_DS_                        ADDRESS       000019D4           6612
_60115_DS_                        ADDRESS       00001A6C           6764
_70116_DS_                        ADDRESS       00001AFE           6910
_80117_DS_                        ADDRESS       00001DE0           7648
gpasm-1.5.0 #1285 (Sep 12 2016) build/default   7-4-2017  20:27:39          PAGE 106


SYMBOL TABLE
  LABEL                              TYPE        VALUE         VALUE          VALUE
                                                 (hex)         (dec)          (text)

_90118_DS_                        ADDRESS       00001E7C           7804
_100119_DS_                       ADDRESS       0000237C           9084
_110120_DS_                       ADDRESS       0000240A           9226
_ADread                           GLOBAL        00000000              0
_Delay2ms                         EXTERNAL      00000000              0
__16_BIT                          CONSTANT      00000001              1
__18F4520                         CONSTANT      00000001              1
__ACC_RAM_LOW_END                 CONSTANT      0000007F            127
__ACC_RAM_LOW_START               CONSTANT      00000000              0
__ACTIVE_BANK_ADDR                VARIABLE      FFFFFFFF             -1
__ASSUMED_BANK_ADDR               VARIABLE      FFFFFFFF             -1
__BANK_0                          CONSTANT      00000000              0
__BANK_1                          CONSTANT      00000100            256
__BANK_2                          CONSTANT      00000200            512
__BANK_3                          CONSTANT      00000300            768
__BANK_4                          CONSTANT      00000400           1024
__BANK_5                          CONSTANT      00000500           1280
__BANK_6                          CONSTANT      00000600           1536
__BANK_7                          CONSTANT      00000700           1792
__BANK_8                          CONSTANT      00000800           2048
__BANK_9                          CONSTANT      00000900           2304
__BANK_10                         CONSTANT      00000A00           2560
__BANK_11                         CONSTANT      00000B00           2816
__BANK_12                         CONSTANT      00000C00           3072
__BANK_13                         CONSTANT      00000D00           3328
__BANK_14                         CONSTANT      00000E00           3584
__BANK_15                         CONSTANT      00000F00           3840
__BANK_BITS                       CONSTANT      00000F00           3840
__BANK_FIRST                      CONSTANT      00000000              0
__BANK_INV                        CONSTANT      FFFFFFFF             -1
__BANK_LAST                       CONSTANT      00000F00           3840
__BANK_MASK                       CONSTANT      000000FF            255
__BANK_SHIFT                      CONSTANT      00000008              8
__BANK_SIZE                       CONSTANT      00000100            256
__CODE_END                        CONSTANT      00007FFF          32767
__CODE_START                      CONSTANT      00000000              0
__COMMON_RAM_END                  CONSTANT      0000007F            127
__COMMON_RAM_START                CONSTANT      00000000              0
__CONFIG_END                      CONSTANT      0030000D        3145741
__CONFIG_START                    CONSTANT      00300000        3145728
__EEPROM_END                      CONSTANT      00F000FF       15728895
__EEPROM_START                    CONSTANT      00F00000       15728640
__EXTENDED                        CONSTANT      00000001              1
__GPUTILS_SVN_VERSION             CONSTANT      00000505           1285
__GPUTILS_VERSION_MAJOR           CONSTANT      00000001              1
__GPUTILS_VERSION_MICRO           CONSTANT      00000000              0
__GPUTILS_VERSION_MINOR           CONSTANT      00000005              5
__IDLOCS_END                      CONSTANT      00200007        2097159
__IDLOCS_START                    CONSTANT      00200000        2097152
__NUM_BANKS                       CONSTANT      00000010             16
__VECTOR_INT_HIGH                 CONSTANT      00000008              8
__VECTOR_INT_LOW                  CONSTANT      00000018             24
gpasm-1.5.0 #1285 (Sep 12 2016) build/default   7-4-2017  20:27:39          PAGE 107


SYMBOL TABLE
  LABEL                              TYPE        VALUE         VALUE          VALUE
                                                 (hex)         (dec)          (text)

__VECTOR_RESET                    CONSTANT      00000000              0
__WHILE_LOOP_COUNT_MAX            CONSTANT      000000FF            255
___str_0                          ADDRESS       0000001C             28
___str_1                          ADDRESS       0000001E             30
___str_2                          ADDRESS       00000024             36
___str_3                          ADDRESS       00000026             38
___str_4                          ADDRESS       0000002A             42
___str_5                          ADDRESS       0000002C             44
___str_6                          ADDRESS       0000003E             62
___str_7                          ADDRESS       00000050             80
___str_8                          ADDRESS       00000062             98
___str_9                          ADDRESS       00000072            114
___str_10                         ADDRESS       00000082            130
___str_11                         ADDRESS       00000092            146
___str_12                         ADDRESS       000000A4            164
___str_13                         ADDRESS       000000B6            182
___str_14                         ADDRESS       000000BC            188
___str_15                         ADDRESS       000000BE            190
___str_16                         ADDRESS       000000C2            194
___str_17                         ADDRESS       000000C6            198
___str_18                         ADDRESS       000000D8            216
___str_19                         ADDRESS       000000EA            234
___str_20                         ADDRESS       000000F2            242
___str_21                         ADDRESS       00000104            260
___str_22                         ADDRESS       00000116            278
___str_23                         ADDRESS       0000011E            286
___str_24                         ADDRESS       00000130            304
___str_25                         ADDRESS       00000142            322
___str_26                         ADDRESS       00000154            340
___str_27                         ADDRESS       00000166            358
___str_28                         ADDRESS       00000178            376
___str_29                         ADDRESS       0000018A            394
___str_30                         ADDRESS       00000194            404
___str_31                         ADDRESS       000001A6            422
___str_32                         ADDRESS       000001B8            440
___str_33                         ADDRESS       000001C2            450
___str_34                         ADDRESS       000001D4            468
___str_35                         ADDRESS       000001E6            486
___str_36                         ADDRESS       000001F8            504
___str_37                         ADDRESS       0000020A            522
___str_38                         ADDRESS       0000021C            540
___str_39                         ADDRESS       0000022E            558
___str_40                         ADDRESS       00000240            576
___str_41                         ADDRESS       00000252            594
___str_42                         ADDRESS       00000264            612
___str_43                         ADDRESS       00000276            630
___str_44                         ADDRESS       00000288            648
___str_45                         ADDRESS       0000029A            666
___str_46                         ADDRESS       000002AC            684
___str_47                         ADDRESS       000002BE            702
___str_48                         ADDRESS       000002D0            720
___str_49                         ADDRESS       000002E2            738
gpasm-1.5.0 #1285 (Sep 12 2016) build/default   7-4-2017  20:27:39          PAGE 108


SYMBOL TABLE
  LABEL                              TYPE        VALUE         VALUE          VALUE
                                                 (hex)         (dec)          (text)

___str_50                         ADDRESS       000002F4            756
___str_51                         ADDRESS       000002FE            766
___str_52                         ADDRESS       00000308            776
___str_53                         ADDRESS       0000031A            794
___str_54                         ADDRESS       0000032C            812
___str_55                         ADDRESS       0000033E            830
___str_56                         ADDRESS       00000350            848
___str_57                         ADDRESS       00000362            866
___str_58                         ADDRESS       00000374            884
___str_59                         ADDRESS       00000386            902
___str_60                         ADDRESS       00000398            920
___str_61                         ADDRESS       000003AA            938
___str_62                         ADDRESS       000003BC            956
___str_63                         ADDRESS       000003CE            974
___str_64                         ADDRESS       000003E0            992
___str_65                         ADDRESS       000003F2           1010
___str_66                         ADDRESS       00000404           1028
___str_67                         ADDRESS       00000416           1046
___str_68                         ADDRESS       00000428           1064
___str_69                         ADDRESS       0000043A           1082
___str_70                         ADDRESS       0000044C           1100
___str_71                         ADDRESS       0000045E           1118
___str_72                         ADDRESS       00000470           1136
___str_73                         ADDRESS       00000482           1154
___str_74                         ADDRESS       00000494           1172
___str_75                         ADDRESS       000004A6           1190
___str_76                         ADDRESS       000004B8           1208
___str_77                         ADDRESS       000004CA           1226
___str_78                         ADDRESS       000004DC           1244
___str_79                         ADDRESS       000004EE           1262
___str_80                         ADDRESS       00000500           1280
___str_81                         ADDRESS       00000512           1298
___str_82                         ADDRESS       00000524           1316
___str_83                         ADDRESS       00000536           1334
___str_84                         ADDRESS       00000548           1352
___str_85                         ADDRESS       0000055A           1370
___str_86                         ADDRESS       0000056C           1388
___str_87                         ADDRESS       0000057E           1406
___str_88                         ADDRESS       00000590           1424
___str_89                         ADDRESS       000005A2           1442
___str_90                         ADDRESS       000005B4           1460
___str_91                         ADDRESS       000005C6           1478
___str_92                         ADDRESS       000005D8           1496
___str_93                         ADDRESS       000005EA           1514
___str_94                         ADDRESS       000005FC           1532
___str_95                         ADDRESS       0000060E           1550
__mulint                          EXTERNAL      00000000              0
_getAlarmLevel                    EXTERNAL      00000000              0
_getLanguage                      EXTERNAL      00000000              0
_getMult                          EXTERNAL      00000000              0
_getPeriodo                       EXTERNAL      00000000              0
_getSenha_i                       EXTERNAL      00000000              0
gpasm-1.5.0 #1285 (Sep 12 2016) build/default   7-4-2017  20:27:39          PAGE 109


SYMBOL TABLE
  LABEL                              TYPE        VALUE         VALUE          VALUE
                                                 (hex)         (dec)          (text)

_getSenha_try                     EXTERNAL      00000000              0
_getTestResult                    EXTERNAL      00000000              0
_getTime                          EXTERNAL      00000000              0
_i                                GLOBAL        00000000              0
_lcdCommand                       EXTERNAL      00000000              0
_lcdInit                          EXTERNAL      00000000              0
_lcdInt                           EXTERNAL      00000000              0
_lcdString                        EXTERNAL      00000000              0
_msgs                             STATIC        00000000              0
_outputInit                       GLOBAL        00000000              0
_outputPrint                      GLOBAL        00000000              0
r0x00                             STATIC        00000000              0
r0x01                             STATIC        00000001              1
r0x02                             STATIC        00000002              2
r0x03                             STATIC        00000003              3
r0x04                             STATIC        00000004              4
r0x05                             STATIC        00000005              5
r0x06                             STATIC        00000006              6
r0x07                             STATIC        00000007              7

Errors   :     0
Warnings :     0 reported,     0 suppressed
Messages :     0 reported,     0 suppressed

