gpasm-1.5.0 #1285 (Sep 12 2016) build/default   7-4-2017  20:24:41          PAGE  1


LOC    OBJECT CODE    LINE  SOURCE TEXT
  VALUE

                      00001 ;--------------------------------------------------------
                      00002 ; File Created by SDCC : free open source ANSI-C Compiler
                      00003 ; Version 3.6.0 #9615 (MINGW64)
                      00004 ;--------------------------------------------------------
                      00005 ; PIC16 port for the Microchip 16-bit core micros
                      00006 ;--------------------------------------------------------
                      00007         list    p=18f4520
                      00008         radix   dec
                      00009 
                      00010 
                      00011 ;--------------------------------------------------------
                      00012 ; public variables in this module
                      00013 ;--------------------------------------------------------
  0000                00014         global  _smInit
  0000                00015         global  _getPeriodo
  0000                00016         global  _smLoop
  0000                00017         global  _changeEvento
                      00018 
                      00019 ;--------------------------------------------------------
                      00020 ; extern variables in this module
                      00021 ;--------------------------------------------------------
  0000                00022         extern  _varInit
  0000                00023         extern  _getState
  0000                00024         extern  _setState
  0000                00025         extern  _getTime
  0000                00026         extern  _setTime
  0000                00027         extern  _getMult
  0000                00028         extern  _setMult
  0000                00029         extern  _getAlarmLevel
  0000                00030         extern  _setAlarmLevel
  0000                00031         extern  _getLanguage
  0000                00032         extern  _setLanguage
  0000                00033         extern  _getSenhaStatus
  0000                00034         extern  _enableSenha
  0000                00035         extern  _getSenha_i
  0000                00036         extern  _getSenha_try
  0000                00037         extern  _getTestResult
  0000                00038         extern  _setTestResult
  0000                00039         extern  _testSenha
  0000                00040         extern  _setSenha
  0000                00041         extern  _eventRead
  0000                00042         extern  _outputPrint
  0000                00043         extern  _rtcGetMinutes
  0000                00044         extern  _rtcGetHours
  0000                00045         extern  _rtcGetDate
  0000                00046         extern  _rtcGetMonth
  0000                00047         extern  _rtcGetYear
  0000                00048         extern  _rtcPutMinutes
  0000                00049         extern  _rtcPutHours
  0000                00050         extern  _rtcPutDate
  0000                00051         extern  _rtcPutMonth
  0000                00052         extern  _rtcPutYear
  0000                00053         extern  __mulint
gpasm-1.5.0 #1285 (Sep 12 2016) build/default   7-4-2017  20:24:41          PAGE  2


LOC    OBJECT CODE    LINE  SOURCE TEXT
  VALUE

  0000                00054         extern  __divsint
  0000                00055         extern  __modsint
                      00056 
                      00057 ;--------------------------------------------------------
                      00058 ;       Equates to used internal registers
                      00059 ;--------------------------------------------------------
  00000FD8            00060 STATUS  equ     0xfd8
  00000FF9            00061 PCL     equ     0xff9
  00000FFA            00062 PCLATH  equ     0xffa
  00000FFB            00063 PCLATU  equ     0xffb
  00000FE8            00064 WREG    equ     0xfe8
  00000FE1            00065 FSR1L   equ     0xfe1
  00000FD9            00066 FSR2L   equ     0xfd9
  00000FE6            00067 POSTINC1        equ     0xfe6
  00000FE5            00068 POSTDEC1        equ     0xfe5
  00000FE4            00069 PREINC1 equ     0xfe4
  00000FDB            00070 PLUSW2  equ     0xfdb
  00000FF3            00071 PRODL   equ     0xff3
                      00072 
                      00073 
                      00074 ; Internal registers
                      00075 .registers      udata_ovr       0x0000
000000                00076 r0x00   res     1
000001                00077 r0x01   res     1
000002                00078 r0x02   res     1
000003                00079 r0x03   res     1
000004                00080 r0x04   res     1
                      00081 
                      00082 udata_stateMachine_0    udata
000000                00083 _senha  res     1
                      00084 
                      00085 udata_stateMachine_1    udata
000000                00086 _hora   res     1
                      00087 
                      00088 udata_stateMachine_2    udata
000000                00089 _min    res     1
                      00090 
                      00091 udata_stateMachine_3    udata
000000                00092 _dia    res     1
                      00093 
                      00094 udata_stateMachine_4    udata
000000                00095 _mes    res     1
                      00096 
                      00097 udata_stateMachine_5    udata
000000                00098 _ano    res     1
                      00099 
                      00100 ;--------------------------------------------------------
                      00101 ; global & static initialisations
                      00102 ;--------------------------------------------------------
                      00103 ; I code from now on!
                      00104 ; ; Starting pCode block
                      00105 S_stateMachine__smLoop  code
000000                00106 _smLoop:
gpasm-1.5.0 #1285 (Sep 12 2016) build/default   7-4-2017  20:24:41          PAGE  3


LOC    OBJECT CODE    LINE  SOURCE TEXT
  VALUE

                      00107 ;       .line   56; stateMachine.c      void smLoop(void) {
000000 CFD9 FFE5      00108         MOVFF   FSR2L, POSTDEC1
000004 CFE1 FFD9      00109         MOVFF   FSR1L, FSR2L
000008 C??? F???      00110         MOVFF   r0x00, POSTDEC1
00000C C??? F???      00111         MOVFF   r0x01, POSTDEC1
000010 C??? F???      00112         MOVFF   r0x02, POSTDEC1
000014 C??? F???      00113         MOVFF   r0x03, POSTDEC1
000018 C??? F???      00114         MOVFF   r0x04, POSTDEC1
                      00115 ;       .line   60; stateMachine.c      evento = eventRead();
00001C EC?? F0??      00116         CALL    _eventRead
000020 6E??           00117         MOVWF   r0x00
000022 CFF3 F000      00118         MOVFF   PRODL, r0x01
                      00119 ;       .line   61; stateMachine.c      changeEvento(evento); //atribui um valor para cara evento(usado 
                            pela senha))
000026 50??           00120         MOVF    r0x00, W
000028 6EE5           00121         MOVWF   POSTDEC1
00002A EC?? F0??      00122         CALL    _changeEvento
00002E 52E6           00123         MOVF    POSTINC1, F
                      00124 ;       .line   63; stateMachine.c      switch (getState()) {
000030 EC?? F0??      00125         CALL    _getState
000034 6E??           00126         MOVWF   r0x01
000036 0E22           00127         MOVLW   0x22
000038 5C??           00128         SUBWF   r0x01, W
00003A B0D8           00129         BTFSC   STATUS, 0
00003C EF?? F0??      00130         GOTO    _00535_DS_
000040 6AFA           00131         CLRF    PCLATH
000042 6AFB           00132         CLRF    PCLATU
000044 34??           00133         RLCF    r0x01, W
000046 36FA           00134         RLCF    PCLATH, F
000048 34E8           00135         RLCF    WREG, W
00004A 36FA           00136         RLCF    PCLATH, F
00004C 0BFC           00137         ANDLW   0xfc
00004E 0F??           00138         ADDLW   LOW(_01007_DS_)
000050 6EE5           00139         MOVWF   POSTDEC1
000052 0E??           00140         MOVLW   HIGH(_01007_DS_)
000054 22FA           00141         ADDWFC  PCLATH, F
000056 0E??           00142         MOVLW   UPPER(_01007_DS_)
000058 22FB           00143         ADDWFC  PCLATU, F
00005A 50E4           00144         MOVF    PREINC1, W
00005C 6EF9           00145         MOVWF   PCL
00005E                00146 _01007_DS_:
00005E EF?? F0??      00147         GOTO    _00190_DS_
000062 EF?? F0??      00148         GOTO    _00193_DS_
000066 EF?? F0??      00149         GOTO    _00199_DS_
00006A EF?? F0??      00150         GOTO    _00209_DS_
00006E EF?? F0??      00151         GOTO    _00218_DS_
000072 EF?? F0??      00152         GOTO    _00232_DS_
000076 EF?? F0??      00153         GOTO    _00246_DS_
00007A EF?? F0??      00154         GOTO    _00260_DS_
00007E EF?? F0??      00155         GOTO    _00274_DS_
000082 EF?? F0??      00156         GOTO    _00283_DS_
000086 EF?? F0??      00157         GOTO    _00294_DS_
00008A EF?? F0??      00158         GOTO    _00305_DS_
gpasm-1.5.0 #1285 (Sep 12 2016) build/default   7-4-2017  20:24:41          PAGE  4


LOC    OBJECT CODE    LINE  SOURCE TEXT
  VALUE

00008E EF?? F0??      00159         GOTO    _00318_DS_
000092 EF?? F0??      00160         GOTO    _00328_DS_
000096 EF?? F0??      00161         GOTO    _00335_DS_
00009A EF?? F0??      00162         GOTO    _00345_DS_
00009E EF?? F0??      00163         GOTO    _00354_DS_
0000A2 EF?? F0??      00164         GOTO    _00367_DS_
0000A6 EF?? F0??      00165         GOTO    _00382_DS_
0000AA EF?? F0??      00166         GOTO    _00395_DS_
0000AE EF?? F0??      00167         GOTO    _00404_DS_
0000B2 EF?? F0??      00168         GOTO    _00419_DS_
0000B6 EF?? F0??      00169         GOTO    _00434_DS_
0000BA EF?? F0??      00170         GOTO    _00449_DS_
0000BE EF?? F0??      00171         GOTO    _00459_DS_
0000C2 EF?? F0??      00172         GOTO    _00468_DS_
0000C6 EF?? F0??      00173         GOTO    _00473_DS_
0000CA EF?? F0??      00174         GOTO    _00488_DS_
0000CE EF?? F0??      00175         GOTO    _00497_DS_
0000D2 EF?? F0??      00176         GOTO    _00502_DS_
0000D6 EF?? F0??      00177         GOTO    _00511_DS_
0000DA EF?? F0??      00178         GOTO    _00520_DS_
0000DE EF?? F0??      00179         GOTO    _00530_DS_
0000E2 EF?? F0??      00180         GOTO    _00487_DS_
0000E6                00181 _00190_DS_:
                      00182 ;       .line   65; stateMachine.c      hora = rtcGetHours();
0000E6 EC?? F0??      00183         CALL    _rtcGetHours
0000EA 010?           00184         BANKSEL _hora
0000EC 6F??           00185         MOVWF   _hora, B
                      00186 ;       .line   66; stateMachine.c      min = rtcGetMinutes();
0000EE EC?? F0??      00187         CALL    _rtcGetMinutes
0000F2 010?           00188         BANKSEL _min
0000F4 6F??           00189         MOVWF   _min, B
                      00190 ;       .line   67; stateMachine.c      dia = rtcGetDate();
0000F6 EC?? F0??      00191         CALL    _rtcGetDate
0000FA 010?           00192         BANKSEL _dia
0000FC 6F??           00193         MOVWF   _dia, B
                      00194 ;       .line   68; stateMachine.c      mes = rtcGetMonth();
0000FE EC?? F0??      00195         CALL    _rtcGetMonth
000102 010?           00196         BANKSEL _mes
000104 6F??           00197         MOVWF   _mes, B
                      00198 ;       .line   69; stateMachine.c      ano = rtcGetYear();
000106 EC?? F0??      00199         CALL    _rtcGetYear
00010A 010?           00200         BANKSEL _ano
00010C 6F??           00201         MOVWF   _ano, B
                      00202 ;       .line   71; stateMachine.c      if (evento == EV_ENTER) {
00010E 50??           00203         MOVF    r0x00, W
000110 0A04           00204         XORLW   0x04
000112 E0??           00205         BZ      _01009_DS_
000114 EF?? F0??      00206         GOTO    _00535_DS_
000118                00207 _01009_DS_:
                      00208 ;       .line   72; stateMachine.c      setState(SECURITY_CONFIG);
000118 0E01           00209         MOVLW   0x01
00011A 6EE5           00210         MOVWF   POSTDEC1
00011C EC?? F0??      00211         CALL    _setState
gpasm-1.5.0 #1285 (Sep 12 2016) build/default   7-4-2017  20:24:41          PAGE  5


LOC    OBJECT CODE    LINE  SOURCE TEXT
  VALUE

000120 52E6           00212         MOVF    POSTINC1, F
                      00213 ;       .line   75; stateMachine.c      break;
000122 EF?? F0??      00214         GOTO    _00535_DS_
000126                00215 _00193_DS_:
                      00216 ;       .line   82; stateMachine.c      if(getSenha_try() == 3){
000126 EC?? F0??      00217         CALL    _getSenha_try
00012A 6E??           00218         MOVWF   r0x01
00012C CFF3 F000      00219         MOVFF   PRODL, r0x02
000130 50??           00220         MOVF    r0x01, W
000132 0A03           00221         XORLW   0x03
000134 E1??           00222         BNZ     _01010_DS_
000136 50??           00223         MOVF    r0x02, W
000138 E0??           00224         BZ      _01011_DS_
00013A                00225 _01010_DS_:
00013A D???           00226         BRA     _00195_DS_
00013C                00227 _01011_DS_:
                      00228 ;       .line   83; stateMachine.c      setState(STATE_OP);
00013C 0E00           00229         MOVLW   0x00
00013E 6EE5           00230         MOVWF   POSTDEC1
000140 EC?? F0??      00231         CALL    _setState
000144 52E6           00232         MOVF    POSTINC1, F
000146                00233 _00195_DS_:
                      00234 ;       .line   85; stateMachine.c      if (!getSenhaStatus() || testSenha(senha) == 1) {
000146 EC?? F0??      00235         CALL    _getSenhaStatus
00014A 6E??           00236         MOVWF   r0x01
00014C CFF3 F000      00237         MOVFF   PRODL, r0x02
000150 50??           00238         MOVF    r0x01, W
000152 10??           00239         IORWF   r0x02, W
000154 E0??           00240         BZ      _00196_DS_
000156 010?           00241         BANKSEL _senha
000158 51??           00242         MOVF    _senha, W, B
00015A 6EE5           00243         MOVWF   POSTDEC1
00015C EC?? F0??      00244         CALL    _testSenha
000160 6E??           00245         MOVWF   r0x01
000162 CFF3 F000      00246         MOVFF   PRODL, r0x02
000166 52E6           00247         MOVF    POSTINC1, F
000168 50??           00248         MOVF    r0x01, W
00016A 0A01           00249         XORLW   0x01
00016C E1??           00250         BNZ     _01012_DS_
00016E 50??           00251         MOVF    r0x02, W
000170 E0??           00252         BZ      _00196_DS_
000172                00253 _01012_DS_:
000172 EF?? F0??      00254         GOTO    _00535_DS_
000176                00255 _00196_DS_:
                      00256 ;       .line   86; stateMachine.c      outputPrint(getState(), getLanguage());
000176 EC?? F0??      00257         CALL    _getState
00017A 6E??           00258         MOVWF   r0x01
00017C 6A??           00259         CLRF    r0x02
00017E EC?? F0??      00260         CALL    _getLanguage
000182 6E??           00261         MOVWF   r0x03
000184 6A??           00262         CLRF    r0x04
000186 50??           00263         MOVF    r0x04, W
000188 6EE5           00264         MOVWF   POSTDEC1
gpasm-1.5.0 #1285 (Sep 12 2016) build/default   7-4-2017  20:24:41          PAGE  6


LOC    OBJECT CODE    LINE  SOURCE TEXT
  VALUE

00018A 50??           00265         MOVF    r0x03, W
00018C 6EE5           00266         MOVWF   POSTDEC1
00018E 50??           00267         MOVF    r0x02, W
000190 6EE5           00268         MOVWF   POSTDEC1
000192 50??           00269         MOVF    r0x01, W
000194 6EE5           00270         MOVWF   POSTDEC1
000196 EC?? F0??      00271         CALL    _outputPrint
00019A 0E04           00272         MOVLW   0x04
00019C 26E1           00273         ADDWF   FSR1L, F
                      00274 ;       .line   87; stateMachine.c      setState(STATE_ALARME);    
00019E 0E02           00275         MOVLW   0x02
0001A0 6EE5           00276         MOVWF   POSTDEC1
0001A2 EC?? F0??      00277         CALL    _setState
0001A6 52E6           00278         MOVF    POSTINC1, F
                      00279 ;       .line   90; stateMachine.c      break;    
0001A8 EF?? F0??      00280         GOTO    _00535_DS_
0001AC                00281 _00199_DS_:
                      00282 ;       .line   94; stateMachine.c      if (evento == EV_ENTER) {
0001AC 50??           00283         MOVF    r0x00, W
0001AE 0A04           00284         XORLW   0x04
0001B0 E1??           00285         BNZ     _00201_DS_
                      00286 ;       .line   95; stateMachine.c      setState(CONFIG_ALARME);
0001B2 0E03           00287         MOVLW   0x03
0001B4 6EE5           00288         MOVWF   POSTDEC1
0001B6 EC?? F0??      00289         CALL    _setState
0001BA 52E6           00290         MOVF    POSTINC1, F
0001BC                00291 _00201_DS_:
                      00292 ;       .line   97; stateMachine.c      if (evento == EV_LEFT || evento == EV_RIGHT) {
0001BC 50??           00293         MOVF    r0x00, W
0001BE 0A02           00294         XORLW   0x02
0001C0 E0??           00295         BZ      _00202_DS_
0001C2 50??           00296         MOVF    r0x00, W
0001C4 0A03           00297         XORLW   0x03
0001C6 E1??           00298         BNZ     _00203_DS_
0001C8                00299 _00202_DS_:
                      00300 ;       .line   98; stateMachine.c      setState(STATE_OP);
0001C8 0E00           00301         MOVLW   0x00
0001CA 6EE5           00302         MOVWF   POSTDEC1
0001CC EC?? F0??      00303         CALL    _setState
0001D0 52E6           00304         MOVF    POSTINC1, F
0001D2                00305 _00203_DS_:
                      00306 ;       .line   100; stateMachine.c     if (evento == EV_DOWN) {
0001D2 50??           00307         MOVF    r0x00, W
0001D4 0A01           00308         XORLW   0x01
0001D6 E1??           00309         BNZ     _00206_DS_
                      00310 ;       .line   101; stateMachine.c     setState(STATE_IDIOMA);
0001D8 0E0C           00311         MOVLW   0x0c
0001DA 6EE5           00312         MOVWF   POSTDEC1
0001DC EC?? F0??      00313         CALL    _setState
0001E0 52E6           00314         MOVF    POSTINC1, F
0001E2                00315 _00206_DS_:
                      00316 ;       .line   103; stateMachine.c     if (evento == EV_UP) {
0001E2 50??           00317         MOVF    r0x00, W
gpasm-1.5.0 #1285 (Sep 12 2016) build/default   7-4-2017  20:24:41          PAGE  7


LOC    OBJECT CODE    LINE  SOURCE TEXT
  VALUE

0001E4 A4D8           00318         BTFSS   STATUS, 2
0001E6 EF?? F0??      00319         GOTO    _00535_DS_
                      00320 ;       .line   104; stateMachine.c     setState(STATE_RESET);
0001EA 0E1F           00321         MOVLW   0x1f
0001EC 6EE5           00322         MOVWF   POSTDEC1
0001EE EC?? F0??      00323         CALL    _setState
0001F2 52E6           00324         MOVF    POSTINC1, F
                      00325 ;       .line   106; stateMachine.c     break;       
0001F4 EF?? F0??      00326         GOTO    _00535_DS_
0001F8                00327 _00209_DS_:
                      00328 ;       .line   110; stateMachine.c     if (evento == EV_ENTER) {
0001F8 50??           00329         MOVF    r0x00, W
0001FA 0A04           00330         XORLW   0x04
0001FC E1??           00331         BNZ     _00211_DS_
                      00332 ;       .line   111; stateMachine.c     setState(ALARME_ALTO_DEC);
0001FE 0E04           00333         MOVLW   0x04
000200 6EE5           00334         MOVWF   POSTDEC1
000202 EC?? F0??      00335         CALL    _setState
000206 52E6           00336         MOVF    POSTINC1, F
000208                00337 _00211_DS_:
                      00338 ;       .line   113; stateMachine.c     if (evento == EV_LEFT || evento == EV_RIGHT) {
000208 50??           00339         MOVF    r0x00, W
00020A 0A02           00340         XORLW   0x02
00020C E0??           00341         BZ      _00212_DS_
00020E 50??           00342         MOVF    r0x00, W
000210 0A03           00343         XORLW   0x03
000212 E1??           00344         BNZ     _00213_DS_
000214                00345 _00212_DS_:
                      00346 ;       .line   114; stateMachine.c     setState(STATE_ALARME);
000214 0E02           00347         MOVLW   0x02
000216 6EE5           00348         MOVWF   POSTDEC1
000218 EC?? F0??      00349         CALL    _setState
00021C 52E6           00350         MOVF    POSTINC1, F
00021E                00351 _00213_DS_:
                      00352 ;       .line   116; stateMachine.c     if (evento == EV_DOWN || evento == EV_UP) {
00021E 50??           00353         MOVF    r0x00, W
000220 0A01           00354         XORLW   0x01
000222 E0??           00355         BZ      _00215_DS_
000224 50??           00356         MOVF    r0x00, W
000226 A4D8           00357         BTFSS   STATUS, 2
000228 EF?? F0??      00358         GOTO    _00535_DS_
00022C                00359 _00215_DS_:
                      00360 ;       .line   117; stateMachine.c     setState(STATE_TEMPO);
00022C 0E08           00361         MOVLW   0x08
00022E 6EE5           00362         MOVWF   POSTDEC1
000230 EC?? F0??      00363         CALL    _setState
000234 52E6           00364         MOVF    POSTINC1, F
                      00365 ;       .line   119; stateMachine.c     break;
000236 EF?? F0??      00366         GOTO    _00535_DS_
00023A                00367 _00218_DS_:
                      00368 ;       .line   123; stateMachine.c     if (evento == EV_UP && getAlarmLevel(2)<=90) {
00023A 50??           00369         MOVF    r0x00, W
00023C E1??           00370         BNZ     _00220_DS_
gpasm-1.5.0 #1285 (Sep 12 2016) build/default   7-4-2017  20:24:41          PAGE  8


LOC    OBJECT CODE    LINE  SOURCE TEXT
  VALUE

00023E 0E00           00371         MOVLW   0x00
000240 6EE5           00372         MOVWF   POSTDEC1
000242 0E02           00373         MOVLW   0x02
000244 6EE5           00374         MOVWF   POSTDEC1
000246 EC?? F0??      00375         CALL    _getAlarmLevel
00024A 6E??           00376         MOVWF   r0x01
00024C CFF3 F000      00377         MOVFF   PRODL, r0x02
000250 52E6           00378         MOVF    POSTINC1, F
000252 52E6           00379         MOVF    POSTINC1, F
000254 50??           00380         MOVF    r0x02, W
000256 0F80           00381         ADDLW   0x80
000258 0F80           00382         ADDLW   0x80
00025A E1??           00383         BNZ     _01030_DS_
00025C 0E5B           00384         MOVLW   0x5b
00025E 5C??           00385         SUBWF   r0x01, W
000260                00386 _01030_DS_:
000260 E2??           00387         BC      _00220_DS_
                      00388 ;       .line   124; stateMachine.c     setAlarmLevel(getAlarmLevel(2) + 10, 2);
000262 0E00           00389         MOVLW   0x00
000264 6EE5           00390         MOVWF   POSTDEC1
000266 0E02           00391         MOVLW   0x02
000268 6EE5           00392         MOVWF   POSTDEC1
00026A EC?? F0??      00393         CALL    _getAlarmLevel
00026E 6E??           00394         MOVWF   r0x01
000270 CFF3 F000      00395         MOVFF   PRODL, r0x02
000274 52E6           00396         MOVF    POSTINC1, F
000276 52E6           00397         MOVF    POSTINC1, F
000278 0E0A           00398         MOVLW   0x0a
00027A 26??           00399         ADDWF   r0x01, F
00027C B0D8           00400         BTFSC   STATUS, 0
00027E 2A??           00401         INCF    r0x02, F
000280 0E00           00402         MOVLW   0x00
000282 6EE5           00403         MOVWF   POSTDEC1
000284 0E02           00404         MOVLW   0x02
000286 6EE5           00405         MOVWF   POSTDEC1
000288 50??           00406         MOVF    r0x02, W
00028A 6EE5           00407         MOVWF   POSTDEC1
00028C 50??           00408         MOVF    r0x01, W
00028E 6EE5           00409         MOVWF   POSTDEC1
000290 EC?? F0??      00410         CALL    _setAlarmLevel
000294 0E04           00411         MOVLW   0x04
000296 26E1           00412         ADDWF   FSR1L, F
000298                00413 _00220_DS_:
                      00414 ;       .line   126; stateMachine.c     if (evento == EV_DOWN && getAlarmLevel(2)>=10  && (getAlarmLevel
                            (1)+10) < getAlarmLevel(2)) {
000298 50??           00415         MOVF    r0x00, W
00029A 0A01           00416         XORLW   0x01
00029C E0??           00417         BZ      _01032_DS_
00029E D???           00418         BRA     _00223_DS_
0002A0                00419 _01032_DS_:
0002A0 0E00           00420         MOVLW   0x00
0002A2 6EE5           00421         MOVWF   POSTDEC1
0002A4 0E02           00422         MOVLW   0x02
gpasm-1.5.0 #1285 (Sep 12 2016) build/default   7-4-2017  20:24:41          PAGE  9


LOC    OBJECT CODE    LINE  SOURCE TEXT
  VALUE

0002A6 6EE5           00423         MOVWF   POSTDEC1
0002A8 EC?? F0??      00424         CALL    _getAlarmLevel
0002AC 6E??           00425         MOVWF   r0x01
0002AE CFF3 F000      00426         MOVFF   PRODL, r0x02
0002B2 52E6           00427         MOVF    POSTINC1, F
0002B4 52E6           00428         MOVF    POSTINC1, F
0002B6 50??           00429         MOVF    r0x02, W
0002B8 0F80           00430         ADDLW   0x80
0002BA 0F80           00431         ADDLW   0x80
0002BC E1??           00432         BNZ     _01033_DS_
0002BE 0E0A           00433         MOVLW   0x0a
0002C0 5C??           00434         SUBWF   r0x01, W
0002C2                00435 _01033_DS_:
0002C2 A0D8           00436         BTFSS   STATUS, 0
0002C4 D???           00437         BRA     _00223_DS_
0002C6 0E00           00438         MOVLW   0x00
0002C8 6EE5           00439         MOVWF   POSTDEC1
0002CA 0E01           00440         MOVLW   0x01
0002CC 6EE5           00441         MOVWF   POSTDEC1
0002CE EC?? F0??      00442         CALL    _getAlarmLevel
0002D2 6E??           00443         MOVWF   r0x01
0002D4 CFF3 F000      00444         MOVFF   PRODL, r0x02
0002D8 52E6           00445         MOVF    POSTINC1, F
0002DA 52E6           00446         MOVF    POSTINC1, F
0002DC 0E0A           00447         MOVLW   0x0a
0002DE 26??           00448         ADDWF   r0x01, F
0002E0 B0D8           00449         BTFSC   STATUS, 0
0002E2 2A??           00450         INCF    r0x02, F
0002E4 0E00           00451         MOVLW   0x00
0002E6 6EE5           00452         MOVWF   POSTDEC1
0002E8 0E02           00453         MOVLW   0x02
0002EA 6EE5           00454         MOVWF   POSTDEC1
0002EC EC?? F0??      00455         CALL    _getAlarmLevel
0002F0 6E??           00456         MOVWF   r0x03
0002F2 CFF3 F000      00457         MOVFF   PRODL, r0x04
0002F6 52E6           00458         MOVF    POSTINC1, F
0002F8 52E6           00459         MOVF    POSTINC1, F
0002FA 50??           00460         MOVF    r0x02, W
0002FC 0F80           00461         ADDLW   0x80
0002FE 6EF3           00462         MOVWF   PRODL
000300 50??           00463         MOVF    r0x04, W
000302 0F80           00464         ADDLW   0x80
000304 5CF3           00465         SUBWF   PRODL, W
000306 E1??           00466         BNZ     _01034_DS_
000308 50??           00467         MOVF    r0x03, W
00030A 5C??           00468         SUBWF   r0x01, W
00030C                00469 _01034_DS_:
00030C E2??           00470         BC      _00223_DS_
                      00471 ;       .line   127; stateMachine.c     setAlarmLevel(getAlarmLevel(2) - 10, 2);
00030E 0E00           00472         MOVLW   0x00
000310 6EE5           00473         MOVWF   POSTDEC1
000312 0E02           00474         MOVLW   0x02
000314 6EE5           00475         MOVWF   POSTDEC1
gpasm-1.5.0 #1285 (Sep 12 2016) build/default   7-4-2017  20:24:41          PAGE 10


LOC    OBJECT CODE    LINE  SOURCE TEXT
  VALUE

000316 EC?? F0??      00476         CALL    _getAlarmLevel
00031A 6E??           00477         MOVWF   r0x01
00031C CFF3 F000      00478         MOVFF   PRODL, r0x02
000320 52E6           00479         MOVF    POSTINC1, F
000322 52E6           00480         MOVF    POSTINC1, F
000324 0EF6           00481         MOVLW   0xf6
000326 26??           00482         ADDWF   r0x01, F
000328 A0D8           00483         BTFSS   STATUS, 0
00032A 06??           00484         DECF    r0x02, F
00032C 0E00           00485         MOVLW   0x00
00032E 6EE5           00486         MOVWF   POSTDEC1
000330 0E02           00487         MOVLW   0x02
000332 6EE5           00488         MOVWF   POSTDEC1
000334 50??           00489         MOVF    r0x02, W
000336 6EE5           00490         MOVWF   POSTDEC1
000338 50??           00491         MOVF    r0x01, W
00033A 6EE5           00492         MOVWF   POSTDEC1
00033C EC?? F0??      00493         CALL    _setAlarmLevel
000340 0E04           00494         MOVLW   0x04
000342 26E1           00495         ADDWF   FSR1L, F
000344                00496 _00223_DS_:
                      00497 ;       .line   130; stateMachine.c     if (evento == EV_RIGHT) {
000344 50??           00498         MOVF    r0x00, W
000346 0A03           00499         XORLW   0x03
000348 E1??           00500         BNZ     _00227_DS_
                      00501 ;       .line   131; stateMachine.c     setState(ALARME_ALTO_UNI);
00034A 0E05           00502         MOVLW   0x05
00034C 6EE5           00503         MOVWF   POSTDEC1
00034E EC?? F0??      00504         CALL    _setState
000352 52E6           00505         MOVF    POSTINC1, F
000354                00506 _00227_DS_:
                      00507 ;       .line   134; stateMachine.c     if (evento == EV_LEFT) {
000354 50??           00508         MOVF    r0x00, W
000356 0A02           00509         XORLW   0x02
000358 E1??           00510         BNZ     _00229_DS_
                      00511 ;       .line   135; stateMachine.c     setState(ALARME_BAIXO_UNI);
00035A 0E07           00512         MOVLW   0x07
00035C 6EE5           00513         MOVWF   POSTDEC1
00035E EC?? F0??      00514         CALL    _setState
000362 52E6           00515         MOVF    POSTINC1, F
000364                00516 _00229_DS_:
                      00517 ;       .line   137; stateMachine.c     if (evento == EV_ENTER) {
000364 50??           00518         MOVF    r0x00, W
000366 0A04           00519         XORLW   0x04
000368 E0??           00520         BZ      _01040_DS_
00036A EF?? F0??      00521         GOTO    _00535_DS_
00036E                00522 _01040_DS_:
                      00523 ;       .line   138; stateMachine.c     setState(CONFIG_ALARME);
00036E 0E03           00524         MOVLW   0x03
000370 6EE5           00525         MOVWF   POSTDEC1
000372 EC?? F0??      00526         CALL    _setState
000376 52E6           00527         MOVF    POSTINC1, F
                      00528 ;       .line   140; stateMachine.c     break;
gpasm-1.5.0 #1285 (Sep 12 2016) build/default   7-4-2017  20:24:41          PAGE 11


LOC    OBJECT CODE    LINE  SOURCE TEXT
  VALUE

000378 EF?? F0??      00529         GOTO    _00535_DS_
00037C                00530 _00232_DS_:
                      00531 ;       .line   144; stateMachine.c     if (evento == EV_UP && getAlarmLevel(2)<100) {
00037C 50??           00532         MOVF    r0x00, W
00037E E1??           00533         BNZ     _00234_DS_
000380 0E00           00534         MOVLW   0x00
000382 6EE5           00535         MOVWF   POSTDEC1
000384 0E02           00536         MOVLW   0x02
000386 6EE5           00537         MOVWF   POSTDEC1
000388 EC?? F0??      00538         CALL    _getAlarmLevel
00038C 6E??           00539         MOVWF   r0x01
00038E CFF3 F000      00540         MOVFF   PRODL, r0x02
000392 52E6           00541         MOVF    POSTINC1, F
000394 52E6           00542         MOVF    POSTINC1, F
000396 50??           00543         MOVF    r0x02, W
000398 0F80           00544         ADDLW   0x80
00039A 0F80           00545         ADDLW   0x80
00039C E1??           00546         BNZ     _01041_DS_
00039E 0E64           00547         MOVLW   0x64
0003A0 5C??           00548         SUBWF   r0x01, W
0003A2                00549 _01041_DS_:
0003A2 E2??           00550         BC      _00234_DS_
                      00551 ;       .line   145; stateMachine.c     setAlarmLevel(getAlarmLevel(2) + 1, 2);
0003A4 0E00           00552         MOVLW   0x00
0003A6 6EE5           00553         MOVWF   POSTDEC1
0003A8 0E02           00554         MOVLW   0x02
0003AA 6EE5           00555         MOVWF   POSTDEC1
0003AC EC?? F0??      00556         CALL    _getAlarmLevel
0003B0 6E??           00557         MOVWF   r0x01
0003B2 CFF3 F000      00558         MOVFF   PRODL, r0x02
0003B6 52E6           00559         MOVF    POSTINC1, F
0003B8 52E6           00560         MOVF    POSTINC1, F
0003BA 4A??           00561         INFSNZ  r0x01, F
0003BC 2A??           00562         INCF    r0x02, F
0003BE 0E00           00563         MOVLW   0x00
0003C0 6EE5           00564         MOVWF   POSTDEC1
0003C2 0E02           00565         MOVLW   0x02
0003C4 6EE5           00566         MOVWF   POSTDEC1
0003C6 50??           00567         MOVF    r0x02, W
0003C8 6EE5           00568         MOVWF   POSTDEC1
0003CA 50??           00569         MOVF    r0x01, W
0003CC 6EE5           00570         MOVWF   POSTDEC1
0003CE EC?? F0??      00571         CALL    _setAlarmLevel
0003D2 0E04           00572         MOVLW   0x04
0003D4 26E1           00573         ADDWF   FSR1L, F
0003D6                00574 _00234_DS_:
                      00575 ;       .line   147; stateMachine.c     if (evento == EV_DOWN && getAlarmLevel(2)>0 && getAlarmLevel(1)<
                            getAlarmLevel(2)) {
0003D6 50??           00576         MOVF    r0x00, W
0003D8 0A01           00577         XORLW   0x01
0003DA E0??           00578         BZ      _01043_DS_
0003DC D???           00579         BRA     _00237_DS_
0003DE                00580 _01043_DS_:
gpasm-1.5.0 #1285 (Sep 12 2016) build/default   7-4-2017  20:24:41          PAGE 12


LOC    OBJECT CODE    LINE  SOURCE TEXT
  VALUE

0003DE 0E00           00581         MOVLW   0x00
0003E0 6EE5           00582         MOVWF   POSTDEC1
0003E2 0E02           00583         MOVLW   0x02
0003E4 6EE5           00584         MOVWF   POSTDEC1
0003E6 EC?? F0??      00585         CALL    _getAlarmLevel
0003EA 6E??           00586         MOVWF   r0x01
0003EC CFF3 F000      00587         MOVFF   PRODL, r0x02
0003F0 52E6           00588         MOVF    POSTINC1, F
0003F2 52E6           00589         MOVF    POSTINC1, F
0003F4 50??           00590         MOVF    r0x02, W
0003F6 0F80           00591         ADDLW   0x80
0003F8 0F80           00592         ADDLW   0x80
0003FA E1??           00593         BNZ     _01044_DS_
0003FC 0E01           00594         MOVLW   0x01
0003FE 5C??           00595         SUBWF   r0x01, W
000400                00596 _01044_DS_:
000400 E3??           00597         BNC     _00237_DS_
000402 0E00           00598         MOVLW   0x00
000404 6EE5           00599         MOVWF   POSTDEC1
000406 0E01           00600         MOVLW   0x01
000408 6EE5           00601         MOVWF   POSTDEC1
00040A EC?? F0??      00602         CALL    _getAlarmLevel
00040E 6E??           00603         MOVWF   r0x01
000410 CFF3 F000      00604         MOVFF   PRODL, r0x02
000414 52E6           00605         MOVF    POSTINC1, F
000416 52E6           00606         MOVF    POSTINC1, F
000418 0E00           00607         MOVLW   0x00
00041A 6EE5           00608         MOVWF   POSTDEC1
00041C 0E02           00609         MOVLW   0x02
00041E 6EE5           00610         MOVWF   POSTDEC1
000420 EC?? F0??      00611         CALL    _getAlarmLevel
000424 6E??           00612         MOVWF   r0x03
000426 CFF3 F000      00613         MOVFF   PRODL, r0x04
00042A 52E6           00614         MOVF    POSTINC1, F
00042C 52E6           00615         MOVF    POSTINC1, F
00042E 50??           00616         MOVF    r0x02, W
000430 0F80           00617         ADDLW   0x80
000432 6EF3           00618         MOVWF   PRODL
000434 50??           00619         MOVF    r0x04, W
000436 0F80           00620         ADDLW   0x80
000438 5CF3           00621         SUBWF   PRODL, W
00043A E1??           00622         BNZ     _01045_DS_
00043C 50??           00623         MOVF    r0x03, W
00043E 5C??           00624         SUBWF   r0x01, W
000440                00625 _01045_DS_:
000440 E2??           00626         BC      _00237_DS_
                      00627 ;       .line   148; stateMachine.c     setAlarmLevel(getAlarmLevel(2) - 1, 2);
000442 0E00           00628         MOVLW   0x00
000444 6EE5           00629         MOVWF   POSTDEC1
000446 0E02           00630         MOVLW   0x02
000448 6EE5           00631         MOVWF   POSTDEC1
00044A EC?? F0??      00632         CALL    _getAlarmLevel
00044E 6E??           00633         MOVWF   r0x01
gpasm-1.5.0 #1285 (Sep 12 2016) build/default   7-4-2017  20:24:41          PAGE 13


LOC    OBJECT CODE    LINE  SOURCE TEXT
  VALUE

000450 CFF3 F000      00634         MOVFF   PRODL, r0x02
000454 52E6           00635         MOVF    POSTINC1, F
000456 52E6           00636         MOVF    POSTINC1, F
000458 0EFF           00637         MOVLW   0xff
00045A 26??           00638         ADDWF   r0x01, F
00045C 22??           00639         ADDWFC  r0x02, F
00045E 0E00           00640         MOVLW   0x00
000460 6EE5           00641         MOVWF   POSTDEC1
000462 0E02           00642         MOVLW   0x02
000464 6EE5           00643         MOVWF   POSTDEC1
000466 50??           00644         MOVF    r0x02, W
000468 6EE5           00645         MOVWF   POSTDEC1
00046A 50??           00646         MOVF    r0x01, W
00046C 6EE5           00647         MOVWF   POSTDEC1
00046E EC?? F0??      00648         CALL    _setAlarmLevel
000472 0E04           00649         MOVLW   0x04
000474 26E1           00650         ADDWF   FSR1L, F
000476                00651 _00237_DS_:
                      00652 ;       .line   151; stateMachine.c     if (evento == EV_RIGHT) {
000476 50??           00653         MOVF    r0x00, W
000478 0A03           00654         XORLW   0x03
00047A E1??           00655         BNZ     _00241_DS_
                      00656 ;       .line   152; stateMachine.c     setState(ALARME_BAIXO_DEC);
00047C 0E06           00657         MOVLW   0x06
00047E 6EE5           00658         MOVWF   POSTDEC1
000480 EC?? F0??      00659         CALL    _setState
000484 52E6           00660         MOVF    POSTINC1, F
000486                00661 _00241_DS_:
                      00662 ;       .line   154; stateMachine.c     if (evento == EV_LEFT) {
000486 50??           00663         MOVF    r0x00, W
000488 0A02           00664         XORLW   0x02
00048A E1??           00665         BNZ     _00243_DS_
                      00666 ;       .line   155; stateMachine.c     setState(ALARME_ALTO_DEC);
00048C 0E04           00667         MOVLW   0x04
00048E 6EE5           00668         MOVWF   POSTDEC1
000490 EC?? F0??      00669         CALL    _setState
000494 52E6           00670         MOVF    POSTINC1, F
000496                00671 _00243_DS_:
                      00672 ;       .line   157; stateMachine.c     if (evento == EV_ENTER) {
000496 50??           00673         MOVF    r0x00, W
000498 0A04           00674         XORLW   0x04
00049A E0??           00675         BZ      _01051_DS_
00049C EF?? F0??      00676         GOTO    _00535_DS_
0004A0                00677 _01051_DS_:
                      00678 ;       .line   158; stateMachine.c     setState(CONFIG_ALARME);
0004A0 0E03           00679         MOVLW   0x03
0004A2 6EE5           00680         MOVWF   POSTDEC1
0004A4 EC?? F0??      00681         CALL    _setState
0004A8 52E6           00682         MOVF    POSTINC1, F
                      00683 ;       .line   160; stateMachine.c     break;
0004AA EF?? F0??      00684         GOTO    _00535_DS_
0004AE                00685 _00246_DS_:
                      00686 ;       .line   164; stateMachine.c     if (evento == EV_UP && getAlarmLevel(1)<=90 && getAlarmLevel(1) 
gpasm-1.5.0 #1285 (Sep 12 2016) build/default   7-4-2017  20:24:41          PAGE 14


LOC    OBJECT CODE    LINE  SOURCE TEXT
  VALUE

                            <(getAlarmLevel(2)-10)) {
0004AE 50??           00687         MOVF    r0x00, W
0004B0 A4D8           00688         BTFSS   STATUS, 2
0004B2 D???           00689         BRA     _00248_DS_
0004B4 0E00           00690         MOVLW   0x00
0004B6 6EE5           00691         MOVWF   POSTDEC1
0004B8 0E01           00692         MOVLW   0x01
0004BA 6EE5           00693         MOVWF   POSTDEC1
0004BC EC?? F0??      00694         CALL    _getAlarmLevel
0004C0 6E??           00695         MOVWF   r0x01
0004C2 CFF3 F000      00696         MOVFF   PRODL, r0x02
0004C6 52E6           00697         MOVF    POSTINC1, F
0004C8 52E6           00698         MOVF    POSTINC1, F
0004CA 50??           00699         MOVF    r0x02, W
0004CC 0F80           00700         ADDLW   0x80
0004CE 0F80           00701         ADDLW   0x80
0004D0 E1??           00702         BNZ     _01052_DS_
0004D2 0E5B           00703         MOVLW   0x5b
0004D4 5C??           00704         SUBWF   r0x01, W
0004D6                00705 _01052_DS_:
0004D6 B0D8           00706         BTFSC   STATUS, 0
0004D8 D???           00707         BRA     _00248_DS_
0004DA 0E00           00708         MOVLW   0x00
0004DC 6EE5           00709         MOVWF   POSTDEC1
0004DE 0E01           00710         MOVLW   0x01
0004E0 6EE5           00711         MOVWF   POSTDEC1
0004E2 EC?? F0??      00712         CALL    _getAlarmLevel
0004E6 6E??           00713         MOVWF   r0x01
0004E8 CFF3 F000      00714         MOVFF   PRODL, r0x02
0004EC 52E6           00715         MOVF    POSTINC1, F
0004EE 52E6           00716         MOVF    POSTINC1, F
0004F0 0E00           00717         MOVLW   0x00
0004F2 6EE5           00718         MOVWF   POSTDEC1
0004F4 0E02           00719         MOVLW   0x02
0004F6 6EE5           00720         MOVWF   POSTDEC1
0004F8 EC?? F0??      00721         CALL    _getAlarmLevel
0004FC 6E??           00722         MOVWF   r0x03
0004FE CFF3 F000      00723         MOVFF   PRODL, r0x04
000502 52E6           00724         MOVF    POSTINC1, F
000504 52E6           00725         MOVF    POSTINC1, F
000506 0EF6           00726         MOVLW   0xf6
000508 26??           00727         ADDWF   r0x03, F
00050A A0D8           00728         BTFSS   STATUS, 0
00050C 06??           00729         DECF    r0x04, F
00050E 50??           00730         MOVF    r0x02, W
000510 0F80           00731         ADDLW   0x80
000512 6EF3           00732         MOVWF   PRODL
000514 50??           00733         MOVF    r0x04, W
000516 0F80           00734         ADDLW   0x80
000518 5CF3           00735         SUBWF   PRODL, W
00051A E1??           00736         BNZ     _01053_DS_
00051C 50??           00737         MOVF    r0x03, W
00051E 5C??           00738         SUBWF   r0x01, W
gpasm-1.5.0 #1285 (Sep 12 2016) build/default   7-4-2017  20:24:41          PAGE 15


LOC    OBJECT CODE    LINE  SOURCE TEXT
  VALUE

000520                00739 _01053_DS_:
000520 E2??           00740         BC      _00248_DS_
                      00741 ;       .line   165; stateMachine.c     setAlarmLevel(getAlarmLevel(1) + 10, 1);
000522 0E00           00742         MOVLW   0x00
000524 6EE5           00743         MOVWF   POSTDEC1
000526 0E01           00744         MOVLW   0x01
000528 6EE5           00745         MOVWF   POSTDEC1
00052A EC?? F0??      00746         CALL    _getAlarmLevel
00052E 6E??           00747         MOVWF   r0x01
000530 CFF3 F000      00748         MOVFF   PRODL, r0x02
000534 52E6           00749         MOVF    POSTINC1, F
000536 52E6           00750         MOVF    POSTINC1, F
000538 0E0A           00751         MOVLW   0x0a
00053A 26??           00752         ADDWF   r0x01, F
00053C B0D8           00753         BTFSC   STATUS, 0
00053E 2A??           00754         INCF    r0x02, F
000540 0E00           00755         MOVLW   0x00
000542 6EE5           00756         MOVWF   POSTDEC1
000544 0E01           00757         MOVLW   0x01
000546 6EE5           00758         MOVWF   POSTDEC1
000548 50??           00759         MOVF    r0x02, W
00054A 6EE5           00760         MOVWF   POSTDEC1
00054C 50??           00761         MOVF    r0x01, W
00054E 6EE5           00762         MOVWF   POSTDEC1
000550 EC?? F0??      00763         CALL    _setAlarmLevel
000554 0E04           00764         MOVLW   0x04
000556 26E1           00765         ADDWF   FSR1L, F
000558                00766 _00248_DS_:
                      00767 ;       .line   167; stateMachine.c     if (evento == EV_DOWN && getAlarmLevel(1)>=10) {
000558 50??           00768         MOVF    r0x00, W
00055A 0A01           00769         XORLW   0x01
00055C E1??           00770         BNZ     _00252_DS_
00055E 0E00           00771         MOVLW   0x00
000560 6EE5           00772         MOVWF   POSTDEC1
000562 0E01           00773         MOVLW   0x01
000564 6EE5           00774         MOVWF   POSTDEC1
000566 EC?? F0??      00775         CALL    _getAlarmLevel
00056A 6E??           00776         MOVWF   r0x01
00056C CFF3 F000      00777         MOVFF   PRODL, r0x02
000570 52E6           00778         MOVF    POSTINC1, F
000572 52E6           00779         MOVF    POSTINC1, F
000574 50??           00780         MOVF    r0x02, W
000576 0F80           00781         ADDLW   0x80
000578 0F80           00782         ADDLW   0x80
00057A E1??           00783         BNZ     _01056_DS_
00057C 0E0A           00784         MOVLW   0x0a
00057E 5C??           00785         SUBWF   r0x01, W
000580                00786 _01056_DS_:
000580 E3??           00787         BNC     _00252_DS_
                      00788 ;       .line   168; stateMachine.c     setAlarmLevel(getAlarmLevel(1) - 10, 1);
000582 0E00           00789         MOVLW   0x00
000584 6EE5           00790         MOVWF   POSTDEC1
000586 0E01           00791         MOVLW   0x01
gpasm-1.5.0 #1285 (Sep 12 2016) build/default   7-4-2017  20:24:41          PAGE 16


LOC    OBJECT CODE    LINE  SOURCE TEXT
  VALUE

000588 6EE5           00792         MOVWF   POSTDEC1
00058A EC?? F0??      00793         CALL    _getAlarmLevel
00058E 6E??           00794         MOVWF   r0x01
000590 CFF3 F000      00795         MOVFF   PRODL, r0x02
000594 52E6           00796         MOVF    POSTINC1, F
000596 52E6           00797         MOVF    POSTINC1, F
000598 0EF6           00798         MOVLW   0xf6
00059A 26??           00799         ADDWF   r0x01, F
00059C A0D8           00800         BTFSS   STATUS, 0
00059E 06??           00801         DECF    r0x02, F
0005A0 0E00           00802         MOVLW   0x00
0005A2 6EE5           00803         MOVWF   POSTDEC1
0005A4 0E01           00804         MOVLW   0x01
0005A6 6EE5           00805         MOVWF   POSTDEC1
0005A8 50??           00806         MOVF    r0x02, W
0005AA 6EE5           00807         MOVWF   POSTDEC1
0005AC 50??           00808         MOVF    r0x01, W
0005AE 6EE5           00809         MOVWF   POSTDEC1
0005B0 EC?? F0??      00810         CALL    _setAlarmLevel
0005B4 0E04           00811         MOVLW   0x04
0005B6 26E1           00812         ADDWF   FSR1L, F
0005B8                00813 _00252_DS_:
                      00814 ;       .line   171; stateMachine.c     if (evento == EV_RIGHT) {
0005B8 50??           00815         MOVF    r0x00, W
0005BA 0A03           00816         XORLW   0x03
0005BC E1??           00817         BNZ     _00255_DS_
                      00818 ;       .line   172; stateMachine.c     setState(ALARME_BAIXO_UNI);
0005BE 0E07           00819         MOVLW   0x07
0005C0 6EE5           00820         MOVWF   POSTDEC1
0005C2 EC?? F0??      00821         CALL    _setState
0005C6 52E6           00822         MOVF    POSTINC1, F
0005C8                00823 _00255_DS_:
                      00824 ;       .line   174; stateMachine.c     if (evento == EV_LEFT) {
0005C8 50??           00825         MOVF    r0x00, W
0005CA 0A02           00826         XORLW   0x02
0005CC E1??           00827         BNZ     _00257_DS_
                      00828 ;       .line   175; stateMachine.c     setState(ALARME_ALTO_UNI);
0005CE 0E05           00829         MOVLW   0x05
0005D0 6EE5           00830         MOVWF   POSTDEC1
0005D2 EC?? F0??      00831         CALL    _setState
0005D6 52E6           00832         MOVF    POSTINC1, F
0005D8                00833 _00257_DS_:
                      00834 ;       .line   177; stateMachine.c     if (evento == EV_ENTER) {
0005D8 50??           00835         MOVF    r0x00, W
0005DA 0A04           00836         XORLW   0x04
0005DC E0??           00837         BZ      _01062_DS_
0005DE EF?? F0??      00838         GOTO    _00535_DS_
0005E2                00839 _01062_DS_:
                      00840 ;       .line   178; stateMachine.c     setState(CONFIG_ALARME);
0005E2 0E03           00841         MOVLW   0x03
0005E4 6EE5           00842         MOVWF   POSTDEC1
0005E6 EC?? F0??      00843         CALL    _setState
0005EA 52E6           00844         MOVF    POSTINC1, F
gpasm-1.5.0 #1285 (Sep 12 2016) build/default   7-4-2017  20:24:41          PAGE 17


LOC    OBJECT CODE    LINE  SOURCE TEXT
  VALUE

                      00845 ;       .line   180; stateMachine.c     break;
0005EC EF?? F0??      00846         GOTO    _00535_DS_
0005F0                00847 _00260_DS_:
                      00848 ;       .line   184; stateMachine.c     if (evento == EV_UP && getAlarmLevel(1)<100 && getAlarmLevel(1) 
                            <getAlarmLevel(2)) {
0005F0 50??           00849         MOVF    r0x00, W
0005F2 A4D8           00850         BTFSS   STATUS, 2
0005F4 D???           00851         BRA     _00262_DS_
0005F6 0E00           00852         MOVLW   0x00
0005F8 6EE5           00853         MOVWF   POSTDEC1
0005FA 0E01           00854         MOVLW   0x01
0005FC 6EE5           00855         MOVWF   POSTDEC1
0005FE EC?? F0??      00856         CALL    _getAlarmLevel
000602 6E??           00857         MOVWF   r0x01
000604 CFF3 F000      00858         MOVFF   PRODL, r0x02
000608 52E6           00859         MOVF    POSTINC1, F
00060A 52E6           00860         MOVF    POSTINC1, F
00060C 50??           00861         MOVF    r0x02, W
00060E 0F80           00862         ADDLW   0x80
000610 0F80           00863         ADDLW   0x80
000612 E1??           00864         BNZ     _01063_DS_
000614 0E64           00865         MOVLW   0x64
000616 5C??           00866         SUBWF   r0x01, W
000618                00867 _01063_DS_:
000618 E2??           00868         BC      _00262_DS_
00061A 0E00           00869         MOVLW   0x00
00061C 6EE5           00870         MOVWF   POSTDEC1
00061E 0E01           00871         MOVLW   0x01
000620 6EE5           00872         MOVWF   POSTDEC1
000622 EC?? F0??      00873         CALL    _getAlarmLevel
000626 6E??           00874         MOVWF   r0x01
000628 CFF3 F000      00875         MOVFF   PRODL, r0x02
00062C 52E6           00876         MOVF    POSTINC1, F
00062E 52E6           00877         MOVF    POSTINC1, F
000630 0E00           00878         MOVLW   0x00
000632 6EE5           00879         MOVWF   POSTDEC1
000634 0E02           00880         MOVLW   0x02
000636 6EE5           00881         MOVWF   POSTDEC1
000638 EC?? F0??      00882         CALL    _getAlarmLevel
00063C 6E??           00883         MOVWF   r0x03
00063E CFF3 F000      00884         MOVFF   PRODL, r0x04
000642 52E6           00885         MOVF    POSTINC1, F
000644 52E6           00886         MOVF    POSTINC1, F
000646 50??           00887         MOVF    r0x02, W
000648 0F80           00888         ADDLW   0x80
00064A 6EF3           00889         MOVWF   PRODL
00064C 50??           00890         MOVF    r0x04, W
00064E 0F80           00891         ADDLW   0x80
000650 5CF3           00892         SUBWF   PRODL, W
000652 E1??           00893         BNZ     _01064_DS_
000654 50??           00894         MOVF    r0x03, W
000656 5C??           00895         SUBWF   r0x01, W
000658                00896 _01064_DS_:
gpasm-1.5.0 #1285 (Sep 12 2016) build/default   7-4-2017  20:24:41          PAGE 18


LOC    OBJECT CODE    LINE  SOURCE TEXT
  VALUE

000658 E2??           00897         BC      _00262_DS_
                      00898 ;       .line   185; stateMachine.c     setAlarmLevel(getAlarmLevel(1) + 1, 1);
00065A 0E00           00899         MOVLW   0x00
00065C 6EE5           00900         MOVWF   POSTDEC1
00065E 0E01           00901         MOVLW   0x01
000660 6EE5           00902         MOVWF   POSTDEC1
000662 EC?? F0??      00903         CALL    _getAlarmLevel
000666 6E??           00904         MOVWF   r0x01
000668 CFF3 F000      00905         MOVFF   PRODL, r0x02
00066C 52E6           00906         MOVF    POSTINC1, F
00066E 52E6           00907         MOVF    POSTINC1, F
000670 4A??           00908         INFSNZ  r0x01, F
000672 2A??           00909         INCF    r0x02, F
000674 0E00           00910         MOVLW   0x00
000676 6EE5           00911         MOVWF   POSTDEC1
000678 0E01           00912         MOVLW   0x01
00067A 6EE5           00913         MOVWF   POSTDEC1
00067C 50??           00914         MOVF    r0x02, W
00067E 6EE5           00915         MOVWF   POSTDEC1
000680 50??           00916         MOVF    r0x01, W
000682 6EE5           00917         MOVWF   POSTDEC1
000684 EC?? F0??      00918         CALL    _setAlarmLevel
000688 0E04           00919         MOVLW   0x04
00068A 26E1           00920         ADDWF   FSR1L, F
00068C                00921 _00262_DS_:
                      00922 ;       .line   187; stateMachine.c     if (evento == EV_DOWN && getAlarmLevel(1)>0) {
00068C 50??           00923         MOVF    r0x00, W
00068E 0A01           00924         XORLW   0x01
000690 E1??           00925         BNZ     _00266_DS_
000692 0E00           00926         MOVLW   0x00
000694 6EE5           00927         MOVWF   POSTDEC1
000696 0E01           00928         MOVLW   0x01
000698 6EE5           00929         MOVWF   POSTDEC1
00069A EC?? F0??      00930         CALL    _getAlarmLevel
00069E 6E??           00931         MOVWF   r0x01
0006A0 CFF3 F000      00932         MOVFF   PRODL, r0x02
0006A4 52E6           00933         MOVF    POSTINC1, F
0006A6 52E6           00934         MOVF    POSTINC1, F
0006A8 50??           00935         MOVF    r0x02, W
0006AA 0F80           00936         ADDLW   0x80
0006AC 0F80           00937         ADDLW   0x80
0006AE E1??           00938         BNZ     _01067_DS_
0006B0 0E01           00939         MOVLW   0x01
0006B2 5C??           00940         SUBWF   r0x01, W
0006B4                00941 _01067_DS_:
0006B4 E3??           00942         BNC     _00266_DS_
                      00943 ;       .line   188; stateMachine.c     setAlarmLevel(getAlarmLevel(1) - 1, 1);
0006B6 0E00           00944         MOVLW   0x00
0006B8 6EE5           00945         MOVWF   POSTDEC1
0006BA 0E01           00946         MOVLW   0x01
0006BC 6EE5           00947         MOVWF   POSTDEC1
0006BE EC?? F0??      00948         CALL    _getAlarmLevel
0006C2 6E??           00949         MOVWF   r0x01
gpasm-1.5.0 #1285 (Sep 12 2016) build/default   7-4-2017  20:24:41          PAGE 19


LOC    OBJECT CODE    LINE  SOURCE TEXT
  VALUE

0006C4 CFF3 F000      00950         MOVFF   PRODL, r0x02
0006C8 52E6           00951         MOVF    POSTINC1, F
0006CA 52E6           00952         MOVF    POSTINC1, F
0006CC 0EFF           00953         MOVLW   0xff
0006CE 26??           00954         ADDWF   r0x01, F
0006D0 22??           00955         ADDWFC  r0x02, F
0006D2 0E00           00956         MOVLW   0x00
0006D4 6EE5           00957         MOVWF   POSTDEC1
0006D6 0E01           00958         MOVLW   0x01
0006D8 6EE5           00959         MOVWF   POSTDEC1
0006DA 50??           00960         MOVF    r0x02, W
0006DC 6EE5           00961         MOVWF   POSTDEC1
0006DE 50??           00962         MOVF    r0x01, W
0006E0 6EE5           00963         MOVWF   POSTDEC1
0006E2 EC?? F0??      00964         CALL    _setAlarmLevel
0006E6 0E04           00965         MOVLW   0x04
0006E8 26E1           00966         ADDWF   FSR1L, F
0006EA                00967 _00266_DS_:
                      00968 ;       .line   191; stateMachine.c     if (evento == EV_RIGHT) {
0006EA 50??           00969         MOVF    r0x00, W
0006EC 0A03           00970         XORLW   0x03
0006EE E1??           00971         BNZ     _00269_DS_
                      00972 ;       .line   192; stateMachine.c     setState(ALARME_ALTO_DEC);
0006F0 0E04           00973         MOVLW   0x04
0006F2 6EE5           00974         MOVWF   POSTDEC1
0006F4 EC?? F0??      00975         CALL    _setState
0006F8 52E6           00976         MOVF    POSTINC1, F
0006FA                00977 _00269_DS_:
                      00978 ;       .line   194; stateMachine.c     if (evento == EV_LEFT) {
0006FA 50??           00979         MOVF    r0x00, W
0006FC 0A02           00980         XORLW   0x02
0006FE E1??           00981         BNZ     _00271_DS_
                      00982 ;       .line   195; stateMachine.c     setState(ALARME_BAIXO_DEC);
000700 0E06           00983         MOVLW   0x06
000702 6EE5           00984         MOVWF   POSTDEC1
000704 EC?? F0??      00985         CALL    _setState
000708 52E6           00986         MOVF    POSTINC1, F
00070A                00987 _00271_DS_:
                      00988 ;       .line   197; stateMachine.c     if (evento == EV_ENTER) {
00070A 50??           00989         MOVF    r0x00, W
00070C 0A04           00990         XORLW   0x04
00070E E0??           00991         BZ      _01073_DS_
000710 EF?? F0??      00992         GOTO    _00535_DS_
000714                00993 _01073_DS_:
                      00994 ;       .line   198; stateMachine.c     setState(CONFIG_ALARME);
000714 0E03           00995         MOVLW   0x03
000716 6EE5           00996         MOVWF   POSTDEC1
000718 EC?? F0??      00997         CALL    _setState
00071C 52E6           00998         MOVF    POSTINC1, F
                      00999 ;       .line   200; stateMachine.c     break;            
00071E EF?? F0??      01000         GOTO    _00535_DS_
000722                01001 _00274_DS_:
                      01002 ;       .line   204; stateMachine.c     if (evento == EV_ENTER) {
gpasm-1.5.0 #1285 (Sep 12 2016) build/default   7-4-2017  20:24:41          PAGE 20


LOC    OBJECT CODE    LINE  SOURCE TEXT
  VALUE

000722 50??           01003         MOVF    r0x00, W
000724 0A04           01004         XORLW   0x04
000726 E1??           01005         BNZ     _00276_DS_
                      01006 ;       .line   205; stateMachine.c     setState(CONFIG_TEMPO_DEC);
000728 0E09           01007         MOVLW   0x09
00072A 6EE5           01008         MOVWF   POSTDEC1
00072C EC?? F0??      01009         CALL    _setState
000730 52E6           01010         MOVF    POSTINC1, F
000732                01011 _00276_DS_:
                      01012 ;       .line   207; stateMachine.c     if (evento == EV_LEFT || evento == EV_RIGHT) {
000732 50??           01013         MOVF    r0x00, W
000734 0A02           01014         XORLW   0x02
000736 E0??           01015         BZ      _00277_DS_
000738 50??           01016         MOVF    r0x00, W
00073A 0A03           01017         XORLW   0x03
00073C E1??           01018         BNZ     _00278_DS_
00073E                01019 _00277_DS_:
                      01020 ;       .line   208; stateMachine.c     setState(STATE_ALARME);
00073E 0E02           01021         MOVLW   0x02
000740 6EE5           01022         MOVWF   POSTDEC1
000742 EC?? F0??      01023         CALL    _setState
000746 52E6           01024         MOVF    POSTINC1, F
000748                01025 _00278_DS_:
                      01026 ;       .line   210; stateMachine.c     if (evento == EV_DOWN || evento == EV_UP) {
000748 50??           01027         MOVF    r0x00, W
00074A 0A01           01028         XORLW   0x01
00074C E0??           01029         BZ      _00280_DS_
00074E 50??           01030         MOVF    r0x00, W
000750 A4D8           01031         BTFSS   STATUS, 2
000752 EF?? F0??      01032         GOTO    _00535_DS_
000756                01033 _00280_DS_:
                      01034 ;       .line   211; stateMachine.c     setState(CONFIG_ALARME);
000756 0E03           01035         MOVLW   0x03
000758 6EE5           01036         MOVWF   POSTDEC1
00075A EC?? F0??      01037         CALL    _setState
00075E 52E6           01038         MOVF    POSTINC1, F
                      01039 ;       .line   213; stateMachine.c     break;
000760 EF?? F0??      01040         GOTO    _00535_DS_
000764                01041 _00283_DS_:
                      01042 ;       .line   216; stateMachine.c     if (evento == EV_UP) {
000764 50??           01043         MOVF    r0x00, W
000766 E1??           01044         BNZ     _00285_DS_
                      01045 ;       .line   217; stateMachine.c     setTime(getTime() + 10);
000768 EC?? F0??      01046         CALL    _getTime
00076C 6E??           01047         MOVWF   r0x01
00076E CFF3 F000      01048         MOVFF   PRODL, r0x02
000772 0E0A           01049         MOVLW   0x0a
000774 26??           01050         ADDWF   r0x01, F
000776 B0D8           01051         BTFSC   STATUS, 0
000778 2A??           01052         INCF    r0x02, F
00077A 50??           01053         MOVF    r0x02, W
00077C 6EE5           01054         MOVWF   POSTDEC1
00077E 50??           01055         MOVF    r0x01, W
gpasm-1.5.0 #1285 (Sep 12 2016) build/default   7-4-2017  20:24:41          PAGE 21


LOC    OBJECT CODE    LINE  SOURCE TEXT
  VALUE

000780 6EE5           01056         MOVWF   POSTDEC1
000782 EC?? F0??      01057         CALL    _setTime
000786 52E6           01058         MOVF    POSTINC1, F
000788 52E6           01059         MOVF    POSTINC1, F
00078A                01060 _00285_DS_:
                      01061 ;       .line   219; stateMachine.c     if (evento == EV_DOWN) {
00078A 50??           01062         MOVF    r0x00, W
00078C 0A01           01063         XORLW   0x01
00078E E1??           01064         BNZ     _00287_DS_
                      01065 ;       .line   220; stateMachine.c     setTime(getTime() - 10);
000790 EC?? F0??      01066         CALL    _getTime
000794 6E??           01067         MOVWF   r0x01
000796 CFF3 F000      01068         MOVFF   PRODL, r0x02
00079A 0EF6           01069         MOVLW   0xf6
00079C 26??           01070         ADDWF   r0x01, F
00079E A0D8           01071         BTFSS   STATUS, 0
0007A0 06??           01072         DECF    r0x02, F
0007A2 50??           01073         MOVF    r0x02, W
0007A4 6EE5           01074         MOVWF   POSTDEC1
0007A6 50??           01075         MOVF    r0x01, W
0007A8 6EE5           01076         MOVWF   POSTDEC1
0007AA EC?? F0??      01077         CALL    _setTime
0007AE 52E6           01078         MOVF    POSTINC1, F
0007B0 52E6           01079         MOVF    POSTINC1, F
0007B2                01080 _00287_DS_:
                      01081 ;       .line   223; stateMachine.c     if (evento == EV_RIGHT) {
0007B2 50??           01082         MOVF    r0x00, W
0007B4 0A03           01083         XORLW   0x03
0007B6 E1??           01084         BNZ     _00289_DS_
                      01085 ;       .line   224; stateMachine.c     setState(CONFIG_TEMPO_UNI);
0007B8 0E0A           01086         MOVLW   0x0a
0007BA 6EE5           01087         MOVWF   POSTDEC1
0007BC EC?? F0??      01088         CALL    _setState
0007C0 52E6           01089         MOVF    POSTINC1, F
0007C2                01090 _00289_DS_:
                      01091 ;       .line   226; stateMachine.c     if (evento == EV_LEFT) {
0007C2 50??           01092         MOVF    r0x00, W
0007C4 0A02           01093         XORLW   0x02
0007C6 E1??           01094         BNZ     _00291_DS_
                      01095 ;       .line   227; stateMachine.c     setState(CONFIG_TEMPO_MULT);
0007C8 0E0B           01096         MOVLW   0x0b
0007CA 6EE5           01097         MOVWF   POSTDEC1
0007CC EC?? F0??      01098         CALL    _setState
0007D0 52E6           01099         MOVF    POSTINC1, F
0007D2                01100 _00291_DS_:
                      01101 ;       .line   229; stateMachine.c     if (evento == EV_ENTER) {
0007D2 50??           01102         MOVF    r0x00, W
0007D4 0A04           01103         XORLW   0x04
0007D6 E0??           01104         BZ      _01089_DS_
0007D8 EF?? F0??      01105         GOTO    _00535_DS_
0007DC                01106 _01089_DS_:
                      01107 ;       .line   230; stateMachine.c     setState(STATE_TEMPO);
0007DC 0E08           01108         MOVLW   0x08
gpasm-1.5.0 #1285 (Sep 12 2016) build/default   7-4-2017  20:24:41          PAGE 22


LOC    OBJECT CODE    LINE  SOURCE TEXT
  VALUE

0007DE 6EE5           01109         MOVWF   POSTDEC1
0007E0 EC?? F0??      01110         CALL    _setState
0007E4 52E6           01111         MOVF    POSTINC1, F
                      01112 ;       .line   232; stateMachine.c     break;
0007E6 EF?? F0??      01113         GOTO    _00535_DS_
0007EA                01114 _00294_DS_:
                      01115 ;       .line   236; stateMachine.c     if (evento == EV_UP) {
0007EA 50??           01116         MOVF    r0x00, W
0007EC E1??           01117         BNZ     _00296_DS_
                      01118 ;       .line   237; stateMachine.c     setTime(getTime() + 1);
0007EE EC?? F0??      01119         CALL    _getTime
0007F2 6E??           01120         MOVWF   r0x01
0007F4 CFF3 F000      01121         MOVFF   PRODL, r0x02
0007F8 4A??           01122         INFSNZ  r0x01, F
0007FA 2A??           01123         INCF    r0x02, F
0007FC 50??           01124         MOVF    r0x02, W
0007FE 6EE5           01125         MOVWF   POSTDEC1
000800 50??           01126         MOVF    r0x01, W
000802 6EE5           01127         MOVWF   POSTDEC1
000804 EC?? F0??      01128         CALL    _setTime
000808 52E6           01129         MOVF    POSTINC1, F
00080A 52E6           01130         MOVF    POSTINC1, F
00080C                01131 _00296_DS_:
                      01132 ;       .line   239; stateMachine.c     if (evento == EV_DOWN) {
00080C 50??           01133         MOVF    r0x00, W
00080E 0A01           01134         XORLW   0x01
000810 E1??           01135         BNZ     _00298_DS_
                      01136 ;       .line   240; stateMachine.c     setTime(getTime() - 1);
000812 EC?? F0??      01137         CALL    _getTime
000816 6E??           01138         MOVWF   r0x01
000818 CFF3 F000      01139         MOVFF   PRODL, r0x02
00081C 0EFF           01140         MOVLW   0xff
00081E 26??           01141         ADDWF   r0x01, F
000820 22??           01142         ADDWFC  r0x02, F
000822 50??           01143         MOVF    r0x02, W
000824 6EE5           01144         MOVWF   POSTDEC1
000826 50??           01145         MOVF    r0x01, W
000828 6EE5           01146         MOVWF   POSTDEC1
00082A EC?? F0??      01147         CALL    _setTime
00082E 52E6           01148         MOVF    POSTINC1, F
000830 52E6           01149         MOVF    POSTINC1, F
000832                01150 _00298_DS_:
                      01151 ;       .line   243; stateMachine.c     if (evento == EV_RIGHT) {
000832 50??           01152         MOVF    r0x00, W
000834 0A03           01153         XORLW   0x03
000836 E1??           01154         BNZ     _00300_DS_
                      01155 ;       .line   244; stateMachine.c     setState(CONFIG_TEMPO_MULT);
000838 0E0B           01156         MOVLW   0x0b
00083A 6EE5           01157         MOVWF   POSTDEC1
00083C EC?? F0??      01158         CALL    _setState
000840 52E6           01159         MOVF    POSTINC1, F
000842                01160 _00300_DS_:
                      01161 ;       .line   246; stateMachine.c     if (evento == EV_LEFT) {
gpasm-1.5.0 #1285 (Sep 12 2016) build/default   7-4-2017  20:24:41          PAGE 23


LOC    OBJECT CODE    LINE  SOURCE TEXT
  VALUE

000842 50??           01162         MOVF    r0x00, W
000844 0A02           01163         XORLW   0x02
000846 E1??           01164         BNZ     _00302_DS_
                      01165 ;       .line   247; stateMachine.c     setState(CONFIG_TEMPO_DEC);
000848 0E09           01166         MOVLW   0x09
00084A 6EE5           01167         MOVWF   POSTDEC1
00084C EC?? F0??      01168         CALL    _setState
000850 52E6           01169         MOVF    POSTINC1, F
000852                01170 _00302_DS_:
                      01171 ;       .line   249; stateMachine.c     if (evento == EV_ENTER) {
000852 50??           01172         MOVF    r0x00, W
000854 0A04           01173         XORLW   0x04
000856 E0??           01174         BZ      _01097_DS_
000858 EF?? F0??      01175         GOTO    _00535_DS_
00085C                01176 _01097_DS_:
                      01177 ;       .line   250; stateMachine.c     setState(STATE_TEMPO);
00085C 0E08           01178         MOVLW   0x08
00085E 6EE5           01179         MOVWF   POSTDEC1
000860 EC?? F0??      01180         CALL    _setState
000864 52E6           01181         MOVF    POSTINC1, F
                      01182 ;       .line   252; stateMachine.c     break;
000866 EF?? F0??      01183         GOTO    _00535_DS_
00086A                01184 _00305_DS_:
                      01185 ;       .line   256; stateMachine.c     if (evento == EV_UP && getMult() <= 10000) {
00086A 50??           01186         MOVF    r0x00, W
00086C E1??           01187         BNZ     _00307_DS_
00086E EC?? F0??      01188         CALL    _getMult
000872 6E??           01189         MOVWF   r0x01
000874 CFF3 F000      01190         MOVFF   PRODL, r0x02
000878 50??           01191         MOVF    r0x02, W
00087A 0F80           01192         ADDLW   0x80
00087C 0F59           01193         ADDLW   0x59
00087E E1??           01194         BNZ     _01098_DS_
000880 0E11           01195         MOVLW   0x11
000882 5C??           01196         SUBWF   r0x01, W
000884                01197 _01098_DS_:
000884 E2??           01198         BC      _00307_DS_
                      01199 ;       .line   257; stateMachine.c     setMult(getMult()*10); //criar funes de get e set do multiplic
                            ador
000886 EC?? F0??      01200         CALL    _getMult
00088A 6E??           01201         MOVWF   r0x01
00088C CFF3 F000      01202         MOVFF   PRODL, r0x02
000890 50??           01203         MOVF    r0x02, W
000892 6EE5           01204         MOVWF   POSTDEC1
000894 50??           01205         MOVF    r0x01, W
000896 6EE5           01206         MOVWF   POSTDEC1
000898 0E00           01207         MOVLW   0x00
00089A 6EE5           01208         MOVWF   POSTDEC1
00089C 0E0A           01209         MOVLW   0x0a
00089E 6EE5           01210         MOVWF   POSTDEC1
0008A0 EC?? F0??      01211         CALL    __mulint
0008A4 6E??           01212         MOVWF   r0x01
0008A6 CFF3 F000      01213         MOVFF   PRODL, r0x02
gpasm-1.5.0 #1285 (Sep 12 2016) build/default   7-4-2017  20:24:41          PAGE 24


LOC    OBJECT CODE    LINE  SOURCE TEXT
  VALUE

0008AA 0E04           01214         MOVLW   0x04
0008AC 26E1           01215         ADDWF   FSR1L, F
0008AE 50??           01216         MOVF    r0x02, W
0008B0 6EE5           01217         MOVWF   POSTDEC1
0008B2 50??           01218         MOVF    r0x01, W
0008B4 6EE5           01219         MOVWF   POSTDEC1
0008B6 EC?? F0??      01220         CALL    _setMult
0008BA 52E6           01221         MOVF    POSTINC1, F
0008BC 52E6           01222         MOVF    POSTINC1, F
0008BE                01223 _00307_DS_:
                      01224 ;       .line   259; stateMachine.c     if (evento == EV_DOWN && getMult() >= 0) {
0008BE 50??           01225         MOVF    r0x00, W
0008C0 0A01           01226         XORLW   0x01
0008C2 E1??           01227         BNZ     _00310_DS_
0008C4 EC?? F0??      01228         CALL    _getMult
0008C8 6E??           01229         MOVWF   r0x01
0008CA CFF3 F000      01230         MOVFF   PRODL, r0x02
0008CE 80D8           01231         BSF     STATUS, 0
0008D0 AE??           01232         BTFSS   r0x02, 7
0008D2 90D8           01233         BCF     STATUS, 0
0008D4 E2??           01234         BC      _00310_DS_
                      01235 ;       .line   260; stateMachine.c     setMult(getMult()/10);
0008D6 EC?? F0??      01236         CALL    _getMult
0008DA 6E??           01237         MOVWF   r0x01
0008DC CFF3 F000      01238         MOVFF   PRODL, r0x02
0008E0 0E00           01239         MOVLW   0x00
0008E2 6EE5           01240         MOVWF   POSTDEC1
0008E4 0E0A           01241         MOVLW   0x0a
0008E6 6EE5           01242         MOVWF   POSTDEC1
0008E8 50??           01243         MOVF    r0x02, W
0008EA 6EE5           01244         MOVWF   POSTDEC1
0008EC 50??           01245         MOVF    r0x01, W
0008EE 6EE5           01246         MOVWF   POSTDEC1
0008F0 EC?? F0??      01247         CALL    __divsint
0008F4 6E??           01248         MOVWF   r0x01
0008F6 CFF3 F000      01249         MOVFF   PRODL, r0x02
0008FA 0E04           01250         MOVLW   0x04
0008FC 26E1           01251         ADDWF   FSR1L, F
0008FE 50??           01252         MOVF    r0x02, W
000900 6EE5           01253         MOVWF   POSTDEC1
000902 50??           01254         MOVF    r0x01, W
000904 6EE5           01255         MOVWF   POSTDEC1
000906 EC?? F0??      01256         CALL    _setMult
00090A 52E6           01257         MOVF    POSTINC1, F
00090C 52E6           01258         MOVF    POSTINC1, F
00090E                01259 _00310_DS_:
                      01260 ;       .line   263; stateMachine.c     if (evento == EV_RIGHT) {
00090E 50??           01261         MOVF    r0x00, W
000910 0A03           01262         XORLW   0x03
000912 E1??           01263         BNZ     _00313_DS_
                      01264 ;       .line   264; stateMachine.c     setState(CONFIG_TEMPO_DEC);
000914 0E09           01265         MOVLW   0x09
000916 6EE5           01266         MOVWF   POSTDEC1
gpasm-1.5.0 #1285 (Sep 12 2016) build/default   7-4-2017  20:24:41          PAGE 25


LOC    OBJECT CODE    LINE  SOURCE TEXT
  VALUE

000918 EC?? F0??      01267         CALL    _setState
00091C 52E6           01268         MOVF    POSTINC1, F
00091E                01269 _00313_DS_:
                      01270 ;       .line   266; stateMachine.c     if (evento == EV_LEFT) {
00091E 50??           01271         MOVF    r0x00, W
000920 0A02           01272         XORLW   0x02
000922 E1??           01273         BNZ     _00315_DS_
                      01274 ;       .line   267; stateMachine.c     setState(CONFIG_TEMPO_UNI);
000924 0E0A           01275         MOVLW   0x0a
000926 6EE5           01276         MOVWF   POSTDEC1
000928 EC?? F0??      01277         CALL    _setState
00092C 52E6           01278         MOVF    POSTINC1, F
00092E                01279 _00315_DS_:
                      01280 ;       .line   269; stateMachine.c     if (evento == EV_ENTER) {
00092E 50??           01281         MOVF    r0x00, W
000930 0A04           01282         XORLW   0x04
000932 E0??           01283         BZ      _01106_DS_
000934 EF?? F0??      01284         GOTO    _00535_DS_
000938                01285 _01106_DS_:
                      01286 ;       .line   270; stateMachine.c     setState(STATE_TEMPO);
000938 0E08           01287         MOVLW   0x08
00093A 6EE5           01288         MOVWF   POSTDEC1
00093C EC?? F0??      01289         CALL    _setState
000940 52E6           01290         MOVF    POSTINC1, F
                      01291 ;       .line   272; stateMachine.c     break;
000942 EF?? F0??      01292         GOTO    _00535_DS_
000946                01293 _00318_DS_:
                      01294 ;       .line   276; stateMachine.c     if (evento == EV_UP) {
000946 50??           01295         MOVF    r0x00, W
000948 E1??           01296         BNZ     _00320_DS_
                      01297 ;       .line   277; stateMachine.c     setState(STATE_ALARME);
00094A 0E02           01298         MOVLW   0x02
00094C 6EE5           01299         MOVWF   POSTDEC1
00094E EC?? F0??      01300         CALL    _setState
000952 52E6           01301         MOVF    POSTINC1, F
000954                01302 _00320_DS_:
                      01303 ;       .line   279; stateMachine.c     if (evento == EV_DOWN) {
000954 50??           01304         MOVF    r0x00, W
000956 0A01           01305         XORLW   0x01
000958 E1??           01306         BNZ     _00322_DS_
                      01307 ;       .line   280; stateMachine.c     setState(STATE_PERIODO);
00095A 0E0E           01308         MOVLW   0x0e
00095C 6EE5           01309         MOVWF   POSTDEC1
00095E EC?? F0??      01310         CALL    _setState
000962 52E6           01311         MOVF    POSTINC1, F
000964                01312 _00322_DS_:
                      01313 ;       .line   282; stateMachine.c     if (evento == EV_RIGHT || evento == EV_LEFT) {
000964 50??           01314         MOVF    r0x00, W
000966 0A03           01315         XORLW   0x03
000968 E0??           01316         BZ      _00323_DS_
00096A 50??           01317         MOVF    r0x00, W
00096C 0A02           01318         XORLW   0x02
00096E E1??           01319         BNZ     _00324_DS_
gpasm-1.5.0 #1285 (Sep 12 2016) build/default   7-4-2017  20:24:41          PAGE 26


LOC    OBJECT CODE    LINE  SOURCE TEXT
  VALUE

000970                01320 _00323_DS_:
                      01321 ;       .line   283; stateMachine.c     setState(STATE_OP);
000970 0E00           01322         MOVLW   0x00
000972 6EE5           01323         MOVWF   POSTDEC1
000974 EC?? F0??      01324         CALL    _setState
000978 52E6           01325         MOVF    POSTINC1, F
00097A                01326 _00324_DS_:
                      01327 ;       .line   285; stateMachine.c     if (evento == EV_ENTER) {
00097A 50??           01328         MOVF    r0x00, W
00097C 0A04           01329         XORLW   0x04
00097E E0??           01330         BZ      _01114_DS_
000980 EF?? F0??      01331         GOTO    _00535_DS_
000984                01332 _01114_DS_:
                      01333 ;       .line   286; stateMachine.c     setState(CONFIG_IDIOMA);
000984 0E0D           01334         MOVLW   0x0d
000986 6EE5           01335         MOVWF   POSTDEC1
000988 EC?? F0??      01336         CALL    _setState
00098C 52E6           01337         MOVF    POSTINC1, F
                      01338 ;       .line   288; stateMachine.c     break;
00098E EF?? F0??      01339         GOTO    _00535_DS_
000992                01340 _00328_DS_:
                      01341 ;       .line   292; stateMachine.c     if (evento == EV_UP) {
000992 50??           01342         MOVF    r0x00, W
000994 E1??           01343         BNZ     _00330_DS_
                      01344 ;       .line   293; stateMachine.c     setLanguage(getLanguage() + 1);
000996 EC?? F0??      01345         CALL    _getLanguage
00099A 6E??           01346         MOVWF   r0x01
00099C 2A??           01347         INCF    r0x01, F
00099E 50??           01348         MOVF    r0x01, W
0009A0 6EE5           01349         MOVWF   POSTDEC1
0009A2 EC?? F0??      01350         CALL    _setLanguage
0009A6 52E6           01351         MOVF    POSTINC1, F
0009A8                01352 _00330_DS_:
                      01353 ;       .line   295; stateMachine.c     if (evento == EV_DOWN) {
0009A8 50??           01354         MOVF    r0x00, W
0009AA 0A01           01355         XORLW   0x01
0009AC E1??           01356         BNZ     _00332_DS_
                      01357 ;       .line   296; stateMachine.c     setLanguage(getLanguage() - 1);
0009AE EC?? F0??      01358         CALL    _getLanguage
0009B2 6E??           01359         MOVWF   r0x01
0009B4 06??           01360         DECF    r0x01, F
0009B6 50??           01361         MOVF    r0x01, W
0009B8 6EE5           01362         MOVWF   POSTDEC1
0009BA EC?? F0??      01363         CALL    _setLanguage
0009BE 52E6           01364         MOVF    POSTINC1, F
0009C0                01365 _00332_DS_:
                      01366 ;       .line   299; stateMachine.c     if (evento == EV_ENTER) {
0009C0 50??           01367         MOVF    r0x00, W
0009C2 0A04           01368         XORLW   0x04
0009C4 E0??           01369         BZ      _01118_DS_
0009C6 EF?? F0??      01370         GOTO    _00535_DS_
0009CA                01371 _01118_DS_:
                      01372 ;       .line   300; stateMachine.c     setState(STATE_IDIOMA);
gpasm-1.5.0 #1285 (Sep 12 2016) build/default   7-4-2017  20:24:41          PAGE 27


LOC    OBJECT CODE    LINE  SOURCE TEXT
  VALUE

0009CA 0E0C           01373         MOVLW   0x0c
0009CC 6EE5           01374         MOVWF   POSTDEC1
0009CE EC?? F0??      01375         CALL    _setState
0009D2 52E6           01376         MOVF    POSTINC1, F
                      01377 ;       .line   302; stateMachine.c     break;
0009D4 EF?? F0??      01378         GOTO    _00535_DS_
0009D8                01379 _00335_DS_:
                      01380 ;       .line   306; stateMachine.c     if (evento == EV_UP) {
0009D8 50??           01381         MOVF    r0x00, W
0009DA E1??           01382         BNZ     _00337_DS_
                      01383 ;       .line   307; stateMachine.c     setState(STATE_IDIOMA);
0009DC 0E0C           01384         MOVLW   0x0c
0009DE 6EE5           01385         MOVWF   POSTDEC1
0009E0 EC?? F0??      01386         CALL    _setState
0009E4 52E6           01387         MOVF    POSTINC1, F
0009E6                01388 _00337_DS_:
                      01389 ;       .line   309; stateMachine.c     if (evento == EV_DOWN) {
0009E6 50??           01390         MOVF    r0x00, W
0009E8 0A01           01391         XORLW   0x01
0009EA E1??           01392         BNZ     _00339_DS_
                      01393 ;       .line   310; stateMachine.c     setState(STATE_SECURITY);
0009EC 0E17           01394         MOVLW   0x17
0009EE 6EE5           01395         MOVWF   POSTDEC1
0009F0 EC?? F0??      01396         CALL    _setState
0009F4 52E6           01397         MOVF    POSTINC1, F
0009F6                01398 _00339_DS_:
                      01399 ;       .line   312; stateMachine.c     if (evento == EV_RIGHT || evento == EV_LEFT) {
0009F6 50??           01400         MOVF    r0x00, W
0009F8 0A03           01401         XORLW   0x03
0009FA E0??           01402         BZ      _00340_DS_
0009FC 50??           01403         MOVF    r0x00, W
0009FE 0A02           01404         XORLW   0x02
000A00 E1??           01405         BNZ     _00341_DS_
000A02                01406 _00340_DS_:
                      01407 ;       .line   313; stateMachine.c     setState(STATE_OP);
000A02 0E00           01408         MOVLW   0x00
000A04 6EE5           01409         MOVWF   POSTDEC1
000A06 EC?? F0??      01410         CALL    _setState
000A0A 52E6           01411         MOVF    POSTINC1, F
000A0C                01412 _00341_DS_:
                      01413 ;       .line   315; stateMachine.c     if (evento == EV_ENTER) {
000A0C 50??           01414         MOVF    r0x00, W
000A0E 0A04           01415         XORLW   0x04
000A10 E0??           01416         BZ      _01126_DS_
000A12 EF?? F0??      01417         GOTO    _00535_DS_
000A16                01418 _01126_DS_:
                      01419 ;       .line   316; stateMachine.c     setState(STATE_DATA);
000A16 0E0F           01420         MOVLW   0x0f
000A18 6EE5           01421         MOVWF   POSTDEC1
000A1A EC?? F0??      01422         CALL    _setState
000A1E 52E6           01423         MOVF    POSTINC1, F
                      01424 ;       .line   318; stateMachine.c     break;
000A20 EF?? F0??      01425         GOTO    _00535_DS_
gpasm-1.5.0 #1285 (Sep 12 2016) build/default   7-4-2017  20:24:41          PAGE 28


LOC    OBJECT CODE    LINE  SOURCE TEXT
  VALUE

000A24                01426 _00345_DS_:
                      01427 ;       .line   322; stateMachine.c     if (evento == EV_UP || evento == EV_DOWN) {
000A24 50??           01428         MOVF    r0x00, W
000A26 E0??           01429         BZ      _00346_DS_
000A28 50??           01430         MOVF    r0x00, W
000A2A 0A01           01431         XORLW   0x01
000A2C E1??           01432         BNZ     _00347_DS_
000A2E                01433 _00346_DS_:
                      01434 ;       .line   323; stateMachine.c     setState(STATE_HORA);
000A2E 0E13           01435         MOVLW   0x13
000A30 6EE5           01436         MOVWF   POSTDEC1
000A32 EC?? F0??      01437         CALL    _setState
000A36 52E6           01438         MOVF    POSTINC1, F
000A38                01439 _00347_DS_:
                      01440 ;       .line   325; stateMachine.c     if (evento == EV_LEFT || evento == EV_RIGHT) {
000A38 50??           01441         MOVF    r0x00, W
000A3A 0A02           01442         XORLW   0x02
000A3C E0??           01443         BZ      _00349_DS_
000A3E 50??           01444         MOVF    r0x00, W
000A40 0A03           01445         XORLW   0x03
000A42 E1??           01446         BNZ     _00350_DS_
000A44                01447 _00349_DS_:
                      01448 ;       .line   326; stateMachine.c     setState(STATE_PERIODO);
000A44 0E0E           01449         MOVLW   0x0e
000A46 6EE5           01450         MOVWF   POSTDEC1
000A48 EC?? F0??      01451         CALL    _setState
000A4C 52E6           01452         MOVF    POSTINC1, F
000A4E                01453 _00350_DS_:
                      01454 ;       .line   328; stateMachine.c     if (evento == EV_ENTER) {
000A4E 50??           01455         MOVF    r0x00, W
000A50 0A04           01456         XORLW   0x04
000A52 E0??           01457         BZ      _01134_DS_
000A54 EF?? F0??      01458         GOTO    _00535_DS_
000A58                01459 _01134_DS_:
                      01460 ;       .line   329; stateMachine.c     setState(CONFIG_DATA_D);
000A58 0E10           01461         MOVLW   0x10
000A5A 6EE5           01462         MOVWF   POSTDEC1
000A5C EC?? F0??      01463         CALL    _setState
000A60 52E6           01464         MOVF    POSTINC1, F
                      01465 ;       .line   331; stateMachine.c     break;
000A62 EF?? F0??      01466         GOTO    _00535_DS_
000A66                01467 _00354_DS_:
                      01468 ;       .line   335; stateMachine.c     if (evento == EV_UP) {
000A66 50??           01469         MOVF    r0x00, W
000A68 E1??           01470         BNZ     _00356_DS_
                      01471 ;       .line   336; stateMachine.c     dia = (dia +1)%31;
000A6A C??? F???      01472         MOVFF   _dia, r0x01
000A6E 6A??           01473         CLRF    r0x02
000A70 4A??           01474         INFSNZ  r0x01, F
000A72 2A??           01475         INCF    r0x02, F
000A74 0E00           01476         MOVLW   0x00
000A76 6EE5           01477         MOVWF   POSTDEC1
000A78 0E1F           01478         MOVLW   0x1f
gpasm-1.5.0 #1285 (Sep 12 2016) build/default   7-4-2017  20:24:41          PAGE 29


LOC    OBJECT CODE    LINE  SOURCE TEXT
  VALUE

000A7A 6EE5           01479         MOVWF   POSTDEC1
000A7C 50??           01480         MOVF    r0x02, W
000A7E 6EE5           01481         MOVWF   POSTDEC1
000A80 50??           01482         MOVF    r0x01, W
000A82 6EE5           01483         MOVWF   POSTDEC1
000A84 EC?? F0??      01484         CALL    __modsint
000A88 6E??           01485         MOVWF   r0x01
000A8A CFF3 F000      01486         MOVFF   PRODL, r0x02
000A8E 0E04           01487         MOVLW   0x04
000A90 26E1           01488         ADDWF   FSR1L, F
000A92 50??           01489         MOVF    r0x01, W
000A94 010?           01490         BANKSEL _dia
000A96 6F??           01491         MOVWF   _dia, B
000A98                01492 _00356_DS_:
                      01493 ;       .line   338; stateMachine.c     if (evento == EV_DOWN) {
000A98 50??           01494         MOVF    r0x00, W
000A9A 0A01           01495         XORLW   0x01
000A9C E1??           01496         BNZ     _00360_DS_
                      01497 ;       .line   339; stateMachine.c     dia = (dia -1)%32;
000A9E C??? F???      01498         MOVFF   _dia, r0x01
000AA2 6A??           01499         CLRF    r0x02
000AA4 0EFF           01500         MOVLW   0xff
000AA6 26??           01501         ADDWF   r0x01, F
000AA8 22??           01502         ADDWFC  r0x02, F
000AAA 0E00           01503         MOVLW   0x00
000AAC 6EE5           01504         MOVWF   POSTDEC1
000AAE 0E20           01505         MOVLW   0x20
000AB0 6EE5           01506         MOVWF   POSTDEC1
000AB2 50??           01507         MOVF    r0x02, W
000AB4 6EE5           01508         MOVWF   POSTDEC1
000AB6 50??           01509         MOVF    r0x01, W
000AB8 6EE5           01510         MOVWF   POSTDEC1
000ABA EC?? F0??      01511         CALL    __modsint
000ABE 6E??           01512         MOVWF   r0x01
000AC0 CFF3 F000      01513         MOVFF   PRODL, r0x02
000AC4 0E04           01514         MOVLW   0x04
000AC6 26E1           01515         ADDWF   FSR1L, F
000AC8 50??           01516         MOVF    r0x01, W
000ACA 010?           01517         BANKSEL _dia
000ACC 6F??           01518         MOVWF   _dia, B
000ACE 010?           01519         BANKSEL _dia
                      01520 ;       .line   340; stateMachine.c     if(dia == 0){
000AD0 51??           01521         MOVF    _dia, W, B
000AD2 E1??           01522         BNZ     _00360_DS_
                      01523 ;       .line   341; stateMachine.c     dia = 31;
000AD4 0E1F           01524         MOVLW   0x1f
000AD6 010?           01525         BANKSEL _dia
000AD8 6F??           01526         MOVWF   _dia, B
000ADA                01527 _00360_DS_:
                      01528 ;       .line   345; stateMachine.c     if (evento == EV_RIGHT) {
000ADA 50??           01529         MOVF    r0x00, W
000ADC 0A03           01530         XORLW   0x03
000ADE E1??           01531         BNZ     _00362_DS_
gpasm-1.5.0 #1285 (Sep 12 2016) build/default   7-4-2017  20:24:41          PAGE 30


LOC    OBJECT CODE    LINE  SOURCE TEXT
  VALUE

000AE0                01532 _01138_DS_:
000AE0 010?           01533         BANKSEL _dia
                      01534 ;       .line   346; stateMachine.c     rtcPutDate(dia);
000AE2 51??           01535         MOVF    _dia, W, B
000AE4 6EE5           01536         MOVWF   POSTDEC1
000AE6 EC?? F0??      01537         CALL    _rtcPutDate
000AEA 52E6           01538         MOVF    POSTINC1, F
                      01539 ;       .line   347; stateMachine.c     setState(CONFIG_DATA_M);
000AEC 0E11           01540         MOVLW   0x11
000AEE 6EE5           01541         MOVWF   POSTDEC1
000AF0 EC?? F0??      01542         CALL    _setState
000AF4 52E6           01543         MOVF    POSTINC1, F
000AF6                01544 _00362_DS_:
                      01545 ;       .line   349; stateMachine.c     if (evento == EV_LEFT) {
000AF6 50??           01546         MOVF    r0x00, W
000AF8 0A02           01547         XORLW   0x02
000AFA E1??           01548         BNZ     _00364_DS_
000AFC                01549 _01140_DS_:
000AFC 010?           01550         BANKSEL _dia
                      01551 ;       .line   350; stateMachine.c     rtcPutDate(dia);
000AFE 51??           01552         MOVF    _dia, W, B
000B00 6EE5           01553         MOVWF   POSTDEC1
000B02 EC?? F0??      01554         CALL    _rtcPutDate
000B06 52E6           01555         MOVF    POSTINC1, F
                      01556 ;       .line   351; stateMachine.c     setState(CONFIG_DATA_A);
000B08 0E12           01557         MOVLW   0x12
000B0A 6EE5           01558         MOVWF   POSTDEC1
000B0C EC?? F0??      01559         CALL    _setState
000B10 52E6           01560         MOVF    POSTINC1, F
000B12                01561 _00364_DS_:
                      01562 ;       .line   353; stateMachine.c     if (evento == EV_ENTER) {
000B12 50??           01563         MOVF    r0x00, W
000B14 0A04           01564         XORLW   0x04
000B16 E0??           01565         BZ      _01142_DS_
000B18 EF?? F0??      01566         GOTO    _00535_DS_
000B1C                01567 _01142_DS_:
000B1C 010?           01568         BANKSEL _dia
                      01569 ;       .line   354; stateMachine.c     rtcPutDate(dia);
000B1E 51??           01570         MOVF    _dia, W, B
000B20 6EE5           01571         MOVWF   POSTDEC1
000B22 EC?? F0??      01572         CALL    _rtcPutDate
000B26 52E6           01573         MOVF    POSTINC1, F
                      01574 ;       .line   355; stateMachine.c     setState(STATE_DATA);
000B28 0E0F           01575         MOVLW   0x0f
000B2A 6EE5           01576         MOVWF   POSTDEC1
000B2C EC?? F0??      01577         CALL    _setState
000B30 52E6           01578         MOVF    POSTINC1, F
                      01579 ;       .line   357; stateMachine.c     break;
000B32 EF?? F0??      01580         GOTO    _00535_DS_
000B36                01581 _00367_DS_:
                      01582 ;       .line   361; stateMachine.c     if (evento == EV_UP) {
000B36 50??           01583         MOVF    r0x00, W
000B38 E1??           01584         BNZ     _00371_DS_
gpasm-1.5.0 #1285 (Sep 12 2016) build/default   7-4-2017  20:24:41          PAGE 31


LOC    OBJECT CODE    LINE  SOURCE TEXT
  VALUE

                      01585 ;       .line   362; stateMachine.c     mes = (mes+1)%13;
000B3A C??? F???      01586         MOVFF   _mes, r0x01
000B3E 6A??           01587         CLRF    r0x02
000B40 4A??           01588         INFSNZ  r0x01, F
000B42 2A??           01589         INCF    r0x02, F
000B44 0E00           01590         MOVLW   0x00
000B46 6EE5           01591         MOVWF   POSTDEC1
000B48 0E0D           01592         MOVLW   0x0d
000B4A 6EE5           01593         MOVWF   POSTDEC1
000B4C 50??           01594         MOVF    r0x02, W
000B4E 6EE5           01595         MOVWF   POSTDEC1
000B50 50??           01596         MOVF    r0x01, W
000B52 6EE5           01597         MOVWF   POSTDEC1
000B54 EC?? F0??      01598         CALL    __modsint
000B58 6E??           01599         MOVWF   r0x01
000B5A CFF3 F000      01600         MOVFF   PRODL, r0x02
000B5E 0E04           01601         MOVLW   0x04
000B60 26E1           01602         ADDWF   FSR1L, F
000B62 50??           01603         MOVF    r0x01, W
000B64 010?           01604         BANKSEL _mes
000B66 6F??           01605         MOVWF   _mes, B
000B68 010?           01606         BANKSEL _mes
                      01607 ;       .line   363; stateMachine.c     if(mes==0){
000B6A 51??           01608         MOVF    _mes, W, B
000B6C E1??           01609         BNZ     _00371_DS_
                      01610 ;       .line   364; stateMachine.c     mes=1;
000B6E 0E01           01611         MOVLW   0x01
000B70 010?           01612         BANKSEL _mes
000B72 6F??           01613         MOVWF   _mes, B
000B74                01614 _00371_DS_:
                      01615 ;       .line   367; stateMachine.c     if (evento == EV_DOWN) {
000B74 50??           01616         MOVF    r0x00, W
000B76 0A01           01617         XORLW   0x01
000B78 E1??           01618         BNZ     _00375_DS_
                      01619 ;       .line   368; stateMachine.c     mes = (mes-1)%13;
000B7A C??? F???      01620         MOVFF   _mes, r0x01
000B7E 6A??           01621         CLRF    r0x02
000B80 0EFF           01622         MOVLW   0xff
000B82 26??           01623         ADDWF   r0x01, F
000B84 22??           01624         ADDWFC  r0x02, F
000B86 0E00           01625         MOVLW   0x00
000B88 6EE5           01626         MOVWF   POSTDEC1
000B8A 0E0D           01627         MOVLW   0x0d
000B8C 6EE5           01628         MOVWF   POSTDEC1
000B8E 50??           01629         MOVF    r0x02, W
000B90 6EE5           01630         MOVWF   POSTDEC1
000B92 50??           01631         MOVF    r0x01, W
000B94 6EE5           01632         MOVWF   POSTDEC1
000B96 EC?? F0??      01633         CALL    __modsint
000B9A 6E??           01634         MOVWF   r0x01
000B9C CFF3 F000      01635         MOVFF   PRODL, r0x02
000BA0 0E04           01636         MOVLW   0x04
000BA2 26E1           01637         ADDWF   FSR1L, F
gpasm-1.5.0 #1285 (Sep 12 2016) build/default   7-4-2017  20:24:41          PAGE 32


LOC    OBJECT CODE    LINE  SOURCE TEXT
  VALUE

000BA4 50??           01638         MOVF    r0x01, W
000BA6 010?           01639         BANKSEL _mes
000BA8 6F??           01640         MOVWF   _mes, B
000BAA 010?           01641         BANKSEL _mes
                      01642 ;       .line   369; stateMachine.c     if(mes == 0){
000BAC 51??           01643         MOVF    _mes, W, B
000BAE E1??           01644         BNZ     _00375_DS_
                      01645 ;       .line   370; stateMachine.c     mes=12;
000BB0 0E0C           01646         MOVLW   0x0c
000BB2 010?           01647         BANKSEL _mes
000BB4 6F??           01648         MOVWF   _mes, B
000BB6                01649 _00375_DS_:
                      01650 ;       .line   375; stateMachine.c     if (evento == EV_RIGHT) {
000BB6 50??           01651         MOVF    r0x00, W
000BB8 0A03           01652         XORLW   0x03
000BBA E1??           01653         BNZ     _00377_DS_
000BBC                01654 _01146_DS_:
000BBC 010?           01655         BANKSEL _mes
                      01656 ;       .line   376; stateMachine.c     rtcPutMonth(mes);
000BBE 51??           01657         MOVF    _mes, W, B
000BC0 6EE5           01658         MOVWF   POSTDEC1
000BC2 EC?? F0??      01659         CALL    _rtcPutMonth
000BC6 52E6           01660         MOVF    POSTINC1, F
                      01661 ;       .line   377; stateMachine.c     setState(CONFIG_DATA_A);
000BC8 0E12           01662         MOVLW   0x12
000BCA 6EE5           01663         MOVWF   POSTDEC1
000BCC EC?? F0??      01664         CALL    _setState
000BD0 52E6           01665         MOVF    POSTINC1, F
000BD2                01666 _00377_DS_:
                      01667 ;       .line   379; stateMachine.c     if (evento == EV_LEFT) {
000BD2 50??           01668         MOVF    r0x00, W
000BD4 0A02           01669         XORLW   0x02
000BD6 E1??           01670         BNZ     _00379_DS_
000BD8                01671 _01148_DS_:
000BD8 010?           01672         BANKSEL _mes
                      01673 ;       .line   380; stateMachine.c     rtcPutMonth(mes);
000BDA 51??           01674         MOVF    _mes, W, B
000BDC 6EE5           01675         MOVWF   POSTDEC1
000BDE EC?? F0??      01676         CALL    _rtcPutMonth
000BE2 52E6           01677         MOVF    POSTINC1, F
                      01678 ;       .line   381; stateMachine.c     setState(CONFIG_DATA_D);
000BE4 0E10           01679         MOVLW   0x10
000BE6 6EE5           01680         MOVWF   POSTDEC1
000BE8 EC?? F0??      01681         CALL    _setState
000BEC 52E6           01682         MOVF    POSTINC1, F
000BEE                01683 _00379_DS_:
                      01684 ;       .line   383; stateMachine.c     if (evento == EV_ENTER) {
000BEE 50??           01685         MOVF    r0x00, W
000BF0 0A04           01686         XORLW   0x04
000BF2 E0??           01687         BZ      _01150_DS_
000BF4 EF?? F0??      01688         GOTO    _00535_DS_
000BF8                01689 _01150_DS_:
000BF8 010?           01690         BANKSEL _mes
gpasm-1.5.0 #1285 (Sep 12 2016) build/default   7-4-2017  20:24:41          PAGE 33


LOC    OBJECT CODE    LINE  SOURCE TEXT
  VALUE

                      01691 ;       .line   384; stateMachine.c     rtcPutMonth(mes);
000BFA 51??           01692         MOVF    _mes, W, B
000BFC 6EE5           01693         MOVWF   POSTDEC1
000BFE EC?? F0??      01694         CALL    _rtcPutMonth
000C02 52E6           01695         MOVF    POSTINC1, F
                      01696 ;       .line   385; stateMachine.c     setState(STATE_DATA);
000C04 0E0F           01697         MOVLW   0x0f
000C06 6EE5           01698         MOVWF   POSTDEC1
000C08 EC?? F0??      01699         CALL    _setState
000C0C 52E6           01700         MOVF    POSTINC1, F
                      01701 ;       .line   387; stateMachine.c     break;    
000C0E EF?? F0??      01702         GOTO    _00535_DS_
000C12                01703 _00382_DS_:
                      01704 ;       .line   391; stateMachine.c     if (evento == EV_UP) {
000C12 50??           01705         MOVF    r0x00, W
000C14 E1??           01706         BNZ     _00384_DS_
                      01707 ;       .line   392; stateMachine.c     ano = (ano+1)%100;
000C16 C??? F???      01708         MOVFF   _ano, r0x01
000C1A 6A??           01709         CLRF    r0x02
000C1C 4A??           01710         INFSNZ  r0x01, F
000C1E 2A??           01711         INCF    r0x02, F
000C20 0E00           01712         MOVLW   0x00
000C22 6EE5           01713         MOVWF   POSTDEC1
000C24 0E64           01714         MOVLW   0x64
000C26 6EE5           01715         MOVWF   POSTDEC1
000C28 50??           01716         MOVF    r0x02, W
000C2A 6EE5           01717         MOVWF   POSTDEC1
000C2C 50??           01718         MOVF    r0x01, W
000C2E 6EE5           01719         MOVWF   POSTDEC1
000C30 EC?? F0??      01720         CALL    __modsint
000C34 6E??           01721         MOVWF   r0x01
000C36 CFF3 F000      01722         MOVFF   PRODL, r0x02
000C3A 0E04           01723         MOVLW   0x04
000C3C 26E1           01724         ADDWF   FSR1L, F
000C3E 50??           01725         MOVF    r0x01, W
000C40 010?           01726         BANKSEL _ano
000C42 6F??           01727         MOVWF   _ano, B
000C44                01728 _00384_DS_:
                      01729 ;       .line   395; stateMachine.c     if (evento == EV_DOWN) {
000C44 50??           01730         MOVF    r0x00, W
000C46 0A01           01731         XORLW   0x01
000C48 E1??           01732         BNZ     _00388_DS_
                      01733 ;       .line   396; stateMachine.c     ano = (ano-1)%100;
000C4A C??? F???      01734         MOVFF   _ano, r0x01
000C4E 6A??           01735         CLRF    r0x02
000C50 0EFF           01736         MOVLW   0xff
000C52 26??           01737         ADDWF   r0x01, F
000C54 22??           01738         ADDWFC  r0x02, F
000C56 0E00           01739         MOVLW   0x00
000C58 6EE5           01740         MOVWF   POSTDEC1
000C5A 0E64           01741         MOVLW   0x64
000C5C 6EE5           01742         MOVWF   POSTDEC1
000C5E 50??           01743         MOVF    r0x02, W
gpasm-1.5.0 #1285 (Sep 12 2016) build/default   7-4-2017  20:24:41          PAGE 34


LOC    OBJECT CODE    LINE  SOURCE TEXT
  VALUE

000C60 6EE5           01744         MOVWF   POSTDEC1
000C62 50??           01745         MOVF    r0x01, W
000C64 6EE5           01746         MOVWF   POSTDEC1
000C66 EC?? F0??      01747         CALL    __modsint
000C6A 6E??           01748         MOVWF   r0x01
000C6C CFF3 F000      01749         MOVFF   PRODL, r0x02
000C70 0E04           01750         MOVLW   0x04
000C72 26E1           01751         ADDWF   FSR1L, F
000C74 50??           01752         MOVF    r0x01, W
000C76 010?           01753         BANKSEL _ano
000C78 6F??           01754         MOVWF   _ano, B
000C7A 010?           01755         BANKSEL _ano
                      01756 ;       .line   397; stateMachine.c     if(ano == 255){
000C7C 51??           01757         MOVF    _ano, W, B
000C7E 0AFF           01758         XORLW   0xff
000C80 E1??           01759         BNZ     _00388_DS_
                      01760 ;       .line   398; stateMachine.c     ano = 99;
000C82 0E63           01761         MOVLW   0x63
000C84 010?           01762         BANKSEL _ano
000C86 6F??           01763         MOVWF   _ano, B
000C88                01764 _00388_DS_:
                      01765 ;       .line   402; stateMachine.c     if (evento == EV_RIGHT) {
000C88 50??           01766         MOVF    r0x00, W
000C8A 0A03           01767         XORLW   0x03
000C8C E1??           01768         BNZ     _00390_DS_
000C8E                01769 _01156_DS_:
000C8E 010?           01770         BANKSEL _ano
                      01771 ;       .line   403; stateMachine.c     rtcPutYear(ano);
000C90 51??           01772         MOVF    _ano, W, B
000C92 6EE5           01773         MOVWF   POSTDEC1
000C94 EC?? F0??      01774         CALL    _rtcPutYear
000C98 52E6           01775         MOVF    POSTINC1, F
                      01776 ;       .line   404; stateMachine.c     setState(CONFIG_DATA_D);
000C9A 0E10           01777         MOVLW   0x10
000C9C 6EE5           01778         MOVWF   POSTDEC1
000C9E EC?? F0??      01779         CALL    _setState
000CA2 52E6           01780         MOVF    POSTINC1, F
000CA4                01781 _00390_DS_:
                      01782 ;       .line   406; stateMachine.c     if (evento == EV_LEFT) {
000CA4 50??           01783         MOVF    r0x00, W
000CA6 0A02           01784         XORLW   0x02
000CA8 E1??           01785         BNZ     _00392_DS_
000CAA                01786 _01158_DS_:
000CAA 010?           01787         BANKSEL _ano
                      01788 ;       .line   407; stateMachine.c     rtcPutYear(ano);
000CAC 51??           01789         MOVF    _ano, W, B
000CAE 6EE5           01790         MOVWF   POSTDEC1
000CB0 EC?? F0??      01791         CALL    _rtcPutYear
000CB4 52E6           01792         MOVF    POSTINC1, F
                      01793 ;       .line   408; stateMachine.c     setState(CONFIG_DATA_M);
000CB6 0E11           01794         MOVLW   0x11
000CB8 6EE5           01795         MOVWF   POSTDEC1
000CBA EC?? F0??      01796         CALL    _setState
gpasm-1.5.0 #1285 (Sep 12 2016) build/default   7-4-2017  20:24:41          PAGE 35


LOC    OBJECT CODE    LINE  SOURCE TEXT
  VALUE

000CBE 52E6           01797         MOVF    POSTINC1, F
000CC0                01798 _00392_DS_:
                      01799 ;       .line   410; stateMachine.c     if (evento == EV_ENTER) {
000CC0 50??           01800         MOVF    r0x00, W
000CC2 0A04           01801         XORLW   0x04
000CC4 E0??           01802         BZ      _01160_DS_
000CC6 EF?? F0??      01803         GOTO    _00535_DS_
000CCA                01804 _01160_DS_:
000CCA 010?           01805         BANKSEL _ano
                      01806 ;       .line   411; stateMachine.c     rtcPutYear(ano);
000CCC 51??           01807         MOVF    _ano, W, B
000CCE 6EE5           01808         MOVWF   POSTDEC1
000CD0 EC?? F0??      01809         CALL    _rtcPutYear
000CD4 52E6           01810         MOVF    POSTINC1, F
                      01811 ;       .line   412; stateMachine.c     setState(STATE_DATA);
000CD6 0E0F           01812         MOVLW   0x0f
000CD8 6EE5           01813         MOVWF   POSTDEC1
000CDA EC?? F0??      01814         CALL    _setState
000CDE 52E6           01815         MOVF    POSTINC1, F
                      01816 ;       .line   414; stateMachine.c     break;
000CE0 EF?? F0??      01817         GOTO    _00535_DS_
000CE4                01818 _00395_DS_:
                      01819 ;       .line   419; stateMachine.c     if (evento == EV_UP || evento == EV_DOWN) {
000CE4 50??           01820         MOVF    r0x00, W
000CE6 E0??           01821         BZ      _00396_DS_
000CE8 50??           01822         MOVF    r0x00, W
000CEA 0A01           01823         XORLW   0x01
000CEC E1??           01824         BNZ     _00397_DS_
000CEE                01825 _00396_DS_:
                      01826 ;       .line   420; stateMachine.c     setState(STATE_DATA);
000CEE 0E0F           01827         MOVLW   0x0f
000CF0 6EE5           01828         MOVWF   POSTDEC1
000CF2 EC?? F0??      01829         CALL    _setState
000CF6 52E6           01830         MOVF    POSTINC1, F
000CF8                01831 _00397_DS_:
                      01832 ;       .line   423; stateMachine.c     if (evento == EV_RIGHT || evento == EV_LEFT) {
000CF8 50??           01833         MOVF    r0x00, W
000CFA 0A03           01834         XORLW   0x03
000CFC E0??           01835         BZ      _00399_DS_
000CFE 50??           01836         MOVF    r0x00, W
000D00 0A02           01837         XORLW   0x02
000D02 E1??           01838         BNZ     _00400_DS_
000D04                01839 _00399_DS_:
                      01840 ;       .line   424; stateMachine.c     setState(STATE_PERIODO);
000D04 0E0E           01841         MOVLW   0x0e
000D06 6EE5           01842         MOVWF   POSTDEC1
000D08 EC?? F0??      01843         CALL    _setState
000D0C 52E6           01844         MOVF    POSTINC1, F
000D0E                01845 _00400_DS_:
                      01846 ;       .line   427; stateMachine.c     if (evento == EV_ENTER) {
000D0E 50??           01847         MOVF    r0x00, W
000D10 0A04           01848         XORLW   0x04
000D12 E0??           01849         BZ      _01168_DS_
gpasm-1.5.0 #1285 (Sep 12 2016) build/default   7-4-2017  20:24:41          PAGE 36


LOC    OBJECT CODE    LINE  SOURCE TEXT
  VALUE

000D14 EF?? F0??      01850         GOTO    _00535_DS_
000D18                01851 _01168_DS_:
                      01852 ;       .line   428; stateMachine.c     setState(CONFIG_HORA);
000D18 0E14           01853         MOVLW   0x14
000D1A 6EE5           01854         MOVWF   POSTDEC1
000D1C EC?? F0??      01855         CALL    _setState
000D20 52E6           01856         MOVF    POSTINC1, F
                      01857 ;       .line   430; stateMachine.c     break;
000D22 EF?? F0??      01858         GOTO    _00535_DS_
000D26                01859 _00404_DS_:
                      01860 ;       .line   434; stateMachine.c     if (evento == EV_UP) {
000D26 50??           01861         MOVF    r0x00, W
000D28 E1??           01862         BNZ     _00406_DS_
                      01863 ;       .line   435; stateMachine.c     hora = (hora + 1)%24;
000D2A C??? F???      01864         MOVFF   _hora, r0x01
000D2E 6A??           01865         CLRF    r0x02
000D30 4A??           01866         INFSNZ  r0x01, F
000D32 2A??           01867         INCF    r0x02, F
000D34 0E00           01868         MOVLW   0x00
000D36 6EE5           01869         MOVWF   POSTDEC1
000D38 0E18           01870         MOVLW   0x18
000D3A 6EE5           01871         MOVWF   POSTDEC1
000D3C 50??           01872         MOVF    r0x02, W
000D3E 6EE5           01873         MOVWF   POSTDEC1
000D40 50??           01874         MOVF    r0x01, W
000D42 6EE5           01875         MOVWF   POSTDEC1
000D44 EC?? F0??      01876         CALL    __modsint
000D48 6E??           01877         MOVWF   r0x01
000D4A CFF3 F000      01878         MOVFF   PRODL, r0x02
000D4E 0E04           01879         MOVLW   0x04
000D50 26E1           01880         ADDWF   FSR1L, F
000D52 50??           01881         MOVF    r0x01, W
000D54 010?           01882         BANKSEL _hora
000D56 6F??           01883         MOVWF   _hora, B
000D58                01884 _00406_DS_:
                      01885 ;       .line   437; stateMachine.c     if (evento == EV_DOWN && hora !=0) {
000D58 6A??           01886         CLRF    r0x01
000D5A 50??           01887         MOVF    r0x00, W
000D5C 0A01           01888         XORLW   0x01
000D5E E1??           01889         BNZ     _01170_DS_
000D60 2A??           01890         INCF    r0x01, F
000D62                01891 _01170_DS_:
000D62 50??           01892         MOVF    r0x01, W
000D64 E0??           01893         BZ      _00408_DS_
000D66 010?           01894         BANKSEL _hora
000D68 51??           01895         MOVF    _hora, W, B
000D6A E0??           01896         BZ      _00408_DS_
                      01897 ;       .line   438; stateMachine.c     hora = (hora - 1)%24;
000D6C C??? F???      01898         MOVFF   _hora, r0x02
000D70 6A??           01899         CLRF    r0x03
000D72 0EFF           01900         MOVLW   0xff
000D74 26??           01901         ADDWF   r0x02, F
000D76 22??           01902         ADDWFC  r0x03, F
gpasm-1.5.0 #1285 (Sep 12 2016) build/default   7-4-2017  20:24:41          PAGE 37


LOC    OBJECT CODE    LINE  SOURCE TEXT
  VALUE

000D78 0E00           01903         MOVLW   0x00
000D7A 6EE5           01904         MOVWF   POSTDEC1
000D7C 0E18           01905         MOVLW   0x18
000D7E 6EE5           01906         MOVWF   POSTDEC1
000D80 50??           01907         MOVF    r0x03, W
000D82 6EE5           01908         MOVWF   POSTDEC1
000D84 50??           01909         MOVF    r0x02, W
000D86 6EE5           01910         MOVWF   POSTDEC1
000D88 EC?? F0??      01911         CALL    __modsint
000D8C 6E??           01912         MOVWF   r0x02
000D8E CFF3 F000      01913         MOVFF   PRODL, r0x03
000D92 0E04           01914         MOVLW   0x04
000D94 26E1           01915         ADDWF   FSR1L, F
000D96 50??           01916         MOVF    r0x02, W
000D98 010?           01917         BANKSEL _hora
000D9A 6F??           01918         MOVWF   _hora, B
000D9C                01919 _00408_DS_:
                      01920 ;       .line   441; stateMachine.c     if (evento == EV_DOWN && hora == 0) {
000D9C 50??           01921         MOVF    r0x01, W
000D9E E0??           01922         BZ      _00411_DS_
000DA0 010?           01923         BANKSEL _hora
000DA2 51??           01924         MOVF    _hora, W, B
000DA4 E1??           01925         BNZ     _00411_DS_
                      01926 ;       .line   442; stateMachine.c     hora = 23;
000DA6 0E17           01927         MOVLW   0x17
000DA8 010?           01928         BANKSEL _hora
000DAA 6F??           01929         MOVWF   _hora, B
000DAC                01930 _00411_DS_:
                      01931 ;       .line   446; stateMachine.c     if (evento == EV_RIGHT) {
000DAC 50??           01932         MOVF    r0x00, W
000DAE 0A03           01933         XORLW   0x03
000DB0 E1??           01934         BNZ     _00414_DS_
000DB2                01935 _01172_DS_:
000DB2 010?           01936         BANKSEL _hora
                      01937 ;       .line   447; stateMachine.c     rtcPutHours(hora);
000DB4 51??           01938         MOVF    _hora, W, B
000DB6 6EE5           01939         MOVWF   POSTDEC1
000DB8 EC?? F0??      01940         CALL    _rtcPutHours
000DBC 52E6           01941         MOVF    POSTINC1, F
                      01942 ;       .line   448; stateMachine.c     setState(CONFIG_MINUTOS_DEC);
000DBE 0E15           01943         MOVLW   0x15
000DC0 6EE5           01944         MOVWF   POSTDEC1
000DC2 EC?? F0??      01945         CALL    _setState
000DC6 52E6           01946         MOVF    POSTINC1, F
000DC8                01947 _00414_DS_:
                      01948 ;       .line   450; stateMachine.c     if (evento == EV_LEFT) {
000DC8 50??           01949         MOVF    r0x00, W
000DCA 0A02           01950         XORLW   0x02
000DCC E1??           01951         BNZ     _00416_DS_
000DCE                01952 _01174_DS_:
000DCE 010?           01953         BANKSEL _hora
                      01954 ;       .line   451; stateMachine.c     rtcPutHours(hora);
000DD0 51??           01955         MOVF    _hora, W, B
gpasm-1.5.0 #1285 (Sep 12 2016) build/default   7-4-2017  20:24:41          PAGE 38


LOC    OBJECT CODE    LINE  SOURCE TEXT
  VALUE

000DD2 6EE5           01956         MOVWF   POSTDEC1
000DD4 EC?? F0??      01957         CALL    _rtcPutHours
000DD8 52E6           01958         MOVF    POSTINC1, F
                      01959 ;       .line   452; stateMachine.c     setState(CONFIG_MINUTOS_UNI);
000DDA 0E16           01960         MOVLW   0x16
000DDC 6EE5           01961         MOVWF   POSTDEC1
000DDE EC?? F0??      01962         CALL    _setState
000DE2 52E6           01963         MOVF    POSTINC1, F
000DE4                01964 _00416_DS_:
                      01965 ;       .line   454; stateMachine.c     if (evento == EV_ENTER) {
000DE4 50??           01966         MOVF    r0x00, W
000DE6 0A04           01967         XORLW   0x04
000DE8 E0??           01968         BZ      _01176_DS_
000DEA EF?? F0??      01969         GOTO    _00535_DS_
000DEE                01970 _01176_DS_:
000DEE 010?           01971         BANKSEL _hora
                      01972 ;       .line   455; stateMachine.c     rtcPutHours(hora);                
000DF0 51??           01973         MOVF    _hora, W, B
000DF2 6EE5           01974         MOVWF   POSTDEC1
000DF4 EC?? F0??      01975         CALL    _rtcPutHours
000DF8 52E6           01976         MOVF    POSTINC1, F
                      01977 ;       .line   456; stateMachine.c     setState(STATE_HORA);
000DFA 0E13           01978         MOVLW   0x13
000DFC 6EE5           01979         MOVWF   POSTDEC1
000DFE EC?? F0??      01980         CALL    _setState
000E02 52E6           01981         MOVF    POSTINC1, F
                      01982 ;       .line   458; stateMachine.c     break;
000E04 EF?? F0??      01983         GOTO    _00535_DS_
000E08                01984 _00419_DS_:
                      01985 ;       .line   463; stateMachine.c     if (evento == EV_UP) {
000E08 50??           01986         MOVF    r0x00, W
000E0A E1??           01987         BNZ     _00421_DS_
                      01988 ;       .line   464; stateMachine.c     min = (min+10)%60;
000E0C C??? F???      01989         MOVFF   _min, r0x01
000E10 6A??           01990         CLRF    r0x02
000E12 0E0A           01991         MOVLW   0x0a
000E14 26??           01992         ADDWF   r0x01, F
000E16 B0D8           01993         BTFSC   STATUS, 0
000E18 2A??           01994         INCF    r0x02, F
000E1A 0E00           01995         MOVLW   0x00
000E1C 6EE5           01996         MOVWF   POSTDEC1
000E1E 0E3C           01997         MOVLW   0x3c
000E20 6EE5           01998         MOVWF   POSTDEC1
000E22 50??           01999         MOVF    r0x02, W
000E24 6EE5           02000         MOVWF   POSTDEC1
000E26 50??           02001         MOVF    r0x01, W
000E28 6EE5           02002         MOVWF   POSTDEC1
000E2A EC?? F0??      02003         CALL    __modsint
000E2E 6E??           02004         MOVWF   r0x01
000E30 CFF3 F000      02005         MOVFF   PRODL, r0x02
000E34 0E04           02006         MOVLW   0x04
000E36 26E1           02007         ADDWF   FSR1L, F
000E38 50??           02008         MOVF    r0x01, W
gpasm-1.5.0 #1285 (Sep 12 2016) build/default   7-4-2017  20:24:41          PAGE 39


LOC    OBJECT CODE    LINE  SOURCE TEXT
  VALUE

000E3A 010?           02009         BANKSEL _min
000E3C 6F??           02010         MOVWF   _min, B
000E3E                02011 _00421_DS_:
                      02012 ;       .line   466; stateMachine.c     if (evento == EV_DOWN && min>=10) {
000E3E 6A??           02013         CLRF    r0x01
000E40 50??           02014         MOVF    r0x00, W
000E42 0A01           02015         XORLW   0x01
000E44 E1??           02016         BNZ     _01178_DS_
000E46 2A??           02017         INCF    r0x01, F
000E48                02018 _01178_DS_:
000E48 50??           02019         MOVF    r0x01, W
000E4A E0??           02020         BZ      _00423_DS_
000E4C 0E0A           02021         MOVLW   0x0a
000E4E 010?           02022         BANKSEL _min
000E50 5D??           02023         SUBWF   _min, W, B
000E52 E3??           02024         BNC     _00423_DS_
                      02025 ;       .line   467; stateMachine.c     min = (min-10)%60;
000E54 C??? F???      02026         MOVFF   _min, r0x02
000E58 6A??           02027         CLRF    r0x03
000E5A 0EF6           02028         MOVLW   0xf6
000E5C 26??           02029         ADDWF   r0x02, F
000E5E A0D8           02030         BTFSS   STATUS, 0
000E60 06??           02031         DECF    r0x03, F
000E62 0E00           02032         MOVLW   0x00
000E64 6EE5           02033         MOVWF   POSTDEC1
000E66 0E3C           02034         MOVLW   0x3c
000E68 6EE5           02035         MOVWF   POSTDEC1
000E6A 50??           02036         MOVF    r0x03, W
000E6C 6EE5           02037         MOVWF   POSTDEC1
000E6E 50??           02038         MOVF    r0x02, W
000E70 6EE5           02039         MOVWF   POSTDEC1
000E72 EC?? F0??      02040         CALL    __modsint
000E76 6E??           02041         MOVWF   r0x02
000E78 CFF3 F000      02042         MOVFF   PRODL, r0x03
000E7C 0E04           02043         MOVLW   0x04
000E7E 26E1           02044         ADDWF   FSR1L, F
000E80 50??           02045         MOVF    r0x02, W
000E82 010?           02046         BANKSEL _min
000E84 6F??           02047         MOVWF   _min, B
000E86                02048 _00423_DS_:
                      02049 ;       .line   469; stateMachine.c     if (evento == EV_DOWN && min == 0){
000E86 50??           02050         MOVF    r0x01, W
000E88 E0??           02051         BZ      _00426_DS_
000E8A 010?           02052         BANKSEL _min
000E8C 51??           02053         MOVF    _min, W, B
000E8E E1??           02054         BNZ     _00426_DS_
                      02055 ;       .line   470; stateMachine.c     min = 50;
000E90 0E32           02056         MOVLW   0x32
000E92 010?           02057         BANKSEL _min
000E94 6F??           02058         MOVWF   _min, B
000E96                02059 _00426_DS_:
                      02060 ;       .line   474; stateMachine.c     if (evento == EV_RIGHT) {
000E96 50??           02061         MOVF    r0x00, W
gpasm-1.5.0 #1285 (Sep 12 2016) build/default   7-4-2017  20:24:41          PAGE 40


LOC    OBJECT CODE    LINE  SOURCE TEXT
  VALUE

000E98 0A03           02062         XORLW   0x03
000E9A E1??           02063         BNZ     _00429_DS_
000E9C                02064 _01181_DS_:
000E9C 010?           02065         BANKSEL _min
                      02066 ;       .line   475; stateMachine.c     rtcPutMinutes(min);
000E9E 51??           02067         MOVF    _min, W, B
000EA0 6EE5           02068         MOVWF   POSTDEC1
000EA2 EC?? F0??      02069         CALL    _rtcPutMinutes
000EA6 52E6           02070         MOVF    POSTINC1, F
                      02071 ;       .line   476; stateMachine.c     setState(CONFIG_MINUTOS_UNI);
000EA8 0E16           02072         MOVLW   0x16
000EAA 6EE5           02073         MOVWF   POSTDEC1
000EAC EC?? F0??      02074         CALL    _setState
000EB0 52E6           02075         MOVF    POSTINC1, F
000EB2                02076 _00429_DS_:
                      02077 ;       .line   478; stateMachine.c     if (evento == EV_LEFT) {
000EB2 50??           02078         MOVF    r0x00, W
000EB4 0A02           02079         XORLW   0x02
000EB6 E1??           02080         BNZ     _00431_DS_
000EB8                02081 _01183_DS_:
000EB8 010?           02082         BANKSEL _min
                      02083 ;       .line   479; stateMachine.c     rtcPutMinutes(min);
000EBA 51??           02084         MOVF    _min, W, B
000EBC 6EE5           02085         MOVWF   POSTDEC1
000EBE EC?? F0??      02086         CALL    _rtcPutMinutes
000EC2 52E6           02087         MOVF    POSTINC1, F
                      02088 ;       .line   480; stateMachine.c     setState(CONFIG_HORA);
000EC4 0E14           02089         MOVLW   0x14
000EC6 6EE5           02090         MOVWF   POSTDEC1
000EC8 EC?? F0??      02091         CALL    _setState
000ECC 52E6           02092         MOVF    POSTINC1, F
000ECE                02093 _00431_DS_:
                      02094 ;       .line   482; stateMachine.c     if (evento == EV_ENTER) {
000ECE 50??           02095         MOVF    r0x00, W
000ED0 0A04           02096         XORLW   0x04
000ED2 E0??           02097         BZ      _01185_DS_
000ED4 EF?? F0??      02098         GOTO    _00535_DS_
000ED8                02099 _01185_DS_:
000ED8 010?           02100         BANKSEL _min
                      02101 ;       .line   483; stateMachine.c     rtcPutMinutes(min);
000EDA 51??           02102         MOVF    _min, W, B
000EDC 6EE5           02103         MOVWF   POSTDEC1
000EDE EC?? F0??      02104         CALL    _rtcPutMinutes
000EE2 52E6           02105         MOVF    POSTINC1, F
                      02106 ;       .line   484; stateMachine.c     setState(STATE_HORA);
000EE4 0E13           02107         MOVLW   0x13
000EE6 6EE5           02108         MOVWF   POSTDEC1
000EE8 EC?? F0??      02109         CALL    _setState
000EEC 52E6           02110         MOVF    POSTINC1, F
                      02111 ;       .line   486; stateMachine.c     break;
000EEE EF?? F0??      02112         GOTO    _00535_DS_
000EF2                02113 _00434_DS_:
                      02114 ;       .line   490; stateMachine.c     if (evento == EV_UP) {
gpasm-1.5.0 #1285 (Sep 12 2016) build/default   7-4-2017  20:24:41          PAGE 41


LOC    OBJECT CODE    LINE  SOURCE TEXT
  VALUE

000EF2 50??           02115         MOVF    r0x00, W
000EF4 E1??           02116         BNZ     _00436_DS_
                      02117 ;       .line   491; stateMachine.c     min = (min+1)%60;
000EF6 C??? F???      02118         MOVFF   _min, r0x01
000EFA 6A??           02119         CLRF    r0x02
000EFC 4A??           02120         INFSNZ  r0x01, F
000EFE 2A??           02121         INCF    r0x02, F
000F00 0E00           02122         MOVLW   0x00
000F02 6EE5           02123         MOVWF   POSTDEC1
000F04 0E3C           02124         MOVLW   0x3c
000F06 6EE5           02125         MOVWF   POSTDEC1
000F08 50??           02126         MOVF    r0x02, W
000F0A 6EE5           02127         MOVWF   POSTDEC1
000F0C 50??           02128         MOVF    r0x01, W
000F0E 6EE5           02129         MOVWF   POSTDEC1
000F10 EC?? F0??      02130         CALL    __modsint
000F14 6E??           02131         MOVWF   r0x01
000F16 CFF3 F000      02132         MOVFF   PRODL, r0x02
000F1A 0E04           02133         MOVLW   0x04
000F1C 26E1           02134         ADDWF   FSR1L, F
000F1E 50??           02135         MOVF    r0x01, W
000F20 010?           02136         BANKSEL _min
000F22 6F??           02137         MOVWF   _min, B
000F24                02138 _00436_DS_:
                      02139 ;       .line   493; stateMachine.c     if (evento == EV_DOWN && min>=1) {
000F24 6A??           02140         CLRF    r0x01
000F26 50??           02141         MOVF    r0x00, W
000F28 0A01           02142         XORLW   0x01
000F2A E1??           02143         BNZ     _01187_DS_
000F2C 2A??           02144         INCF    r0x01, F
000F2E                02145 _01187_DS_:
000F2E 50??           02146         MOVF    r0x01, W
000F30 E0??           02147         BZ      _00438_DS_
000F32 0E01           02148         MOVLW   0x01
000F34 010?           02149         BANKSEL _min
000F36 5D??           02150         SUBWF   _min, W, B
000F38 E3??           02151         BNC     _00438_DS_
                      02152 ;       .line   494; stateMachine.c     min = (min-1)%60;
000F3A C??? F???      02153         MOVFF   _min, r0x02
000F3E 6A??           02154         CLRF    r0x03
000F40 0EFF           02155         MOVLW   0xff
000F42 26??           02156         ADDWF   r0x02, F
000F44 22??           02157         ADDWFC  r0x03, F
000F46 0E00           02158         MOVLW   0x00
000F48 6EE5           02159         MOVWF   POSTDEC1
000F4A 0E3C           02160         MOVLW   0x3c
000F4C 6EE5           02161         MOVWF   POSTDEC1
000F4E 50??           02162         MOVF    r0x03, W
000F50 6EE5           02163         MOVWF   POSTDEC1
000F52 50??           02164         MOVF    r0x02, W
000F54 6EE5           02165         MOVWF   POSTDEC1
000F56 EC?? F0??      02166         CALL    __modsint
000F5A 6E??           02167         MOVWF   r0x02
gpasm-1.5.0 #1285 (Sep 12 2016) build/default   7-4-2017  20:24:41          PAGE 42


LOC    OBJECT CODE    LINE  SOURCE TEXT
  VALUE

000F5C CFF3 F000      02168         MOVFF   PRODL, r0x03
000F60 0E04           02169         MOVLW   0x04
000F62 26E1           02170         ADDWF   FSR1L, F
000F64 50??           02171         MOVF    r0x02, W
000F66 010?           02172         BANKSEL _min
000F68 6F??           02173         MOVWF   _min, B
000F6A                02174 _00438_DS_:
                      02175 ;       .line   496; stateMachine.c     if (evento == EV_DOWN && min == 0){
000F6A 50??           02176         MOVF    r0x01, W
000F6C E0??           02177         BZ      _00441_DS_
000F6E 010?           02178         BANKSEL _min
000F70 51??           02179         MOVF    _min, W, B
000F72 E1??           02180         BNZ     _00441_DS_
                      02181 ;       .line   497; stateMachine.c     min = 59;
000F74 0E3B           02182         MOVLW   0x3b
000F76 010?           02183         BANKSEL _min
000F78 6F??           02184         MOVWF   _min, B
000F7A                02185 _00441_DS_:
                      02186 ;       .line   500; stateMachine.c     if (evento == EV_RIGHT) {
000F7A 50??           02187         MOVF    r0x00, W
000F7C 0A03           02188         XORLW   0x03
000F7E E1??           02189         BNZ     _00444_DS_
000F80                02190 _01190_DS_:
000F80 010?           02191         BANKSEL _min
                      02192 ;       .line   501; stateMachine.c     rtcPutMinutes(min);
000F82 51??           02193         MOVF    _min, W, B
000F84 6EE5           02194         MOVWF   POSTDEC1
000F86 EC?? F0??      02195         CALL    _rtcPutMinutes
000F8A 52E6           02196         MOVF    POSTINC1, F
                      02197 ;       .line   502; stateMachine.c     setState(CONFIG_HORA);
000F8C 0E14           02198         MOVLW   0x14
000F8E 6EE5           02199         MOVWF   POSTDEC1
000F90 EC?? F0??      02200         CALL    _setState
000F94 52E6           02201         MOVF    POSTINC1, F
000F96                02202 _00444_DS_:
                      02203 ;       .line   504; stateMachine.c     if (evento == EV_LEFT) {
000F96 50??           02204         MOVF    r0x00, W
000F98 0A02           02205         XORLW   0x02
000F9A E1??           02206         BNZ     _00446_DS_
000F9C                02207 _01192_DS_:
000F9C 010?           02208         BANKSEL _min
                      02209 ;       .line   505; stateMachine.c     rtcPutMinutes(min);
000F9E 51??           02210         MOVF    _min, W, B
000FA0 6EE5           02211         MOVWF   POSTDEC1
000FA2 EC?? F0??      02212         CALL    _rtcPutMinutes
000FA6 52E6           02213         MOVF    POSTINC1, F
                      02214 ;       .line   506; stateMachine.c     setState(CONFIG_MINUTOS_DEC);
000FA8 0E15           02215         MOVLW   0x15
000FAA 6EE5           02216         MOVWF   POSTDEC1
000FAC EC?? F0??      02217         CALL    _setState
000FB0 52E6           02218         MOVF    POSTINC1, F
000FB2                02219 _00446_DS_:
                      02220 ;       .line   508; stateMachine.c     if (evento == EV_ENTER) {
gpasm-1.5.0 #1285 (Sep 12 2016) build/default   7-4-2017  20:24:41          PAGE 43


LOC    OBJECT CODE    LINE  SOURCE TEXT
  VALUE

000FB2 50??           02221         MOVF    r0x00, W
000FB4 0A04           02222         XORLW   0x04
000FB6 E0??           02223         BZ      _01194_DS_
000FB8 D???           02224         BRA     _00535_DS_
000FBA                02225 _01194_DS_:
000FBA 010?           02226         BANKSEL _min
                      02227 ;       .line   509; stateMachine.c     rtcPutMinutes(min);
000FBC 51??           02228         MOVF    _min, W, B
000FBE 6EE5           02229         MOVWF   POSTDEC1
000FC0 EC?? F0??      02230         CALL    _rtcPutMinutes
000FC4 52E6           02231         MOVF    POSTINC1, F
                      02232 ;       .line   510; stateMachine.c     setState(STATE_HORA);
000FC6 0E13           02233         MOVLW   0x13
000FC8 6EE5           02234         MOVWF   POSTDEC1
000FCA EC?? F0??      02235         CALL    _setState
000FCE 52E6           02236         MOVF    POSTINC1, F
                      02237 ;       .line   512; stateMachine.c     break;
000FD0 D???           02238         BRA     _00535_DS_
000FD2                02239 _00449_DS_:
                      02240 ;       .line   516; stateMachine.c     if (evento == EV_UP) {
000FD2 50??           02241         MOVF    r0x00, W
000FD4 E1??           02242         BNZ     _00451_DS_
                      02243 ;       .line   517; stateMachine.c     setState(STATE_PERIODO);
000FD6 0E0E           02244         MOVLW   0x0e
000FD8 6EE5           02245         MOVWF   POSTDEC1
000FDA EC?? F0??      02246         CALL    _setState
000FDE 52E6           02247         MOVF    POSTINC1, F
000FE0                02248 _00451_DS_:
                      02249 ;       .line   519; stateMachine.c     if (evento == EV_DOWN) {
000FE0 50??           02250         MOVF    r0x00, W
000FE2 0A01           02251         XORLW   0x01
000FE4 E1??           02252         BNZ     _00453_DS_
                      02253 ;       .line   520; stateMachine.c     setState(STATE_RESET);
000FE6 0E1F           02254         MOVLW   0x1f
000FE8 6EE5           02255         MOVWF   POSTDEC1
000FEA EC?? F0??      02256         CALL    _setState
000FEE 52E6           02257         MOVF    POSTINC1, F
000FF0                02258 _00453_DS_:
                      02259 ;       .line   522; stateMachine.c     if (evento == EV_ENTER) {
000FF0 50??           02260         MOVF    r0x00, W
000FF2 0A04           02261         XORLW   0x04
000FF4 E1??           02262         BNZ     _00455_DS_
                      02263 ;       .line   523; stateMachine.c     setState(CONFIG_SENHA);
000FF6 0E18           02264         MOVLW   0x18
000FF8 6EE5           02265         MOVWF   POSTDEC1
000FFA EC?? F0??      02266         CALL    _setState
000FFE 52E6           02267         MOVF    POSTINC1, F
001000                02268 _00455_DS_:
                      02269 ;       .line   525; stateMachine.c     if (evento == EV_LEFT || evento ==  EV_RIGHT) {
001000 50??           02270         MOVF    r0x00, W
001002 0A02           02271         XORLW   0x02
001004 E0??           02272         BZ      _00456_DS_
001006 50??           02273         MOVF    r0x00, W
gpasm-1.5.0 #1285 (Sep 12 2016) build/default   7-4-2017  20:24:41          PAGE 44


LOC    OBJECT CODE    LINE  SOURCE TEXT
  VALUE

001008 0A03           02274         XORLW   0x03
00100A E0??           02275         BZ      _00456_DS_
00100C D???           02276         BRA     _00535_DS_
00100E                02277 _00456_DS_:
                      02278 ;       .line   526; stateMachine.c     setState(STATE_OP);
00100E 0E00           02279         MOVLW   0x00
001010 6EE5           02280         MOVWF   POSTDEC1
001012 EC?? F0??      02281         CALL    _setState
001016 52E6           02282         MOVF    POSTINC1, F
                      02283 ;       .line   528; stateMachine.c     break;
001018 D???           02284         BRA     _00535_DS_
00101A                02285 _00459_DS_:
                      02286 ;       .line   532; stateMachine.c     if (evento == EV_UP || evento == EV_DOWN) {
00101A 50??           02287         MOVF    r0x00, W
00101C E0??           02288         BZ      _00460_DS_
00101E 50??           02289         MOVF    r0x00, W
001020 0A01           02290         XORLW   0x01
001022 E1??           02291         BNZ     _00461_DS_
001024                02292 _00460_DS_:
                      02293 ;       .line   533; stateMachine.c     setState(CONFIG_HABILITA);
001024 0E1B           02294         MOVLW   0x1b
001026 6EE5           02295         MOVWF   POSTDEC1
001028 EC?? F0??      02296         CALL    _setState
00102C 52E6           02297         MOVF    POSTINC1, F
00102E                02298 _00461_DS_:
                      02299 ;       .line   535; stateMachine.c     if (evento == EV_ENTER){
00102E 50??           02300         MOVF    r0x00, W
001030 0A04           02301         XORLW   0x04
001032 E1??           02302         BNZ     _00464_DS_
                      02303 ;       .line   536; stateMachine.c     setState(SECURITY_SENHA);                
001034 0E19           02304         MOVLW   0x19
001036 6EE5           02305         MOVWF   POSTDEC1
001038 EC?? F0??      02306         CALL    _setState
00103C 52E6           02307         MOVF    POSTINC1, F
00103E                02308 _00464_DS_:
                      02309 ;       .line   538; stateMachine.c     if (evento == EV_LEFT || evento ==  EV_RIGHT) {
00103E 50??           02310         MOVF    r0x00, W
001040 0A02           02311         XORLW   0x02
001042 E0??           02312         BZ      _00465_DS_
001044 50??           02313         MOVF    r0x00, W
001046 0A03           02314         XORLW   0x03
001048 E0??           02315         BZ      _00465_DS_
00104A D???           02316         BRA     _00535_DS_
00104C                02317 _00465_DS_:
                      02318 ;       .line   539; stateMachine.c     setState(STATE_SECURITY);
00104C 0E17           02319         MOVLW   0x17
00104E 6EE5           02320         MOVWF   POSTDEC1
001050 EC?? F0??      02321         CALL    _setState
001054 52E6           02322         MOVF    POSTINC1, F
                      02323 ;       .line   541; stateMachine.c     break;
001056 D???           02324         BRA     _00535_DS_
001058                02325 _00468_DS_:
                      02326 ;       .line   547; stateMachine.c     if(getSenha_try() ==  3){
gpasm-1.5.0 #1285 (Sep 12 2016) build/default   7-4-2017  20:24:41          PAGE 45


LOC    OBJECT CODE    LINE  SOURCE TEXT
  VALUE

001058 EC?? F0??      02327         CALL    _getSenha_try
00105C 6E??           02328         MOVWF   r0x01
00105E CFF3 F000      02329         MOVFF   PRODL, r0x02
001062 50??           02330         MOVF    r0x01, W
001064 0A03           02331         XORLW   0x03
001066 E1??           02332         BNZ     _01211_DS_
001068 50??           02333         MOVF    r0x02, W
00106A E0??           02334         BZ      _01212_DS_
00106C                02335 _01211_DS_:
00106C D???           02336         BRA     _00470_DS_
00106E                02337 _01212_DS_:
                      02338 ;       .line   548; stateMachine.c     setState(CONFIG_SENHA);
00106E 0E18           02339         MOVLW   0x18
001070 6EE5           02340         MOVWF   POSTDEC1
001072 EC?? F0??      02341         CALL    _setState
001076 52E6           02342         MOVF    POSTINC1, F
001078                02343 _00470_DS_:
001078 010?           02344         BANKSEL _senha
                      02345 ;       .line   550; stateMachine.c     if (testSenha(senha) == 1){
00107A 51??           02346         MOVF    _senha, W, B
00107C 6EE5           02347         MOVWF   POSTDEC1
00107E EC?? F0??      02348         CALL    _testSenha
001082 6E??           02349         MOVWF   r0x01
001084 CFF3 F000      02350         MOVFF   PRODL, r0x02
001088 52E6           02351         MOVF    POSTINC1, F
00108A 50??           02352         MOVF    r0x01, W
00108C 0A01           02353         XORLW   0x01
00108E E1??           02354         BNZ     _01213_DS_
001090 50??           02355         MOVF    r0x02, W
001092 E0??           02356         BZ      _01214_DS_
001094                02357 _01213_DS_:
001094 D???           02358         BRA     _00535_DS_
001096                02359 _01214_DS_:
                      02360 ;       .line   551; stateMachine.c     setState(NOVA_SENHA);
001096 0E1A           02361         MOVLW   0x1a
001098 6EE5           02362         MOVWF   POSTDEC1
00109A EC?? F0??      02363         CALL    _setState
00109E 52E6           02364         MOVF    POSTINC1, F
                      02365 ;       .line   552; stateMachine.c     setTestResult(0);
0010A0 0E00           02366         MOVLW   0x00
0010A2 6EE5           02367         MOVWF   POSTDEC1
0010A4 0E00           02368         MOVLW   0x00
0010A6 6EE5           02369         MOVWF   POSTDEC1
0010A8 EC?? F0??      02370         CALL    _setTestResult
0010AC 52E6           02371         MOVF    POSTINC1, F
0010AE 52E6           02372         MOVF    POSTINC1, F
                      02373 ;       .line   555; stateMachine.c     break;
0010B0 D???           02374         BRA     _00535_DS_
0010B2                02375 _00473_DS_:
                      02376 ;       .line   559; stateMachine.c     if ((evento == EV_UP || evento == EV_DOWN || evento == EV_RIGHT 
                            || evento == EV_LEFT || evento == EV_ENTER)  && !getTestResult()) {
0010B2 50??           02377         MOVF    r0x00, W
0010B4 E0??           02378         BZ      _00486_DS_
gpasm-1.5.0 #1285 (Sep 12 2016) build/default   7-4-2017  20:24:41          PAGE 46


LOC    OBJECT CODE    LINE  SOURCE TEXT
  VALUE

0010B6 50??           02379         MOVF    r0x00, W
0010B8 0A01           02380         XORLW   0x01
0010BA E0??           02381         BZ      _00486_DS_
0010BC 50??           02382         MOVF    r0x00, W
0010BE 0A03           02383         XORLW   0x03
0010C0 E0??           02384         BZ      _00486_DS_
0010C2 50??           02385         MOVF    r0x00, W
0010C4 0A02           02386         XORLW   0x02
0010C6 E0??           02387         BZ      _00486_DS_
0010C8 50??           02388         MOVF    r0x00, W
0010CA 0A04           02389         XORLW   0x04
0010CC E0??           02390         BZ      _00486_DS_
0010CE D???           02391         BRA     _00535_DS_
0010D0                02392 _00486_DS_:
0010D0 EC?? F0??      02393         CALL    _getTestResult
0010D4 6E??           02394         MOVWF   r0x01
0010D6 CFF3 F000      02395         MOVFF   PRODL, r0x02
0010DA 50??           02396         MOVF    r0x01, W
0010DC 10??           02397         IORWF   r0x02, W
0010DE A4D8           02398         BTFSS   STATUS, 2
0010E0 D???           02399         BRA     _00535_DS_
0010E2 010?           02400         BANKSEL _senha
                      02401 ;       .line   560; stateMachine.c     if(setSenha(senha) != 0 || getSenha_i()==5){
0010E4 51??           02402         MOVF    _senha, W, B
0010E6 6EE5           02403         MOVWF   POSTDEC1
0010E8 EC?? F0??      02404         CALL    _setSenha
0010EC 6E??           02405         MOVWF   r0x01
0010EE CFF3 F000      02406         MOVFF   PRODL, r0x02
0010F2 52E6           02407         MOVF    POSTINC1, F
0010F4 50??           02408         MOVF    r0x01, W
0010F6 10??           02409         IORWF   r0x02, W
0010F8 E1??           02410         BNZ     _00477_DS_
0010FA EC?? F0??      02411         CALL    _getSenha_i
0010FE 6E??           02412         MOVWF   r0x01
001100 CFF3 F000      02413         MOVFF   PRODL, r0x02
001104 50??           02414         MOVF    r0x01, W
001106 0A05           02415         XORLW   0x05
001108 E1??           02416         BNZ     _01223_DS_
00110A 50??           02417         MOVF    r0x02, W
00110C E0??           02418         BZ      _00477_DS_
00110E                02419 _01223_DS_:
00110E D???           02420         BRA     _00535_DS_
001110                02421 _00477_DS_:
                      02422 ;       .line   561; stateMachine.c     if(getSenha_i()==5){
001110 EC?? F0??      02423         CALL    _getSenha_i
001114 6E??           02424         MOVWF   r0x01
001116 CFF3 F000      02425         MOVFF   PRODL, r0x02
00111A 50??           02426         MOVF    r0x01, W
00111C 0A05           02427         XORLW   0x05
00111E E1??           02428         BNZ     _01225_DS_
001120 50??           02429         MOVF    r0x02, W
001122 E0??           02430         BZ      _01226_DS_
001124                02431 _01225_DS_:
gpasm-1.5.0 #1285 (Sep 12 2016) build/default   7-4-2017  20:24:41          PAGE 47


LOC    OBJECT CODE    LINE  SOURCE TEXT
  VALUE

001124 D???           02432         BRA     _00475_DS_
001126                02433 _01226_DS_:
                      02434 ;       .line   562; stateMachine.c     setState(AGUARDO);
001126 0E21           02435         MOVLW   0x21
001128 6EE5           02436         MOVWF   POSTDEC1
00112A EC?? F0??      02437         CALL    _setState
00112E 52E6           02438         MOVF    POSTINC1, F
001130 D???           02439         BRA     _00535_DS_
001132                02440 _00475_DS_:
                      02441 ;       .line   564; stateMachine.c     outputPrint(getState(), getLanguage());
001132 EC?? F0??      02442         CALL    _getState
001136 6E??           02443         MOVWF   r0x01
001138 6A??           02444         CLRF    r0x02
00113A EC?? F0??      02445         CALL    _getLanguage
00113E 6E??           02446         MOVWF   r0x03
001140 6A??           02447         CLRF    r0x04
001142 50??           02448         MOVF    r0x04, W
001144 6EE5           02449         MOVWF   POSTDEC1
001146 50??           02450         MOVF    r0x03, W
001148 6EE5           02451         MOVWF   POSTDEC1
00114A 50??           02452         MOVF    r0x02, W
00114C 6EE5           02453         MOVWF   POSTDEC1
00114E 50??           02454         MOVF    r0x01, W
001150 6EE5           02455         MOVWF   POSTDEC1
001152 EC?? F0??      02456         CALL    _outputPrint
001156 0E04           02457         MOVLW   0x04
001158 26E1           02458         ADDWF   FSR1L, F
                      02459 ;       .line   565; stateMachine.c     setState(CONFIG_SENHA);
00115A 0E18           02460         MOVLW   0x18
00115C 6EE5           02461         MOVWF   POSTDEC1
00115E EC?? F0??      02462         CALL    _setState
001162 52E6           02463         MOVF    POSTINC1, F
                      02464 ;       .line   570; stateMachine.c     break;
001164 D???           02465         BRA     _00535_DS_
001166                02466 _00487_DS_:
                      02467 ;       .line   573; stateMachine.c     setState(NOVA_SENHA);
001166 0E1A           02468         MOVLW   0x1a
001168 6EE5           02469         MOVWF   POSTDEC1
00116A EC?? F0??      02470         CALL    _setState
00116E 52E6           02471         MOVF    POSTINC1, F
                      02472 ;       .line   574; stateMachine.c     break;
001170 D???           02473         BRA     _00535_DS_
001172                02474 _00488_DS_:
                      02475 ;       .line   579; stateMachine.c     if (evento == EV_ENTER){
001172 50??           02476         MOVF    r0x00, W
001174 0A04           02477         XORLW   0x04
001176 E1??           02478         BNZ     _00490_DS_
                      02479 ;       .line   580; stateMachine.c     setState(SECURITY_HABILITA);
001178 0E1C           02480         MOVLW   0x1c
00117A 6EE5           02481         MOVWF   POSTDEC1
00117C EC?? F0??      02482         CALL    _setState
001180 52E6           02483         MOVF    POSTINC1, F
001182                02484 _00490_DS_:
gpasm-1.5.0 #1285 (Sep 12 2016) build/default   7-4-2017  20:24:41          PAGE 48


LOC    OBJECT CODE    LINE  SOURCE TEXT
  VALUE

                      02485 ;       .line   582; stateMachine.c     if(evento == EV_UP || evento == EV_DOWN){
001182 50??           02486         MOVF    r0x00, W
001184 E0??           02487         BZ      _00491_DS_
001186 50??           02488         MOVF    r0x00, W
001188 0A01           02489         XORLW   0x01
00118A E1??           02490         BNZ     _00492_DS_
00118C                02491 _00491_DS_:
                      02492 ;       .line   583; stateMachine.c     setState(CONFIG_SENHA);
00118C 0E18           02493         MOVLW   0x18
00118E 6EE5           02494         MOVWF   POSTDEC1
001190 EC?? F0??      02495         CALL    _setState
001194 52E6           02496         MOVF    POSTINC1, F
001196                02497 _00492_DS_:
                      02498 ;       .line   585; stateMachine.c     if(evento == EV_RIGHT || evento == EV_LEFT){
001196 50??           02499         MOVF    r0x00, W
001198 0A03           02500         XORLW   0x03
00119A E0??           02501         BZ      _00494_DS_
00119C 50??           02502         MOVF    r0x00, W
00119E 0A02           02503         XORLW   0x02
0011A0 E0??           02504         BZ      _00494_DS_
0011A2 D???           02505         BRA     _00535_DS_
0011A4                02506 _00494_DS_:
                      02507 ;       .line   586; stateMachine.c     setState(STATE_SECURITY);
0011A4 0E17           02508         MOVLW   0x17
0011A6 6EE5           02509         MOVWF   POSTDEC1
0011A8 EC?? F0??      02510         CALL    _setState
0011AC 52E6           02511         MOVF    POSTINC1, F
                      02512 ;       .line   588; stateMachine.c     break;
0011AE D???           02513         BRA     _00535_DS_
0011B0                02514 _00497_DS_:
                      02515 ;       .line   595; stateMachine.c     if(getSenha_try() ==  3){
0011B0 EC?? F0??      02516         CALL    _getSenha_try
0011B4 6E??           02517         MOVWF   r0x01
0011B6 CFF3 F000      02518         MOVFF   PRODL, r0x02
0011BA 50??           02519         MOVF    r0x01, W
0011BC 0A03           02520         XORLW   0x03
0011BE E1??           02521         BNZ     _01235_DS_
0011C0 50??           02522         MOVF    r0x02, W
0011C2 E0??           02523         BZ      _01236_DS_
0011C4                02524 _01235_DS_:
0011C4 D???           02525         BRA     _00499_DS_
0011C6                02526 _01236_DS_:
                      02527 ;       .line   596; stateMachine.c     setState(CONFIG_HABILITA);
0011C6 0E1B           02528         MOVLW   0x1b
0011C8 6EE5           02529         MOVWF   POSTDEC1
0011CA EC?? F0??      02530         CALL    _setState
0011CE 52E6           02531         MOVF    POSTINC1, F
0011D0                02532 _00499_DS_:
0011D0 010?           02533         BANKSEL _senha
                      02534 ;       .line   598; stateMachine.c     if (testSenha(senha) == 1) {
0011D2 51??           02535         MOVF    _senha, W, B
0011D4 6EE5           02536         MOVWF   POSTDEC1
0011D6 EC?? F0??      02537         CALL    _testSenha
gpasm-1.5.0 #1285 (Sep 12 2016) build/default   7-4-2017  20:24:41          PAGE 49


LOC    OBJECT CODE    LINE  SOURCE TEXT
  VALUE

0011DA 6E??           02538         MOVWF   r0x01
0011DC CFF3 F000      02539         MOVFF   PRODL, r0x02
0011E0 52E6           02540         MOVF    POSTINC1, F
0011E2 50??           02541         MOVF    r0x01, W
0011E4 0A01           02542         XORLW   0x01
0011E6 E1??           02543         BNZ     _01237_DS_
0011E8 50??           02544         MOVF    r0x02, W
0011EA E0??           02545         BZ      _01238_DS_
0011EC                02546 _01237_DS_:
0011EC D???           02547         BRA     _00535_DS_
0011EE                02548 _01238_DS_:
                      02549 ;       .line   599; stateMachine.c     setState(HABILITA_SENHA);    
0011EE 0E1D           02550         MOVLW   0x1d
0011F0 6EE5           02551         MOVWF   POSTDEC1
0011F2 EC?? F0??      02552         CALL    _setState
0011F6 52E6           02553         MOVF    POSTINC1, F
                      02554 ;       .line   602; stateMachine.c     break;
0011F8 D???           02555         BRA     _00535_DS_
0011FA                02556 _00502_DS_:
                      02557 ;       .line   605; stateMachine.c     if(evento == EV_ENTER){
0011FA 50??           02558         MOVF    r0x00, W
0011FC 0A04           02559         XORLW   0x04
0011FE E1??           02560         BNZ     _00504_DS_
                      02561 ;       .line   606; stateMachine.c     enableSenha(1);
001200 0E00           02562         MOVLW   0x00
001202 6EE5           02563         MOVWF   POSTDEC1
001204 0E01           02564         MOVLW   0x01
001206 6EE5           02565         MOVWF   POSTDEC1
001208 EC?? F0??      02566         CALL    _enableSenha
00120C 52E6           02567         MOVF    POSTINC1, F
00120E 52E6           02568         MOVF    POSTINC1, F
                      02569 ;       .line   607; stateMachine.c     setState(CONFIG_HABILITA);
001210 0E1B           02570         MOVLW   0x1b
001212 6EE5           02571         MOVWF   POSTDEC1
001214 EC?? F0??      02572         CALL    _setState
001218 52E6           02573         MOVF    POSTINC1, F
00121A                02574 _00504_DS_:
                      02575 ;       .line   609; stateMachine.c     if(evento == EV_UP || evento == EV_DOWN){
00121A 50??           02576         MOVF    r0x00, W
00121C E0??           02577         BZ      _00505_DS_
00121E 50??           02578         MOVF    r0x00, W
001220 0A01           02579         XORLW   0x01
001222 E1??           02580         BNZ     _00506_DS_
001224                02581 _00505_DS_:
                      02582 ;       .line   610; stateMachine.c     setState(DESABILITA_SENHA);
001224 0E1E           02583         MOVLW   0x1e
001226 6EE5           02584         MOVWF   POSTDEC1
001228 EC?? F0??      02585         CALL    _setState
00122C 52E6           02586         MOVF    POSTINC1, F
00122E                02587 _00506_DS_:
                      02588 ;       .line   612; stateMachine.c     if(evento == EV_RIGHT || evento == EV_LEFT){
00122E 50??           02589         MOVF    r0x00, W
001230 0A03           02590         XORLW   0x03
gpasm-1.5.0 #1285 (Sep 12 2016) build/default   7-4-2017  20:24:41          PAGE 50


LOC    OBJECT CODE    LINE  SOURCE TEXT
  VALUE

001232 E0??           02591         BZ      _00508_DS_
001234 50??           02592         MOVF    r0x00, W
001236 0A02           02593         XORLW   0x02
001238 E0??           02594         BZ      _00508_DS_
00123A D???           02595         BRA     _00535_DS_
00123C                02596 _00508_DS_:
                      02597 ;       .line   613; stateMachine.c     setState(CONFIG_HABILITA);
00123C 0E1B           02598         MOVLW   0x1b
00123E 6EE5           02599         MOVWF   POSTDEC1
001240 EC?? F0??      02600         CALL    _setState
001244 52E6           02601         MOVF    POSTINC1, F
                      02602 ;       .line   615; stateMachine.c     break;
001246 D???           02603         BRA     _00535_DS_
001248                02604 _00511_DS_:
                      02605 ;       .line   618; stateMachine.c     if(evento == EV_ENTER){
001248 50??           02606         MOVF    r0x00, W
00124A 0A04           02607         XORLW   0x04
00124C E1??           02608         BNZ     _00513_DS_
                      02609 ;       .line   619; stateMachine.c     enableSenha(0);
00124E 0E00           02610         MOVLW   0x00
001250 6EE5           02611         MOVWF   POSTDEC1
001252 0E00           02612         MOVLW   0x00
001254 6EE5           02613         MOVWF   POSTDEC1
001256 EC?? F0??      02614         CALL    _enableSenha
00125A 52E6           02615         MOVF    POSTINC1, F
00125C 52E6           02616         MOVF    POSTINC1, F
                      02617 ;       .line   620; stateMachine.c     setState(CONFIG_HABILITA);
00125E 0E1B           02618         MOVLW   0x1b
001260 6EE5           02619         MOVWF   POSTDEC1
001262 EC?? F0??      02620         CALL    _setState
001266 52E6           02621         MOVF    POSTINC1, F
001268                02622 _00513_DS_:
                      02623 ;       .line   623; stateMachine.c     if(evento == EV_UP || evento == EV_DOWN){
001268 50??           02624         MOVF    r0x00, W
00126A E0??           02625         BZ      _00514_DS_
00126C 50??           02626         MOVF    r0x00, W
00126E 0A01           02627         XORLW   0x01
001270 E1??           02628         BNZ     _00515_DS_
001272                02629 _00514_DS_:
                      02630 ;       .line   624; stateMachine.c     setState(HABILITA_SENHA);
001272 0E1D           02631         MOVLW   0x1d
001274 6EE5           02632         MOVWF   POSTDEC1
001276 EC?? F0??      02633         CALL    _setState
00127A 52E6           02634         MOVF    POSTINC1, F
00127C                02635 _00515_DS_:
                      02636 ;       .line   626; stateMachine.c     if(evento == EV_RIGHT || evento == EV_LEFT){
00127C 50??           02637         MOVF    r0x00, W
00127E 0A03           02638         XORLW   0x03
001280 E0??           02639         BZ      _00517_DS_
001282 50??           02640         MOVF    r0x00, W
001284 0A02           02641         XORLW   0x02
001286 E0??           02642         BZ      _00517_DS_
001288 D???           02643         BRA     _00535_DS_
gpasm-1.5.0 #1285 (Sep 12 2016) build/default   7-4-2017  20:24:41          PAGE 51


LOC    OBJECT CODE    LINE  SOURCE TEXT
  VALUE

00128A                02644 _00517_DS_:
                      02645 ;       .line   627; stateMachine.c     setState(CONFIG_HABILITA);
00128A 0E1B           02646         MOVLW   0x1b
00128C 6EE5           02647         MOVWF   POSTDEC1
00128E EC?? F0??      02648         CALL    _setState
001292 52E6           02649         MOVF    POSTINC1, F
                      02650 ;       .line   629; stateMachine.c     break;
001294 D???           02651         BRA     _00535_DS_
001296                02652 _00520_DS_:
                      02653 ;       .line   633; stateMachine.c     if(evento == EV_ENTER){
001296 50??           02654         MOVF    r0x00, W
001298 0A04           02655         XORLW   0x04
00129A E1??           02656         BNZ     _00522_DS_
                      02657 ;       .line   634; stateMachine.c     setTestResult(0);
00129C 0E00           02658         MOVLW   0x00
00129E 6EE5           02659         MOVWF   POSTDEC1
0012A0 0E00           02660         MOVLW   0x00
0012A2 6EE5           02661         MOVWF   POSTDEC1
0012A4 EC?? F0??      02662         CALL    _setTestResult
0012A8 52E6           02663         MOVF    POSTINC1, F
0012AA 52E6           02664         MOVF    POSTINC1, F
                      02665 ;       .line   635; stateMachine.c     setState(SECURITY_RESET);
0012AC 0E20           02666         MOVLW   0x20
0012AE 6EE5           02667         MOVWF   POSTDEC1
0012B0 EC?? F0??      02668         CALL    _setState
0012B4 52E6           02669         MOVF    POSTINC1, F
0012B6                02670 _00522_DS_:
                      02671 ;       .line   637; stateMachine.c     if(evento == EV_UP){
0012B6 50??           02672         MOVF    r0x00, W
0012B8 E1??           02673         BNZ     _00524_DS_
                      02674 ;       .line   638; stateMachine.c     setState(STATE_SECURITY);
0012BA 0E17           02675         MOVLW   0x17
0012BC 6EE5           02676         MOVWF   POSTDEC1
0012BE EC?? F0??      02677         CALL    _setState
0012C2 52E6           02678         MOVF    POSTINC1, F
0012C4                02679 _00524_DS_:
                      02680 ;       .line   640; stateMachine.c     if(evento == EV_DOWN){
0012C4 50??           02681         MOVF    r0x00, W
0012C6 0A01           02682         XORLW   0x01
0012C8 E1??           02683         BNZ     _00526_DS_
                      02684 ;       .line   641; stateMachine.c     setState(STATE_ALARME);
0012CA 0E02           02685         MOVLW   0x02
0012CC 6EE5           02686         MOVWF   POSTDEC1
0012CE EC?? F0??      02687         CALL    _setState
0012D2 52E6           02688         MOVF    POSTINC1, F
0012D4                02689 _00526_DS_:
                      02690 ;       .line   643; stateMachine.c     if(evento == EV_RIGHT || evento == EV_LEFT){
0012D4 50??           02691         MOVF    r0x00, W
0012D6 0A03           02692         XORLW   0x03
0012D8 E0??           02693         BZ      _00527_DS_
0012DA 50??           02694         MOVF    r0x00, W
0012DC 0A02           02695         XORLW   0x02
0012DE E0??           02696         BZ      _00527_DS_
gpasm-1.5.0 #1285 (Sep 12 2016) build/default   7-4-2017  20:24:41          PAGE 52


LOC    OBJECT CODE    LINE  SOURCE TEXT
  VALUE

0012E0 D???           02697         BRA     _00535_DS_
0012E2                02698 _00527_DS_:
                      02699 ;       .line   644; stateMachine.c     setState(STATE_OP);
0012E2 0E00           02700         MOVLW   0x00
0012E4 6EE5           02701         MOVWF   POSTDEC1
0012E6 EC?? F0??      02702         CALL    _setState
0012EA 52E6           02703         MOVF    POSTINC1, F
                      02704 ;       .line   646; stateMachine.c     break;
0012EC D???           02705         BRA     _00535_DS_
0012EE                02706 _00530_DS_:
                      02707 ;       .line   654; stateMachine.c     if(getSenha_try() == 3){
0012EE EC?? F0??      02708         CALL    _getSenha_try
0012F2 6E??           02709         MOVWF   r0x00
0012F4 CFF3 F000      02710         MOVFF   PRODL, r0x01
0012F8 50??           02711         MOVF    r0x00, W
0012FA 0A03           02712         XORLW   0x03
0012FC E1??           02713         BNZ     _01263_DS_
0012FE 50??           02714         MOVF    r0x01, W
001300 E0??           02715         BZ      _01264_DS_
001302                02716 _01263_DS_:
001302 D???           02717         BRA     _00532_DS_
001304                02718 _01264_DS_:
                      02719 ;       .line   655; stateMachine.c     setState(STATE_RESET);
001304 0E1F           02720         MOVLW   0x1f
001306 6EE5           02721         MOVWF   POSTDEC1
001308 EC?? F0??      02722         CALL    _setState
00130C 52E6           02723         MOVF    POSTINC1, F
00130E                02724 _00532_DS_:
00130E 010?           02725         BANKSEL _senha
                      02726 ;       .line   658; stateMachine.c     if (testSenha(senha) == 1) {
001310 51??           02727         MOVF    _senha, W, B
001312 6EE5           02728         MOVWF   POSTDEC1
001314 EC?? F0??      02729         CALL    _testSenha
001318 6E??           02730         MOVWF   r0x00
00131A CFF3 F000      02731         MOVFF   PRODL, r0x01
00131E 52E6           02732         MOVF    POSTINC1, F
001320 50??           02733         MOVF    r0x00, W
001322 0A01           02734         XORLW   0x01
001324 E1??           02735         BNZ     _01265_DS_
001326 50??           02736         MOVF    r0x01, W
001328 E0??           02737         BZ      _01266_DS_
00132A                02738 _01265_DS_:
00132A D???           02739         BRA     _00535_DS_
00132C                02740 _01266_DS_:
                      02741 ;       .line   659; stateMachine.c     outputPrint(getState(), getLanguage());
00132C EC?? F0??      02742         CALL    _getState
001330 6E??           02743         MOVWF   r0x00
001332 6A??           02744         CLRF    r0x01
001334 EC?? F0??      02745         CALL    _getLanguage
001338 6E??           02746         MOVWF   r0x02
00133A 6A??           02747         CLRF    r0x03
00133C 50??           02748         MOVF    r0x03, W
00133E 6EE5           02749         MOVWF   POSTDEC1
gpasm-1.5.0 #1285 (Sep 12 2016) build/default   7-4-2017  20:24:41          PAGE 53


LOC    OBJECT CODE    LINE  SOURCE TEXT
  VALUE

001340 50??           02750         MOVF    r0x02, W
001342 6EE5           02751         MOVWF   POSTDEC1
001344 50??           02752         MOVF    r0x01, W
001346 6EE5           02753         MOVWF   POSTDEC1
001348 50??           02754         MOVF    r0x00, W
00134A 6EE5           02755         MOVWF   POSTDEC1
00134C EC?? F0??      02756         CALL    _outputPrint
001350 0E04           02757         MOVLW   0x04
001352 26E1           02758         ADDWF   FSR1L, F
                      02759 ;       .line   660; stateMachine.c     varInit();
001354 EC?? F0??      02760         CALL    _varInit
                      02761 ;       .line   661; stateMachine.c     setState(STATE_OP);    
001358 0E00           02762         MOVLW   0x00
00135A 6EE5           02763         MOVWF   POSTDEC1
00135C EC?? F0??      02764         CALL    _setState
001360 52E6           02765         MOVF    POSTINC1, F
001362                02766 _00535_DS_:
                      02767 ;       .line   665; stateMachine.c     outputPrint(getState(), getLanguage());
001362 EC?? F0??      02768         CALL    _getState
001366 6E??           02769         MOVWF   r0x00
001368 6A??           02770         CLRF    r0x01
00136A EC?? F0??      02771         CALL    _getLanguage
00136E 6E??           02772         MOVWF   r0x02
001370 6A??           02773         CLRF    r0x03
001372 50??           02774         MOVF    r0x03, W
001374 6EE5           02775         MOVWF   POSTDEC1
001376 50??           02776         MOVF    r0x02, W
001378 6EE5           02777         MOVWF   POSTDEC1
00137A 50??           02778         MOVF    r0x01, W
00137C 6EE5           02779         MOVWF   POSTDEC1
00137E 50??           02780         MOVF    r0x00, W
001380 6EE5           02781         MOVWF   POSTDEC1
001382 EC?? F0??      02782         CALL    _outputPrint
001386 0E04           02783         MOVLW   0x04
001388 26E1           02784         ADDWF   FSR1L, F
00138A CFE4 F000      02785         MOVFF   PREINC1, r0x04
00138E CFE4 F000      02786         MOVFF   PREINC1, r0x03
001392 CFE4 F000      02787         MOVFF   PREINC1, r0x02
001396 CFE4 F000      02788         MOVFF   PREINC1, r0x01
00139A CFE4 F000      02789         MOVFF   PREINC1, r0x00
00139E CFE4 FFD9      02790         MOVFF   PREINC1, FSR2L
0013A2 0012           02791         RETURN  
                      02792 
                      02793 ; ; Starting pCode block
                      02794 S_stateMachine__getPeriodo      code
000000                02795 _getPeriodo:
                      02796 ;       .line   37; stateMachine.c      char getPeriodo(int x){
000000 CFD9 FFE5      02797         MOVFF   FSR2L, POSTDEC1
000004 CFE1 FFD9      02798         MOVFF   FSR1L, FSR2L
000008 C??? F???      02799         MOVFF   r0x00, POSTDEC1
00000C C??? F???      02800         MOVFF   r0x01, POSTDEC1
000010 0E02           02801         MOVLW   0x02
000012 CFDB F000      02802         MOVFF   PLUSW2, r0x00
gpasm-1.5.0 #1285 (Sep 12 2016) build/default   7-4-2017  20:24:41          PAGE 54


LOC    OBJECT CODE    LINE  SOURCE TEXT
  VALUE

000016 0E03           02803         MOVLW   0x03
000018 CFDB F000      02804         MOVFF   PLUSW2, r0x01
                      02805 ;       .line   38; stateMachine.c      if(x==1){
00001C 50??           02806         MOVF    r0x00, W
00001E 0A01           02807         XORLW   0x01
000020 E1??           02808         BNZ     _00176_DS_
000022 50??           02809         MOVF    r0x01, W
000024 E0??           02810         BZ      _00177_DS_
000026                02811 _00176_DS_:
000026 D???           02812         BRA     _00150_DS_
000028                02813 _00177_DS_:
000028 010?           02814         BANKSEL _hora
                      02815 ;       .line   39; stateMachine.c      return hora;
00002A 51??           02816         MOVF    _hora, W, B
00002C D???           02817         BRA     _00159_DS_
00002E                02818 _00150_DS_:
                      02819 ;       .line   41; stateMachine.c      if(x==2){
00002E 50??           02820         MOVF    r0x00, W
000030 0A02           02821         XORLW   0x02
000032 E1??           02822         BNZ     _00178_DS_
000034 50??           02823         MOVF    r0x01, W
000036 E0??           02824         BZ      _00179_DS_
000038                02825 _00178_DS_:
000038 D???           02826         BRA     _00152_DS_
00003A                02827 _00179_DS_:
00003A 010?           02828         BANKSEL _min
                      02829 ;       .line   42; stateMachine.c      return min;
00003C 51??           02830         MOVF    _min, W, B
00003E D???           02831         BRA     _00159_DS_
000040                02832 _00152_DS_:
                      02833 ;       .line   44; stateMachine.c      if(x==3){
000040 50??           02834         MOVF    r0x00, W
000042 0A03           02835         XORLW   0x03
000044 E1??           02836         BNZ     _00180_DS_
000046 50??           02837         MOVF    r0x01, W
000048 E0??           02838         BZ      _00181_DS_
00004A                02839 _00180_DS_:
00004A D???           02840         BRA     _00154_DS_
00004C                02841 _00181_DS_:
00004C 010?           02842         BANKSEL _dia
                      02843 ;       .line   45; stateMachine.c      return dia;
00004E 51??           02844         MOVF    _dia, W, B
000050 D???           02845         BRA     _00159_DS_
000052                02846 _00154_DS_:
                      02847 ;       .line   47; stateMachine.c      if(x==4){
000052 50??           02848         MOVF    r0x00, W
000054 0A04           02849         XORLW   0x04
000056 E1??           02850         BNZ     _00182_DS_
000058 50??           02851         MOVF    r0x01, W
00005A E0??           02852         BZ      _00183_DS_
00005C                02853 _00182_DS_:
00005C D???           02854         BRA     _00156_DS_
00005E                02855 _00183_DS_:
gpasm-1.5.0 #1285 (Sep 12 2016) build/default   7-4-2017  20:24:41          PAGE 55


LOC    OBJECT CODE    LINE  SOURCE TEXT
  VALUE

00005E 010?           02856         BANKSEL _mes
                      02857 ;       .line   48; stateMachine.c      return mes;
000060 51??           02858         MOVF    _mes, W, B
000062 D???           02859         BRA     _00159_DS_
000064                02860 _00156_DS_:
                      02861 ;       .line   50; stateMachine.c      if(x==5){
000064 50??           02862         MOVF    r0x00, W
000066 0A05           02863         XORLW   0x05
000068 E1??           02864         BNZ     _00184_DS_
00006A 50??           02865         MOVF    r0x01, W
00006C E0??           02866         BZ      _00185_DS_
00006E                02867 _00184_DS_:
00006E D???           02868         BRA     _00159_DS_
000070                02869 _00185_DS_:
000070 010?           02870         BANKSEL _ano
                      02871 ;       .line   51; stateMachine.c      return ano;
000072 51??           02872         MOVF    _ano, W, B
000074                02873 _00159_DS_:
000074 CFE4 F000      02874         MOVFF   PREINC1, r0x01
000078 CFE4 F000      02875         MOVFF   PREINC1, r0x00
00007C CFE4 FFD9      02876         MOVFF   PREINC1, FSR2L
000080 0012           02877         RETURN  
                      02878 
                      02879 ; ; Starting pCode block
                      02880 S_stateMachine__changeEvento    code
000000                02881 _changeEvento:
                      02882 ;       .line   19; stateMachine.c      void changeEvento(unsigned char evento){
000000 CFD9 FFE5      02883         MOVFF   FSR2L, POSTDEC1
000004 CFE1 FFD9      02884         MOVFF   FSR1L, FSR2L
000008 C??? F???      02885         MOVFF   r0x00, POSTDEC1
00000C 0E02           02886         MOVLW   0x02
00000E CFDB F000      02887         MOVFF   PLUSW2, r0x00
000012 010?           02888         BANKSEL _senha
                      02889 ;       .line   20; stateMachine.c      senha = 0;
000014 6B??           02890         CLRF    _senha, B
                      02891 ;       .line   21; stateMachine.c      if(evento == EV_LEFT){
000016 50??           02892         MOVF    r0x00, W
000018 0A02           02893         XORLW   0x02
00001A E1??           02894         BNZ     _00111_DS_
                      02895 ;       .line   22; stateMachine.c      senha = 1;        
00001C 0E01           02896         MOVLW   0x01
00001E 010?           02897         BANKSEL _senha
000020 6F??           02898         MOVWF   _senha, B
000022                02899 _00111_DS_:
                      02900 ;       .line   24; stateMachine.c      if(evento == EV_DOWN){
000022 50??           02901         MOVF    r0x00, W
000024 0A01           02902         XORLW   0x01
000026 E1??           02903         BNZ     _00113_DS_
                      02904 ;       .line   25; stateMachine.c      senha = 2;
000028 0E02           02905         MOVLW   0x02
00002A 010?           02906         BANKSEL _senha
00002C 6F??           02907         MOVWF   _senha, B
00002E                02908 _00113_DS_:
gpasm-1.5.0 #1285 (Sep 12 2016) build/default   7-4-2017  20:24:41          PAGE 56


LOC    OBJECT CODE    LINE  SOURCE TEXT
  VALUE

                      02909 ;       .line   27; stateMachine.c      if(evento == EV_RIGHT){
00002E 50??           02910         MOVF    r0x00, W
000030 0A03           02911         XORLW   0x03
000032 E1??           02912         BNZ     _00115_DS_
                      02913 ;       .line   28; stateMachine.c      senha = 3;
000034 0E03           02914         MOVLW   0x03
000036 010?           02915         BANKSEL _senha
000038 6F??           02916         MOVWF   _senha, B
00003A                02917 _00115_DS_:
                      02918 ;       .line   30; stateMachine.c      if(evento == EV_UP){
00003A 50??           02919         MOVF    r0x00, W
00003C E1??           02920         BNZ     _00117_DS_
                      02921 ;       .line   31; stateMachine.c      senha = 4;
00003E 0E04           02922         MOVLW   0x04
000040 010?           02923         BANKSEL _senha
000042 6F??           02924         MOVWF   _senha, B
000044                02925 _00117_DS_:
                      02926 ;       .line   33; stateMachine.c      if(evento == EV_ENTER){
000044 50??           02927         MOVF    r0x00, W
000046 0A04           02928         XORLW   0x04
000048 E1??           02929         BNZ     _00120_DS_
                      02930 ;       .line   34; stateMachine.c      senha = 5; 
00004A 0E05           02931         MOVLW   0x05
00004C 010?           02932         BANKSEL _senha
00004E 6F??           02933         MOVWF   _senha, B
000050                02934 _00120_DS_:
000050 CFE4 F000      02935         MOVFF   PREINC1, r0x00
000054 CFE4 FFD9      02936         MOVFF   PREINC1, FSR2L
000058 0012           02937         RETURN  
                      02938 
                      02939 ; ; Starting pCode block
                      02940 S_stateMachine__smInit  code
000000                02941 _smInit:
                      02942 ;       .line   16; stateMachine.c      void smInit(void) {
000000 CFD9 FFE5      02943         MOVFF   FSR2L, POSTDEC1
000004 CFE1 FFD9      02944         MOVFF   FSR1L, FSR2L
                      02945 ;       .line   17; stateMachine.c      setState(STATE_OP);
000008 0E00           02946         MOVLW   0x00
00000A 6EE5           02947         MOVWF   POSTDEC1
00000C EC?? F0??      02948         CALL    _setState
000010 52E6           02949         MOVF    POSTINC1, F
000012 CFE4 FFD9      02950         MOVFF   PREINC1, FSR2L
000016 0012           02951         RETURN  
                      02952 
                      02953 
                      02954 
                      02955 ; Statistics:
                      02956 ; code size:     5272 (0x1498) bytes ( 4.02%)
                      02957 ;                2636 (0x0a4c) words
                      02958 ; udata size:       6 (0x0006) bytes ( 0.47%)
                      02959 ; access size:      5 (0x0005) bytes
                      02960 
                      02961 
gpasm-1.5.0 #1285 (Sep 12 2016) build/default   7-4-2017  20:24:41          PAGE 57


LOC    OBJECT CODE    LINE  SOURCE TEXT
  VALUE

                      02962         end
gpasm-1.5.0 #1285 (Sep 12 2016) build/default   7-4-2017  20:24:41          PAGE 58


SYMBOL TABLE
  LABEL                              TYPE        VALUE         VALUE          VALUE
                                                 (hex)         (dec)          (text)

FSR1L                             CONSTANT      00000FE1           4065
FSR2L                             CONSTANT      00000FD9           4057
PCL                               CONSTANT      00000FF9           4089
PCLATH                            CONSTANT      00000FFA           4090
PCLATU                            CONSTANT      00000FFB           4091
PLUSW2                            CONSTANT      00000FDB           4059
POSTDEC1                          CONSTANT      00000FE5           4069
POSTINC1                          CONSTANT      00000FE6           4070
PREINC1                           CONSTANT      00000FE4           4068
PRODL                             CONSTANT      00000FF3           4083
STATUS                            CONSTANT      00000FD8           4056
WREG                              CONSTANT      00000FE8           4072
_00111_DS_                        ADDRESS       00000022             34
_00113_DS_                        ADDRESS       0000002E             46
_00115_DS_                        ADDRESS       0000003A             58
_00117_DS_                        ADDRESS       00000044             68
_00120_DS_                        ADDRESS       00000050             80
_00150_DS_                        ADDRESS       0000002E             46
_00152_DS_                        ADDRESS       00000040             64
_00154_DS_                        ADDRESS       00000052             82
_00156_DS_                        ADDRESS       00000064            100
_00159_DS_                        ADDRESS       00000074            116
_00176_DS_                        ADDRESS       00000026             38
_00177_DS_                        ADDRESS       00000028             40
_00178_DS_                        ADDRESS       00000038             56
_00179_DS_                        ADDRESS       0000003A             58
_00180_DS_                        ADDRESS       0000004A             74
_00181_DS_                        ADDRESS       0000004C             76
_00182_DS_                        ADDRESS       0000005C             92
_00183_DS_                        ADDRESS       0000005E             94
_00184_DS_                        ADDRESS       0000006E            110
_00185_DS_                        ADDRESS       00000070            112
_00190_DS_                        ADDRESS       000000E6            230
_00193_DS_                        ADDRESS       00000126            294
_00195_DS_                        ADDRESS       00000146            326
_00196_DS_                        ADDRESS       00000176            374
_00199_DS_                        ADDRESS       000001AC            428
_00201_DS_                        ADDRESS       000001BC            444
_00202_DS_                        ADDRESS       000001C8            456
_00203_DS_                        ADDRESS       000001D2            466
_00206_DS_                        ADDRESS       000001E2            482
_00209_DS_                        ADDRESS       000001F8            504
_00211_DS_                        ADDRESS       00000208            520
_00212_DS_                        ADDRESS       00000214            532
_00213_DS_                        ADDRESS       0000021E            542
_00215_DS_                        ADDRESS       0000022C            556
_00218_DS_                        ADDRESS       0000023A            570
_00220_DS_                        ADDRESS       00000298            664
_00223_DS_                        ADDRESS       00000344            836
_00227_DS_                        ADDRESS       00000354            852
_00229_DS_                        ADDRESS       00000364            868
_00232_DS_                        ADDRESS       0000037C            892
gpasm-1.5.0 #1285 (Sep 12 2016) build/default   7-4-2017  20:24:41          PAGE 59


SYMBOL TABLE
  LABEL                              TYPE        VALUE         VALUE          VALUE
                                                 (hex)         (dec)          (text)

_00234_DS_                        ADDRESS       000003D6            982
_00237_DS_                        ADDRESS       00000476           1142
_00241_DS_                        ADDRESS       00000486           1158
_00243_DS_                        ADDRESS       00000496           1174
_00246_DS_                        ADDRESS       000004AE           1198
_00248_DS_                        ADDRESS       00000558           1368
_00252_DS_                        ADDRESS       000005B8           1464
_00255_DS_                        ADDRESS       000005C8           1480
_00257_DS_                        ADDRESS       000005D8           1496
_00260_DS_                        ADDRESS       000005F0           1520
_00262_DS_                        ADDRESS       0000068C           1676
_00266_DS_                        ADDRESS       000006EA           1770
_00269_DS_                        ADDRESS       000006FA           1786
_00271_DS_                        ADDRESS       0000070A           1802
_00274_DS_                        ADDRESS       00000722           1826
_00276_DS_                        ADDRESS       00000732           1842
_00277_DS_                        ADDRESS       0000073E           1854
_00278_DS_                        ADDRESS       00000748           1864
_00280_DS_                        ADDRESS       00000756           1878
_00283_DS_                        ADDRESS       00000764           1892
_00285_DS_                        ADDRESS       0000078A           1930
_00287_DS_                        ADDRESS       000007B2           1970
_00289_DS_                        ADDRESS       000007C2           1986
_00291_DS_                        ADDRESS       000007D2           2002
_00294_DS_                        ADDRESS       000007EA           2026
_00296_DS_                        ADDRESS       0000080C           2060
_00298_DS_                        ADDRESS       00000832           2098
_00300_DS_                        ADDRESS       00000842           2114
_00302_DS_                        ADDRESS       00000852           2130
_00305_DS_                        ADDRESS       0000086A           2154
_00307_DS_                        ADDRESS       000008BE           2238
_00310_DS_                        ADDRESS       0000090E           2318
_00313_DS_                        ADDRESS       0000091E           2334
_00315_DS_                        ADDRESS       0000092E           2350
_00318_DS_                        ADDRESS       00000946           2374
_00320_DS_                        ADDRESS       00000954           2388
_00322_DS_                        ADDRESS       00000964           2404
_00323_DS_                        ADDRESS       00000970           2416
_00324_DS_                        ADDRESS       0000097A           2426
_00328_DS_                        ADDRESS       00000992           2450
_00330_DS_                        ADDRESS       000009A8           2472
_00332_DS_                        ADDRESS       000009C0           2496
_00335_DS_                        ADDRESS       000009D8           2520
_00337_DS_                        ADDRESS       000009E6           2534
_00339_DS_                        ADDRESS       000009F6           2550
_00340_DS_                        ADDRESS       00000A02           2562
_00341_DS_                        ADDRESS       00000A0C           2572
_00345_DS_                        ADDRESS       00000A24           2596
_00346_DS_                        ADDRESS       00000A2E           2606
_00347_DS_                        ADDRESS       00000A38           2616
_00349_DS_                        ADDRESS       00000A44           2628
_00350_DS_                        ADDRESS       00000A4E           2638
gpasm-1.5.0 #1285 (Sep 12 2016) build/default   7-4-2017  20:24:41          PAGE 60


SYMBOL TABLE
  LABEL                              TYPE        VALUE         VALUE          VALUE
                                                 (hex)         (dec)          (text)

_00354_DS_                        ADDRESS       00000A66           2662
_00356_DS_                        ADDRESS       00000A98           2712
_00360_DS_                        ADDRESS       00000ADA           2778
_00362_DS_                        ADDRESS       00000AF6           2806
_00364_DS_                        ADDRESS       00000B12           2834
_00367_DS_                        ADDRESS       00000B36           2870
_00371_DS_                        ADDRESS       00000B74           2932
_00375_DS_                        ADDRESS       00000BB6           2998
_00377_DS_                        ADDRESS       00000BD2           3026
_00379_DS_                        ADDRESS       00000BEE           3054
_00382_DS_                        ADDRESS       00000C12           3090
_00384_DS_                        ADDRESS       00000C44           3140
_00388_DS_                        ADDRESS       00000C88           3208
_00390_DS_                        ADDRESS       00000CA4           3236
_00392_DS_                        ADDRESS       00000CC0           3264
_00395_DS_                        ADDRESS       00000CE4           3300
_00396_DS_                        ADDRESS       00000CEE           3310
_00397_DS_                        ADDRESS       00000CF8           3320
_00399_DS_                        ADDRESS       00000D04           3332
_00400_DS_                        ADDRESS       00000D0E           3342
_00404_DS_                        ADDRESS       00000D26           3366
_00406_DS_                        ADDRESS       00000D58           3416
_00408_DS_                        ADDRESS       00000D9C           3484
_00411_DS_                        ADDRESS       00000DAC           3500
_00414_DS_                        ADDRESS       00000DC8           3528
_00416_DS_                        ADDRESS       00000DE4           3556
_00419_DS_                        ADDRESS       00000E08           3592
_00421_DS_                        ADDRESS       00000E3E           3646
_00423_DS_                        ADDRESS       00000E86           3718
_00426_DS_                        ADDRESS       00000E96           3734
_00429_DS_                        ADDRESS       00000EB2           3762
_00431_DS_                        ADDRESS       00000ECE           3790
_00434_DS_                        ADDRESS       00000EF2           3826
_00436_DS_                        ADDRESS       00000F24           3876
_00438_DS_                        ADDRESS       00000F6A           3946
_00441_DS_                        ADDRESS       00000F7A           3962
_00444_DS_                        ADDRESS       00000F96           3990
_00446_DS_                        ADDRESS       00000FB2           4018
_00449_DS_                        ADDRESS       00000FD2           4050
_00451_DS_                        ADDRESS       00000FE0           4064
_00453_DS_                        ADDRESS       00000FF0           4080
_00455_DS_                        ADDRESS       00001000           4096
_00456_DS_                        ADDRESS       0000100E           4110
_00459_DS_                        ADDRESS       0000101A           4122
_00460_DS_                        ADDRESS       00001024           4132
_00461_DS_                        ADDRESS       0000102E           4142
_00464_DS_                        ADDRESS       0000103E           4158
_00465_DS_                        ADDRESS       0000104C           4172
_00468_DS_                        ADDRESS       00001058           4184
_00470_DS_                        ADDRESS       00001078           4216
_00473_DS_                        ADDRESS       000010B2           4274
_00475_DS_                        ADDRESS       00001132           4402
gpasm-1.5.0 #1285 (Sep 12 2016) build/default   7-4-2017  20:24:41          PAGE 61


SYMBOL TABLE
  LABEL                              TYPE        VALUE         VALUE          VALUE
                                                 (hex)         (dec)          (text)

_00477_DS_                        ADDRESS       00001110           4368
_00486_DS_                        ADDRESS       000010D0           4304
_00487_DS_                        ADDRESS       00001166           4454
_00488_DS_                        ADDRESS       00001172           4466
_00490_DS_                        ADDRESS       00001182           4482
_00491_DS_                        ADDRESS       0000118C           4492
_00492_DS_                        ADDRESS       00001196           4502
_00494_DS_                        ADDRESS       000011A4           4516
_00497_DS_                        ADDRESS       000011B0           4528
_00499_DS_                        ADDRESS       000011D0           4560
_00502_DS_                        ADDRESS       000011FA           4602
_00504_DS_                        ADDRESS       0000121A           4634
_00505_DS_                        ADDRESS       00001224           4644
_00506_DS_                        ADDRESS       0000122E           4654
_00508_DS_                        ADDRESS       0000123C           4668
_00511_DS_                        ADDRESS       00001248           4680
_00513_DS_                        ADDRESS       00001268           4712
_00514_DS_                        ADDRESS       00001272           4722
_00515_DS_                        ADDRESS       0000127C           4732
_00517_DS_                        ADDRESS       0000128A           4746
_00520_DS_                        ADDRESS       00001296           4758
_00522_DS_                        ADDRESS       000012B6           4790
_00524_DS_                        ADDRESS       000012C4           4804
_00526_DS_                        ADDRESS       000012D4           4820
_00527_DS_                        ADDRESS       000012E2           4834
_00530_DS_                        ADDRESS       000012EE           4846
_00532_DS_                        ADDRESS       0000130E           4878
_00535_DS_                        ADDRESS       00001362           4962
_01007_DS_                        ADDRESS       0000005E             94
_01009_DS_                        ADDRESS       00000118            280
_01010_DS_                        ADDRESS       0000013A            314
_01011_DS_                        ADDRESS       0000013C            316
_01012_DS_                        ADDRESS       00000172            370
_01030_DS_                        ADDRESS       00000260            608
_01032_DS_                        ADDRESS       000002A0            672
_01033_DS_                        ADDRESS       000002C2            706
_01034_DS_                        ADDRESS       0000030C            780
_01040_DS_                        ADDRESS       0000036E            878
_01041_DS_                        ADDRESS       000003A2            930
_01043_DS_                        ADDRESS       000003DE            990
_01044_DS_                        ADDRESS       00000400           1024
_01045_DS_                        ADDRESS       00000440           1088
_01051_DS_                        ADDRESS       000004A0           1184
_01052_DS_                        ADDRESS       000004D6           1238
_01053_DS_                        ADDRESS       00000520           1312
_01056_DS_                        ADDRESS       00000580           1408
_01062_DS_                        ADDRESS       000005E2           1506
_01063_DS_                        ADDRESS       00000618           1560
_01064_DS_                        ADDRESS       00000658           1624
_01067_DS_                        ADDRESS       000006B4           1716
_01073_DS_                        ADDRESS       00000714           1812
_01089_DS_                        ADDRESS       000007DC           2012
gpasm-1.5.0 #1285 (Sep 12 2016) build/default   7-4-2017  20:24:41          PAGE 62


SYMBOL TABLE
  LABEL                              TYPE        VALUE         VALUE          VALUE
                                                 (hex)         (dec)          (text)

_01097_DS_                        ADDRESS       0000085C           2140
_01098_DS_                        ADDRESS       00000884           2180
_01106_DS_                        ADDRESS       00000938           2360
_01114_DS_                        ADDRESS       00000984           2436
_01118_DS_                        ADDRESS       000009CA           2506
_01126_DS_                        ADDRESS       00000A16           2582
_01134_DS_                        ADDRESS       00000A58           2648
_01138_DS_                        ADDRESS       00000AE0           2784
_01140_DS_                        ADDRESS       00000AFC           2812
_01142_DS_                        ADDRESS       00000B1C           2844
_01146_DS_                        ADDRESS       00000BBC           3004
_01148_DS_                        ADDRESS       00000BD8           3032
_01150_DS_                        ADDRESS       00000BF8           3064
_01156_DS_                        ADDRESS       00000C8E           3214
_01158_DS_                        ADDRESS       00000CAA           3242
_01160_DS_                        ADDRESS       00000CCA           3274
_01168_DS_                        ADDRESS       00000D18           3352
_01170_DS_                        ADDRESS       00000D62           3426
_01172_DS_                        ADDRESS       00000DB2           3506
_01174_DS_                        ADDRESS       00000DCE           3534
_01176_DS_                        ADDRESS       00000DEE           3566
_01178_DS_                        ADDRESS       00000E48           3656
_01181_DS_                        ADDRESS       00000E9C           3740
_01183_DS_                        ADDRESS       00000EB8           3768
_01185_DS_                        ADDRESS       00000ED8           3800
_01187_DS_                        ADDRESS       00000F2E           3886
_01190_DS_                        ADDRESS       00000F80           3968
_01192_DS_                        ADDRESS       00000F9C           3996
_01194_DS_                        ADDRESS       00000FBA           4026
_01211_DS_                        ADDRESS       0000106C           4204
_01212_DS_                        ADDRESS       0000106E           4206
_01213_DS_                        ADDRESS       00001094           4244
_01214_DS_                        ADDRESS       00001096           4246
_01223_DS_                        ADDRESS       0000110E           4366
_01225_DS_                        ADDRESS       00001124           4388
_01226_DS_                        ADDRESS       00001126           4390
_01235_DS_                        ADDRESS       000011C4           4548
_01236_DS_                        ADDRESS       000011C6           4550
_01237_DS_                        ADDRESS       000011EC           4588
_01238_DS_                        ADDRESS       000011EE           4590
_01263_DS_                        ADDRESS       00001302           4866
_01264_DS_                        ADDRESS       00001304           4868
_01265_DS_                        ADDRESS       0000132A           4906
_01266_DS_                        ADDRESS       0000132C           4908
__16_BIT                          CONSTANT      00000001              1
__18F4520                         CONSTANT      00000001              1
__ACC_RAM_LOW_END                 CONSTANT      0000007F            127
__ACC_RAM_LOW_START               CONSTANT      00000000              0
__ACTIVE_BANK_ADDR                VARIABLE      FFFFFFFF             -1
__ASSUMED_BANK_ADDR               VARIABLE      FFFFFFFF             -1
__BANK_0                          CONSTANT      00000000              0
__BANK_1                          CONSTANT      00000100            256
gpasm-1.5.0 #1285 (Sep 12 2016) build/default   7-4-2017  20:24:41          PAGE 63


SYMBOL TABLE
  LABEL                              TYPE        VALUE         VALUE          VALUE
                                                 (hex)         (dec)          (text)

__BANK_2                          CONSTANT      00000200            512
__BANK_3                          CONSTANT      00000300            768
__BANK_4                          CONSTANT      00000400           1024
__BANK_5                          CONSTANT      00000500           1280
__BANK_6                          CONSTANT      00000600           1536
__BANK_7                          CONSTANT      00000700           1792
__BANK_8                          CONSTANT      00000800           2048
__BANK_9                          CONSTANT      00000900           2304
__BANK_10                         CONSTANT      00000A00           2560
__BANK_11                         CONSTANT      00000B00           2816
__BANK_12                         CONSTANT      00000C00           3072
__BANK_13                         CONSTANT      00000D00           3328
__BANK_14                         CONSTANT      00000E00           3584
__BANK_15                         CONSTANT      00000F00           3840
__BANK_BITS                       CONSTANT      00000F00           3840
__BANK_FIRST                      CONSTANT      00000000              0
__BANK_INV                        CONSTANT      FFFFFFFF             -1
__BANK_LAST                       CONSTANT      00000F00           3840
__BANK_MASK                       CONSTANT      000000FF            255
__BANK_SHIFT                      CONSTANT      00000008              8
__BANK_SIZE                       CONSTANT      00000100            256
__CODE_END                        CONSTANT      00007FFF          32767
__CODE_START                      CONSTANT      00000000              0
__COMMON_RAM_END                  CONSTANT      0000007F            127
__COMMON_RAM_START                CONSTANT      00000000              0
__CONFIG_END                      CONSTANT      0030000D        3145741
__CONFIG_START                    CONSTANT      00300000        3145728
__EEPROM_END                      CONSTANT      00F000FF       15728895
__EEPROM_START                    CONSTANT      00F00000       15728640
__EXTENDED                        CONSTANT      00000001              1
__GPUTILS_SVN_VERSION             CONSTANT      00000505           1285
__GPUTILS_VERSION_MAJOR           CONSTANT      00000001              1
__GPUTILS_VERSION_MICRO           CONSTANT      00000000              0
__GPUTILS_VERSION_MINOR           CONSTANT      00000005              5
__IDLOCS_END                      CONSTANT      00200007        2097159
__IDLOCS_START                    CONSTANT      00200000        2097152
__NUM_BANKS                       CONSTANT      00000010             16
__VECTOR_INT_HIGH                 CONSTANT      00000008              8
__VECTOR_INT_LOW                  CONSTANT      00000018             24
__VECTOR_RESET                    CONSTANT      00000000              0
__WHILE_LOOP_COUNT_MAX            CONSTANT      000000FF            255
__divsint                         EXTERNAL      00000000              0
__modsint                         EXTERNAL      00000000              0
__mulint                          EXTERNAL      00000000              0
_ano                              STATIC        00000000              0
_changeEvento                     GLOBAL        00000000              0
_dia                              STATIC        00000000              0
_enableSenha                      EXTERNAL      00000000              0
_eventRead                        EXTERNAL      00000000              0
_getAlarmLevel                    EXTERNAL      00000000              0
_getLanguage                      EXTERNAL      00000000              0
_getMult                          EXTERNAL      00000000              0
gpasm-1.5.0 #1285 (Sep 12 2016) build/default   7-4-2017  20:24:41          PAGE 64


SYMBOL TABLE
  LABEL                              TYPE        VALUE         VALUE          VALUE
                                                 (hex)         (dec)          (text)

_getPeriodo                       GLOBAL        00000000              0
_getSenhaStatus                   EXTERNAL      00000000              0
_getSenha_i                       EXTERNAL      00000000              0
_getSenha_try                     EXTERNAL      00000000              0
_getState                         EXTERNAL      00000000              0
_getTestResult                    EXTERNAL      00000000              0
_getTime                          EXTERNAL      00000000              0
_hora                             STATIC        00000000              0
_mes                              STATIC        00000000              0
_min                              STATIC        00000000              0
_outputPrint                      EXTERNAL      00000000              0
_rtcGetDate                       EXTERNAL      00000000              0
_rtcGetHours                      EXTERNAL      00000000              0
_rtcGetMinutes                    EXTERNAL      00000000              0
_rtcGetMonth                      EXTERNAL      00000000              0
_rtcGetYear                       EXTERNAL      00000000              0
_rtcPutDate                       EXTERNAL      00000000              0
_rtcPutHours                      EXTERNAL      00000000              0
_rtcPutMinutes                    EXTERNAL      00000000              0
_rtcPutMonth                      EXTERNAL      00000000              0
_rtcPutYear                       EXTERNAL      00000000              0
_senha                            STATIC        00000000              0
_setAlarmLevel                    EXTERNAL      00000000              0
_setLanguage                      EXTERNAL      00000000              0
_setMult                          EXTERNAL      00000000              0
_setSenha                         EXTERNAL      00000000              0
_setState                         EXTERNAL      00000000              0
_setTestResult                    EXTERNAL      00000000              0
_setTime                          EXTERNAL      00000000              0
_smInit                           GLOBAL        00000000              0
_smLoop                           GLOBAL        00000000              0
_testSenha                        EXTERNAL      00000000              0
_varInit                          EXTERNAL      00000000              0
r0x00                             STATIC        00000000              0
r0x01                             STATIC        00000001              1
r0x02                             STATIC        00000002              2
r0x03                             STATIC        00000003              3
r0x04                             STATIC        00000004              4

Errors   :     0
Warnings :     0 reported,     0 suppressed
Messages :     0 reported,     0 suppressed

