gplink-1.5.0 #1285 (Sep 12 2016)
Map File - Created 7-4-2017  20:27:40

                                 Section Info
                  Section       Type    Address   Location Size(Bytes)
                ---------  ---------  ---------  ---------  ---------
                 .idata_i    romdata   0x0045b4    program   0x0000d0
                   .cinit    romdata   0x005f14    program   0x00000e
.config_300001_BUILD/DEFAULT/PRODUCTION/MAIN.O    romdata   0x300001    program   0x000001
.config_300003_BUILD/DEFAULT/PRODUCTION/MAIN.O    romdata   0x300003    program   0x000001
.config_300005_BUILD/DEFAULT/PRODUCTION/MAIN.O    romdata   0x300005    program   0x000001
.config_300006_BUILD/DEFAULT/PRODUCTION/MAIN.O    romdata   0x300006    program   0x000001
         S_crt0iz___entry       code   0x000000    program   0x000004
    S_output__outputPrint       code   0x000004    program   0x002440
   S_stateMachine__smLoop       code   0x002444    program   0x0013a4
     S_output__outputInit       code   0x0037e8    program   0x000620
          S_var__setSenha       code   0x003e08    program   0x0001fc
         S_var__testSenha       code   0x004004    program   0x000164
     S_keypad__kpDebounce       code   0x004168    program   0x00015c
        S_rtc__ht1380read       code   0x0042c4    program   0x000126
      S_divsint___divsint       code   0x0043ea    program   0x0000ee
      S_modsint___modsint       code   0x0044d8    program   0x0000dc
           S_var__varInit       code   0x004684    program   0x0000d0
            S_lcd__lcdInt       code   0x004754    program   0x0000ca
       S_rtc__ht1380write       code   0x00481e    program   0x0000ca
      S_timer__timerReset       code   0x0048e8    program   0x0000c0
      S_moduint___moduint       code   0x0049a8    program   0x0000ba
         S_rtc__writeByte       code   0x004a62    program   0x0000b0
      S_divuint___divuint       code   0x004b12    program   0x0000b0
       S_crt0iz___startup       code   0x004bc2    program   0x0000ac
           S_lcd__lcdInit       code   0x004c6e    program   0x0000a6
          S_stdio__printf       code   0x004d14    program   0x0000a6
       S_event__eventRead       code   0x004dba    program   0x0000a2
        S_mulint___mulint       code   0x004e5c    program   0x0000a0
         S_lcd__lcdString       code   0x004efc    program   0x00009e
             S_main__main       code   0x004f9a    program   0x00009c
          S_rtc__readByte       code   0x005036    program   0x000098
    S_rtc__rtcSetDateTime       code   0x0050ce    program   0x00008e
           S_lcd__lcdData       code   0x00515c    program   0x00008a
        S_lcd__lcdCommand       code   0x0051e6    program   0x000082
S_stateMachine__getPeriodo       code   0x005268    program   0x000082
            S_led__ledOFF       code   0x0052ea    program   0x00007e
             S_led__ledON       code   0x005368    program   0x00007e
    S_divuchar___divuchar       code   0x0053e6    program   0x000076
           S_adc__adcRead       code   0x00545c    program   0x000074
    S_moduchar___moduchar       code   0x0054d0    program   0x000074
     S_var__setAlarmLevel       code   0x005544    program   0x00006e
        S_rtc__rtcPutYear       code   0x0055b2    program   0x00006a
       S_rtc__rtcPutMonth       code   0x00561c    program   0x00006a
        S_rtc__rtcPutDate       code   0x005686    program   0x00006a
       S_rtc__rtcPutHours       code   0x0056f0    program   0x00006a
     S_rtc__rtcPutMinutes       code   0x00575a    program   0x00006a
     S_rtc__rtcPutSeconds       code   0x0057c4    program   0x00006a
          S_rtc__rtcStart       code   0x00582e    program   0x00005e
     S_var__getAlarmLevel       code   0x00588c    program   0x00005a
S_stateMachine__changeEvento       code   0x0058e6    program   0x00005a
           S_rtc__rtcInit       code   0x005940    program   0x00004c
        S_rtc__rtcGetYear       code   0x00598c    program   0x000046
        S_rtc__rtcGetDate       code   0x0059d2    program   0x000046
       S_rtc__rtcGetHours       code   0x005a18    program   0x000046
     S_rtc__rtcGetMinutes       code   0x005a5e    program   0x000046
     S_rtc__rtcGetSeconds       code   0x005aa4    program   0x000046
       S_rtc__rtcGetMonth       code   0x005aea    program   0x000044
           S_adc__adcInit       code   0x005b2e    program   0x000040
         S_keypad__kpInit       code   0x005b6e    program   0x000038
          S_lcd__Delay2ms       code   0x005ba6    program   0x000032
          S_var__delay2ms       code   0x005bd8    program   0x000032
       S_timer__timerInit       code   0x005c0a    program   0x000030
         S_lcd__Delay40us       code   0x005c3a    program   0x00002e
         S_var__delay40us       code   0x005c68    program   0x00002e
         S_rtc__rtcPutDay       code   0x005c96    program   0x00002c
         S_rtc__rtcGetDay       code   0x005cc2    program   0x000028
      S_timer__timerEnded       code   0x005cea    program   0x000024
       S_var__setLanguage       code   0x005d0e    program   0x000024
       S_timer__timerWait       code   0x005d32    program   0x000022
    S_gptrget1___gptrget1       code   0x005d54    program   0x000022
           S_led__initLed       code   0x005d76    program   0x00001e
     S_var__setTestResult       code   0x005d94    program   0x00001a
       S_var__enableSenha       code   0x005dae    program   0x00001a
           S_var__setMult       code   0x005dc8    program   0x00001a
           S_var__setTime       code   0x005de2    program   0x00001a
       S_event__eventInit       code   0x005dfc    program   0x00001a
   S_stateMachine__smInit       code   0x005e16    program   0x000018
S_eeprom8_gptrget1____eeprom8_gptrget1       code   0x005e2e    program   0x000018
     S_var__getTestResult       code   0x005e46    program   0x000016
      S_var__getSenha_try       code   0x005e5c    program   0x000016
        S_var__getSenha_i       code   0x005e72    program   0x000016
    S_var__getSenhaStatus       code   0x005e88    program   0x000016
           S_var__getMult       code   0x005e9e    program   0x000016
           S_var__getTime       code   0x005eb4    program   0x000016
          S_var__setState       code   0x005eca    program   0x000014
         S_keypad__kpRead       code   0x005ede    program   0x000012
       S_var__getLanguage       code   0x005ef0    program   0x000012
          S_var__getState       code   0x005f02    program   0x000012
 S___eeprom_gptrget1_stub       code   0x005f22    program   0x000004
                   .idata      idata   0x000200       data   0x0000d0
               .registers      udata   0x000000       data   0x00000a
              udata_var_9      udata   0x000080       data   0x000002
            udata_event_0      udata   0x000082       data   0x000002
           udata_mulint_0      udata   0x000084       data   0x000002
           udata_mulint_1      udata   0x000086       data   0x000002
           udata_mulint_2      udata   0x000088       data   0x000002
           udata_keypad_0      udata   0x00008a       data   0x000001
              udata_rtc_0      udata   0x00008b       data   0x000001
              udata_var_0      udata   0x00008c       data   0x000001
              udata_var_1      udata   0x00008d       data   0x000001
     udata_stateMachine_0      udata   0x00008e       data   0x000001
     udata_stateMachine_1      udata   0x00008f       data   0x000001
     udata_stateMachine_2      udata   0x000090       data   0x000001
     udata_stateMachine_3      udata   0x000091       data   0x000001
     udata_stateMachine_4      udata   0x000092       data   0x000001
     udata_stateMachine_5      udata   0x000093       data   0x000001
            stack_section      udata   0x000100       data   0x000100
             udata_var_10      udata   0x0002d0       data   0x00000a
             udata_var_11      udata   0x0002da       data   0x00000a
             udata_var_12      udata   0x0002e4       data   0x00000a
           udata_output_0      udata   0x0002ee       data   0x000002
           udata_output_1      udata   0x0002f0       data   0x000002
              udata_var_2      udata   0x0002f2       data   0x000002
              udata_var_3      udata   0x0002f4       data   0x000002
              udata_var_4      udata   0x0002f6       data   0x000002
              udata_var_5      udata   0x0002f8       data   0x000002
              udata_var_6      udata   0x0002fa       data   0x000002
              udata_var_7      udata   0x0002fc       data   0x000002
              udata_var_8      udata   0x0002fe       data   0x000002
      ustat_pic18f4520_00      udata   0x000f80       data   0x000005
      ustat_pic18f4520_01      udata   0x000f89       data   0x000005
      ustat_pic18f4520_02      udata   0x000f92       data   0x000005
      ustat_pic18f4520_03      udata   0x000f9b       data   0x000001
      ustat_pic18f4520_04      udata   0x000f9d       data   0x000006
      ustat_pic18f4520_05      udata   0x000fa6       data   0x000004
      ustat_pic18f4520_06      udata   0x000fab       data   0x00000e
      ustat_pic18f4520_07      udata   0x000fba       data   0x00001a
      ustat_pic18f4520_08      udata   0x000fd5       data   0x00002b



                              Program Memory Usage
                               Start         End
                           ---------   ---------
                            0x00545c    0x0054cf
                            0x005b2e    0x005b6d
                            0x0045b4    0x004683
                            0x005b6e    0x005ba5
                            0x004168    0x0042c3
                            0x005ede    0x005eef
                            0x004c6e    0x004d13
                            0x004efc    0x004f99
                            0x004754    0x00481d
                            0x00515c    0x0051e5
                            0x0051e6    0x005267
                            0x005ba6    0x005bd7
                            0x005c3a    0x005c67
                            0x0052ea    0x005367
                            0x005368    0x0053e5
                            0x005d76    0x005d93
                            0x004f9a    0x005035
                            0x300005    0x300005
                            0x300001    0x300001
                            0x300003    0x300003
                            0x300006    0x300006
                            0x0055b2    0x00561b
                            0x005c96    0x005cc1
                            0x00561c    0x005685
                            0x005686    0x0056ef
                            0x0056f0    0x005759
                            0x00575a    0x0057c3
                            0x0057c4    0x00582d
                            0x005cc2    0x005ce9
                            0x00598c    0x0059d1
                            0x005aea    0x005b2d
                            0x0059d2    0x005a17
                            0x005a18    0x005a5d
                            0x005a5e    0x005aa3
                            0x005aa4    0x005ae9
                            0x0050ce    0x00515b
                            0x0042c4    0x0043e9
                            0x00481e    0x0048e7
                            0x005036    0x0050cd
                            0x004a62    0x004b11
                            0x00582e    0x00588b
                            0x005940    0x00598b
                            0x004d14    0x004db9
                            0x005c0a    0x005c39
                            0x0048e8    0x0049a7
                            0x005d32    0x005d53
                            0x005cea    0x005d0d
                            0x000004    0x002443
                            0x0037e8    0x003e07
                            0x003e08    0x004003
                            0x004004    0x004167
                            0x005d94    0x005dad
                            0x005e46    0x005e5b
                            0x005e5c    0x005e71
                            0x005e72    0x005e87
                            0x005dae    0x005dc7
                            0x005e88    0x005e9d
                            0x005d0e    0x005d31
                            0x005ef0    0x005f01
                            0x005544    0x0055b1
                            0x00588c    0x0058e5
                            0x005dc8    0x005de1
                            0x005e9e    0x005eb3
                            0x005de2    0x005dfb
                            0x005eb4    0x005ec9
                            0x005eca    0x005edd
                            0x005f02    0x005f13
                            0x004684    0x004753
                            0x005bd8    0x005c09
                            0x005c68    0x005c95
                            0x004dba    0x004e5b
                            0x005dfc    0x005e15
                            0x002444    0x0037e7
                            0x005268    0x0052e9
                            0x0058e6    0x00593f
                            0x005e16    0x005e2d
                            0x000000    0x000003
                            0x004bc2    0x004c6d
                            0x004e5c    0x004efb
                            0x0044d8    0x0045b3
                            0x0049a8    0x004a61
                            0x0053e6    0x00545b
                            0x005d54    0x005d75
                            0x0043ea    0x0044d7
                            0x004b12    0x004bc1
                            0x0054d0    0x005543
                            0x005f22    0x005f25
                            0x005e2e    0x005e45
                            0x005f14    0x005f21
                            24362 program addresses used



                              Symbols - Sorted by Name
                     Name    Address   Location    Storage File
                ---------  ---------  ---------  --------- ---------
               _00106_DS_   0x00500c    program     static build/default/production/main.asm
               _00106_DS_   0x004a0e    program     static moduint.asm
               _00106_DS_   0x00458c    program     static modsint.asm
               _00106_DS_   0x0044ac    program     static divsint.asm
               _00106_DS_   0x00550c    program     static moduchar.asm
               _00106_DS_   0x004d52    program     static build/default/production/stdio.asm
               _00107_DS_   0x0049e8    program     static moduint.asm
               _00107_DS_   0x0054f8    program     static moduchar.asm
               _00108_DS_   0x004592    program     static modsint.asm
               _00108_DS_   0x005c7c    program     static build/default/production/var.asm
               _00108_DS_   0x005c4e    program     static build/default/production/lcd.asm
               _00108_DS_   0x0044b2    program     static divsint.asm
               _00109_DS_   0x004b5a    program     static divuint.asm
               _00109_DS_   0x005414    program     static divuchar.asm
               _00110_DS_   0x004b8a    program     static divuint.asm
               _00110_DS_   0x005434    program     static divuchar.asm
               _00110_DS_   0x004530    program     static modsint.asm
               _00110_DS_   0x005486    program     static build/default/production/adc.asm
               _00110_DS_   0x005d3e    program     static build/default/production/timer.asm
               _00110_DS_   0x004446    program     static divsint.asm
               _00111_DS_   0x00444e    program     static divsint.asm
               _00111_DS_   0x004e0a    program     static build/default/production/event.asm
               _00111_DS_   0x004538    program     static modsint.asm
               _00111_DS_   0x00027c    program     static build/default/production/output.asm
               _00111_DS_   0x00551e    program     static moduchar.asm
               _00111_DS_   0x004234    program     static build/default/production/keypad.asm
               _00111_DS_   0x005908    program     static build/default/production/stateMachine.asm
               _00111_DS_   0x004a2a    program     static moduint.asm
               _00112_DS_   0x0053bc    program     static build/default/production/led.asm
               _00112_DS_   0x004a16    program     static moduint.asm
               _00112_DS_   0x00446a    program     static divsint.asm
               _00112_DS_   0x00454e    program     static modsint.asm
               _00112_DS_   0x005514    program     static moduchar.asm
               _00113_DS_   0x000340    program     static build/default/production/output.asm
               _00113_DS_   0x004472    program     static divsint.asm
               _00113_DS_   0x004556    program     static modsint.asm
               _00113_DS_   0x005914    program     static build/default/production/stateMachine.asm
               _00113_DS_   0x004e14    program     static build/default/production/event.asm
               _00113_DS_   0x0053a8    program     static build/default/production/led.asm
               _00114_DS_   0x004d92    program     static build/default/production/stdio.asm
               _00114_DS_   0x0053b4    program     static build/default/production/led.asm
               _00115_DS_   0x000376    program     static build/default/production/output.asm
               _00115_DS_   0x0053b2    program     static build/default/production/led.asm
               _00115_DS_   0x005920    program     static build/default/production/stateMachine.asm
               _00115_DS_   0x004e1e    program     static build/default/production/event.asm
               _00116_DS_   0x004a96    program     static build/default/production/rtc.asm
               _00116_DS_   0x004282    program     static build/default/production/keypad.asm
               _00117_DS_   0x00592a    program     static build/default/production/stateMachine.asm
               _00117_DS_   0x00428c    program     static build/default/production/keypad.asm
               _00117_DS_   0x004aa8    program     static build/default/production/rtc.asm
               _00117_DS_   0x004e28    program     static build/default/production/event.asm
               _00117_DS_   0x0003ac    program     static build/default/production/output.asm
               _00117_DS_   0x005bec    program     static build/default/production/var.asm
               _00117_DS_   0x005bba    program     static build/default/production/lcd.asm
               _00119_DS_   0x0003e2    program     static build/default/production/output.asm
               _00120_DS_   0x0041c4    program     static build/default/production/keypad.asm
               _00120_DS_   0x005936    program     static build/default/production/stateMachine.asm
               _00121_DS_   0x000418    program     static build/default/production/output.asm
               _00121_DS_   0x004e30    program     static build/default/production/event.asm
               _00121_DS_   0x004256    program     static build/default/production/keypad.asm
               _00122_DS_   0x00419e    program     static build/default/production/keypad.asm
               _00122_DS_   0x00533e    program     static build/default/production/led.asm
               _00123_DS_   0x004ac4    program     static build/default/production/rtc.asm
               _00123_DS_   0x00532a    program     static build/default/production/led.asm
               _00124_DS_   0x000474    program     static build/default/production/output.asm
               _00124_DS_   0x004296    program     static build/default/production/keypad.asm
               _00124_DS_   0x0046ce    program     static build/default/production/var.asm
               _00124_DS_   0x005256    program     static build/default/production/lcd.asm
               _00124_DS_   0x005336    program     static build/default/production/led.asm
               _00125_DS_   0x005334    program     static build/default/production/led.asm
               _00126_DS_   0x0004be    program     static build/default/production/output.asm
               _00126_DS_   0x004ae6    program     static build/default/production/rtc.asm
               _00126_DS_   0x00525a    program     static build/default/production/lcd.asm
               _00127_DS_   0x004b7e    program     static divuint.asm
               _00127_DS_   0x004a7e    program     static build/default/production/rtc.asm
               _00128_DS_   0x0004ea    program     static build/default/production/output.asm
               _00133_DS_   0x000510    program     static build/default/production/output.asm
               _00134_DS_   0x004722    program     static build/default/production/var.asm
               _00135_DS_   0x00068a    program     static build/default/production/output.asm
               _00136_DS_   0x004a04    program     static moduint.asm
               _00137_DS_   0x000748    program     static build/default/production/output.asm
               _00137_DS_   0x004a20    program     static moduint.asm
               _00141_DS_   0x000774    program     static build/default/production/output.asm
               _00142_DS_   0x00079e    program     static build/default/production/output.asm
               _00143_DS_   0x0008b2    program     static build/default/production/output.asm
               _00143_DS_   0x004e00    program     static build/default/production/event.asm
               _00146_DS_   0x004792    program     static build/default/production/lcd.asm
               _00148_DS_   0x000970    program     static build/default/production/output.asm
               _00149_DS_   0x0041b0    program     static build/default/production/keypad.asm
               _00150_DS_   0x005296    program     static build/default/production/stateMachine.asm
               _00150_DS_   0x0041aa    program     static build/default/production/keypad.asm
               _00151_DS_   0x004204    program     static build/default/production/keypad.asm
               _00152_DS_   0x00099c    program     static build/default/production/output.asm
               _00152_DS_   0x0041ec    program     static build/default/production/keypad.asm
               _00152_DS_   0x0052a8    program     static build/default/production/stateMachine.asm
               _00152_DS_   0x004f3a    program     static build/default/production/lcd.asm
               _00153_DS_   0x0009bc    program     static build/default/production/output.asm
               _00153_DS_   0x0041f8    program     static build/default/production/keypad.asm
               _00154_DS_   0x0041f6    program     static build/default/production/keypad.asm
               _00154_DS_   0x000ad8    program     static build/default/production/output.asm
               _00154_DS_   0x0052ba    program     static build/default/production/stateMachine.asm
               _00155_DS_   0x004f74    program     static build/default/production/lcd.asm
               _00155_DS_   0x00422c    program     static build/default/production/keypad.asm
               _00156_DS_   0x0052cc    program     static build/default/production/stateMachine.asm
               _00156_DS_   0x004226    program     static build/default/production/keypad.asm
               _00158_DS_   0x00424c    program     static build/default/production/keypad.asm
               _00158_DS_   0x000b96    program     static build/default/production/output.asm
               _00159_DS_   0x004246    program     static build/default/production/keypad.asm
               _00159_DS_   0x0052dc    program     static build/default/production/stateMachine.asm
               _00162_DS_   0x000bc2    program     static build/default/production/output.asm
               _00162_DS_   0x005088    program     static build/default/production/rtc.asm
               _00164_DS_   0x00427c    program     static build/default/production/keypad.asm
               _00164_DS_   0x000c80    program     static build/default/production/output.asm
               _00167_DS_   0x005066    program     static build/default/production/rtc.asm
               _00168_DS_   0x000cac    program     static build/default/production/output.asm
               _00170_DS_   0x000d60    program     static build/default/production/output.asm
               _00170_DS_   0x0050a0    program     static build/default/production/rtc.asm
               _00170_DS_   0x0058be    program     static build/default/production/var.asm
               _00171_DS_   0x00504e    program     static build/default/production/rtc.asm
               _00172_DS_   0x000e1e    program     static build/default/production/output.asm
               _00172_DS_   0x0058d4    program     static build/default/production/var.asm
               _00174_DS_   0x0058d8    program     static build/default/production/var.asm
               _00176_DS_   0x00528e    program     static build/default/production/stateMachine.asm
               _00176_DS_   0x000e4a    program     static build/default/production/output.asm
               _00177_DS_   0x005290    program     static build/default/production/stateMachine.asm
               _00177_DS_   0x000e6a    program     static build/default/production/output.asm
               _00178_DS_   0x000fbe    program     static build/default/production/output.asm
               _00178_DS_   0x0052a0    program     static build/default/production/stateMachine.asm
               _00179_DS_   0x0052a2    program     static build/default/production/stateMachine.asm
               _00180_DS_   0x0052b2    program     static build/default/production/stateMachine.asm
               _00181_DS_   0x0052b4    program     static build/default/production/stateMachine.asm
               _00182_DS_   0x0052c4    program     static build/default/production/stateMachine.asm
               _00182_DS_   0x0058b2    program     static build/default/production/var.asm
               _00182_DS_   0x00107c    program     static build/default/production/output.asm
               _00183_DS_   0x0052c6    program     static build/default/production/stateMachine.asm
               _00183_DS_   0x0058b4    program     static build/default/production/var.asm
               _00184_DS_   0x0058c8    program     static build/default/production/var.asm
               _00184_DS_   0x0052d6    program     static build/default/production/stateMachine.asm
               _00185_DS_   0x0058ca    program     static build/default/production/var.asm
               _00185_DS_   0x0052d8    program     static build/default/production/stateMachine.asm
               _00186_DS_   0x0010a8    program     static build/default/production/output.asm
               _00187_DS_   0x0010c8    program     static build/default/production/output.asm
               _00188_DS_   0x0011f8    program     static build/default/production/output.asm
               _00190_DS_   0x00252a    program     static build/default/production/stateMachine.asm
               _00191_DS_   0x005588    program     static build/default/production/var.asm
               _00192_DS_   0x0012ac    program     static build/default/production/output.asm
               _00193_DS_   0x00256a    program     static build/default/production/stateMachine.asm
               _00194_DS_   0x00559c    program     static build/default/production/var.asm
               _00194_DS_   0x00136a    program     static build/default/production/output.asm
               _00195_DS_   0x00258a    program     static build/default/production/stateMachine.asm
               _00196_DS_   0x0025ba    program     static build/default/production/stateMachine.asm
               _00198_DS_   0x001396    program     static build/default/production/output.asm
               _00199_DS_   0x0025f0    program     static build/default/production/stateMachine.asm
               _00200_DS_   0x00145a    program     static build/default/production/output.asm
               _00201_DS_   0x002600    program     static build/default/production/stateMachine.asm
               _00202_DS_   0x00557e    program     static build/default/production/var.asm
               _00202_DS_   0x001490    program     static build/default/production/output.asm
               _00202_DS_   0x00260c    program     static build/default/production/stateMachine.asm
               _00203_DS_   0x005580    program     static build/default/production/var.asm
               _00203_DS_   0x002616    program     static build/default/production/stateMachine.asm
               _00204_DS_   0x0014c6    program     static build/default/production/output.asm
               _00204_DS_   0x005592    program     static build/default/production/var.asm
               _00205_DS_   0x005594    program     static build/default/production/var.asm
               _00206_DS_   0x002626    program     static build/default/production/stateMachine.asm
               _00206_DS_   0x0014fc    program     static build/default/production/output.asm
               _00208_DS_   0x001532    program     static build/default/production/output.asm
               _00209_DS_   0x00263c    program     static build/default/production/stateMachine.asm
               _00210_DS_   0x001568    program     static build/default/production/output.asm
               _00211_DS_   0x00264c    program     static build/default/production/stateMachine.asm
               _00212_DS_   0x002658    program     static build/default/production/stateMachine.asm
               _00212_DS_   0x0015b2    program     static build/default/production/output.asm
               _00213_DS_   0x002662    program     static build/default/production/stateMachine.asm
               _00214_DS_   0x0015de    program     static build/default/production/output.asm
               _00215_DS_   0x002670    program     static build/default/production/stateMachine.asm
               _00217_DS_   0x00434c    program     static build/default/production/rtc.asm
               _00218_DS_   0x00267e    program     static build/default/production/stateMachine.asm
               _00219_DS_   0x001604    program     static build/default/production/output.asm
               _00220_DS_   0x0026dc    program     static build/default/production/stateMachine.asm
               _00220_DS_   0x00435c    program     static build/default/production/rtc.asm
               _00221_DS_   0x0016ca    program     static build/default/production/output.asm
               _00223_DS_   0x002788    program     static build/default/production/stateMachine.asm
               _00223_DS_   0x001700    program     static build/default/production/output.asm
               _00223_DS_   0x00436c    program     static build/default/production/rtc.asm
               _00225_DS_   0x001736    program     static build/default/production/output.asm
               _00226_DS_   0x00437c    program     static build/default/production/rtc.asm
               _00227_DS_   0x002798    program     static build/default/production/stateMachine.asm
               _00227_DS_   0x00176c    program     static build/default/production/output.asm
               _00229_DS_   0x0017a2    program     static build/default/production/output.asm
               _00229_DS_   0x0027a8    program     static build/default/production/stateMachine.asm
               _00231_DS_   0x0017d8    program     static build/default/production/output.asm
               _00232_DS_   0x0027c0    program     static build/default/production/stateMachine.asm
               _00233_DS_   0x001818    program     static build/default/production/output.asm
               _00234_DS_   0x00281a    program     static build/default/production/stateMachine.asm
               _00235_DS_   0x00184e    program     static build/default/production/output.asm
               _00237_DS_   0x001884    program     static build/default/production/output.asm
               _00237_DS_   0x0028ba    program     static build/default/production/stateMachine.asm
               _00239_DS_   0x0018ba    program     static build/default/production/output.asm
               _00241_DS_   0x0028ca    program     static build/default/production/stateMachine.asm
               _00241_DS_   0x0018f0    program     static build/default/production/output.asm
               _00243_DS_   0x0028da    program     static build/default/production/stateMachine.asm
               _00244_DS_   0x00194c    program     static build/default/production/output.asm
               _00246_DS_   0x0028f2    program     static build/default/production/stateMachine.asm
               _00246_DS_   0x001996    program     static build/default/production/output.asm
               _00248_DS_   0x0019c2    program     static build/default/production/output.asm
               _00248_DS_   0x00299c    program     static build/default/production/stateMachine.asm
               _00251_DS_   0x004088    program     static build/default/production/var.asm
               _00251_DS_   0x0019e8    program     static build/default/production/output.asm
               _00252_DS_   0x0029fc    program     static build/default/production/stateMachine.asm
               _00253_DS_   0x001a2e    program     static build/default/production/output.asm
               _00255_DS_   0x002a0c    program     static build/default/production/stateMachine.asm
               _00255_DS_   0x001a5a    program     static build/default/production/output.asm
               _00255_DS_   0x0040a0    program     static build/default/production/var.asm
               _00257_DS_   0x002a1c    program     static build/default/production/stateMachine.asm
               _00260_DS_   0x002a34    program     static build/default/production/stateMachine.asm
               _00260_DS_   0x001a80    program     static build/default/production/output.asm
               _00260_DS_   0x004142    program     static build/default/production/var.asm
               _00261_DS_   0x0040b6    program     static build/default/production/var.asm
               _00262_DS_   0x002ad0    program     static build/default/production/stateMachine.asm
               _00262_DS_   0x004112    program     static build/default/production/var.asm
               _00262_DS_   0x001ac0    program     static build/default/production/output.asm
               _00263_DS_   0x004146    program     static build/default/production/var.asm
               _00264_DS_   0x001aec    program     static build/default/production/output.asm
               _00266_DS_   0x002b2e    program     static build/default/production/stateMachine.asm
               _00267_DS_   0x001b12    program     static build/default/production/output.asm
               _00269_DS_   0x001bd0    program     static build/default/production/output.asm
               _00269_DS_   0x002b3e    program     static build/default/production/stateMachine.asm
               _00271_DS_   0x002b4e    program     static build/default/production/stateMachine.asm
               _00273_DS_   0x001bfc    program     static build/default/production/output.asm
               _00274_DS_   0x002b66    program     static build/default/production/stateMachine.asm
               _00275_DS_   0x001cc0    program     static build/default/production/output.asm
               _00276_DS_   0x002b76    program     static build/default/production/stateMachine.asm
               _00277_DS_   0x001cf6    program     static build/default/production/output.asm
               _00277_DS_   0x002b82    program     static build/default/production/stateMachine.asm
               _00278_DS_   0x002b8c    program     static build/default/production/stateMachine.asm
               _00279_DS_   0x001d2c    program     static build/default/production/output.asm
               _00280_DS_   0x002b9a    program     static build/default/production/stateMachine.asm
               _00281_DS_   0x001d62    program     static build/default/production/output.asm
               _00283_DS_   0x002ba8    program     static build/default/production/stateMachine.asm
               _00283_DS_   0x001d98    program     static build/default/production/output.asm
               _00285_DS_   0x002bce    program     static build/default/production/stateMachine.asm
               _00286_DS_   0x00403e    program     static build/default/production/var.asm
               _00286_DS_   0x001df4    program     static build/default/production/output.asm
               _00287_DS_   0x004096    program     static build/default/production/var.asm
               _00287_DS_   0x002bf6    program     static build/default/production/stateMachine.asm
               _00288_DS_   0x001e3e    program     static build/default/production/output.asm
               _00288_DS_   0x004098    program     static build/default/production/var.asm
               _00289_DS_   0x002c06    program     static build/default/production/stateMachine.asm
               _00289_DS_   0x0040ae    program     static build/default/production/var.asm
               _00290_DS_   0x001e6a    program     static build/default/production/output.asm
               _00290_DS_   0x0040b0    program     static build/default/production/var.asm
               _00291_DS_   0x002c16    program     static build/default/production/stateMachine.asm
               _00292_DS_   0x0040fa    program     static build/default/production/var.asm
               _00294_DS_   0x002c2e    program     static build/default/production/stateMachine.asm
               _00295_DS_   0x001e90    program     static build/default/production/output.asm
               _00296_DS_   0x002c50    program     static build/default/production/stateMachine.asm
               _00297_DS_   0x001f4e    program     static build/default/production/output.asm
               _00298_DS_   0x002c76    program     static build/default/production/stateMachine.asm
               _00299_DS_   0x003e92    program     static build/default/production/var.asm
               _00300_DS_   0x002c86    program     static build/default/production/stateMachine.asm
               _00301_DS_   0x001f7a    program     static build/default/production/output.asm
               _00302_DS_   0x003eee    program     static build/default/production/var.asm
               _00302_DS_   0x002c96    program     static build/default/production/stateMachine.asm
               _00303_DS_   0x002038    program     static build/default/production/output.asm
               _00305_DS_   0x002cae    program     static build/default/production/stateMachine.asm
               _00307_DS_   0x002064    program     static build/default/production/output.asm
               _00307_DS_   0x002d02    program     static build/default/production/stateMachine.asm
               _00309_DS_   0x003fde    program     static build/default/production/var.asm
               _00309_DS_   0x002118    program     static build/default/production/output.asm
               _00310_DS_   0x003f14    program     static build/default/production/var.asm
               _00310_DS_   0x002d52    program     static build/default/production/stateMachine.asm
               _00311_DS_   0x003f70    program     static build/default/production/var.asm
               _00311_DS_   0x0021dc    program     static build/default/production/output.asm
               _00312_DS_   0x003f86    program     static build/default/production/var.asm
               _00313_DS_   0x002d62    program     static build/default/production/stateMachine.asm
               _00313_DS_   0x002212    program     static build/default/production/output.asm
               _00314_DS_   0x003fe2    program     static build/default/production/var.asm
               _00315_DS_   0x002d72    program     static build/default/production/stateMachine.asm
               _00315_DS_   0x002248    program     static build/default/production/output.asm
               _00317_DS_   0x00227e    program     static build/default/production/output.asm
               _00318_DS_   0x002d8a    program     static build/default/production/stateMachine.asm
               _00319_DS_   0x0022b4    program     static build/default/production/output.asm
               _00320_DS_   0x002d98    program     static build/default/production/stateMachine.asm
               _00321_DS_   0x0022ea    program     static build/default/production/output.asm
               _00322_DS_   0x002da8    program     static build/default/production/stateMachine.asm
               _00323_DS_   0x00233e    program     static build/default/production/output.asm
               _00323_DS_   0x002db4    program     static build/default/production/stateMachine.asm
               _00324_DS_   0x002dbe    program     static build/default/production/stateMachine.asm
               _00325_DS_   0x00236a    program     static build/default/production/output.asm
               _00328_DS_   0x002390    program     static build/default/production/output.asm
               _00328_DS_   0x002dd6    program     static build/default/production/stateMachine.asm
               _00330_DS_   0x002dec    program     static build/default/production/stateMachine.asm
               _00330_DS_   0x0023cc    program     static build/default/production/output.asm
               _00332_DS_   0x0023f8    program     static build/default/production/output.asm
               _00332_DS_   0x002e04    program     static build/default/production/stateMachine.asm
               _00335_DS_   0x002e1c    program     static build/default/production/stateMachine.asm
               _00337_DS_   0x002e2a    program     static build/default/production/stateMachine.asm
               _00338_DS_   0x000456    program     static build/default/production/output.asm
               _00339_DS_   0x002e3a    program     static build/default/production/stateMachine.asm
               _00340_DS_   0x0004f2    program     static build/default/production/output.asm
               _00340_DS_   0x002e46    program     static build/default/production/stateMachine.asm
               _00341_DS_   0x002e50    program     static build/default/production/stateMachine.asm
               _00342_DS_   0x0015e6    program     static build/default/production/output.asm
               _00344_DS_   0x00192e    program     static build/default/production/output.asm
               _00345_DS_   0x002e68    program     static build/default/production/stateMachine.asm
               _00346_DS_   0x0019ca    program     static build/default/production/output.asm
               _00346_DS_   0x002e72    program     static build/default/production/stateMachine.asm
               _00347_DS_   0x003e4e    program     static build/default/production/var.asm
               _00347_DS_   0x002e7c    program     static build/default/production/stateMachine.asm
               _00348_DS_   0x003ea6    program     static build/default/production/var.asm
               _00348_DS_   0x001a62    program     static build/default/production/output.asm
               _00349_DS_   0x003f04    program     static build/default/production/var.asm
               _00349_DS_   0x002e88    program     static build/default/production/stateMachine.asm
               _00350_DS_   0x002e92    program     static build/default/production/stateMachine.asm
               _00350_DS_   0x001af4    program     static build/default/production/output.asm
               _00350_DS_   0x003f06    program     static build/default/production/var.asm
               _00352_DS_   0x003f58    program     static build/default/production/var.asm
               _00352_DS_   0x001dd6    program     static build/default/production/output.asm
               _00354_DS_   0x002eaa    program     static build/default/production/stateMachine.asm
               _00354_DS_   0x001e72    program     static build/default/production/output.asm
               _00356_DS_   0x002372    program     static build/default/production/output.asm
               _00356_DS_   0x002edc    program     static build/default/production/stateMachine.asm
               _00358_DS_   0x002400    program     static build/default/production/output.asm
               _00360_DS_   0x00241e    program     static build/default/production/output.asm
               _00360_DS_   0x002f1e    program     static build/default/production/stateMachine.asm
               _00362_DS_   0x002f3a    program     static build/default/production/stateMachine.asm
               _00364_DS_   0x002f56    program     static build/default/production/stateMachine.asm
               _00367_DS_   0x002f7a    program     static build/default/production/stateMachine.asm
               _00371_DS_   0x002fb8    program     static build/default/production/stateMachine.asm
               _00375_DS_   0x002ffa    program     static build/default/production/stateMachine.asm
               _00377_DS_   0x003016    program     static build/default/production/stateMachine.asm
               _00379_DS_   0x003032    program     static build/default/production/stateMachine.asm
               _00382_DS_   0x003056    program     static build/default/production/stateMachine.asm
               _00384_DS_   0x003088    program     static build/default/production/stateMachine.asm
               _00388_DS_   0x0030cc    program     static build/default/production/stateMachine.asm
               _00390_DS_   0x0030e8    program     static build/default/production/stateMachine.asm
               _00392_DS_   0x003104    program     static build/default/production/stateMachine.asm
               _00395_DS_   0x003128    program     static build/default/production/stateMachine.asm
               _00396_DS_   0x003132    program     static build/default/production/stateMachine.asm
               _00397_DS_   0x00313c    program     static build/default/production/stateMachine.asm
               _00399_DS_   0x003148    program     static build/default/production/stateMachine.asm
               _00400_DS_   0x003152    program     static build/default/production/stateMachine.asm
               _00404_DS_   0x00316a    program     static build/default/production/stateMachine.asm
               _00406_DS_   0x00319c    program     static build/default/production/stateMachine.asm
               _00408_DS_   0x0031e0    program     static build/default/production/stateMachine.asm
               _00411_DS_   0x0031f0    program     static build/default/production/stateMachine.asm
               _00414_DS_   0x00320c    program     static build/default/production/stateMachine.asm
               _00416_DS_   0x003228    program     static build/default/production/stateMachine.asm
               _00419_DS_   0x00324c    program     static build/default/production/stateMachine.asm
               _00421_DS_   0x003282    program     static build/default/production/stateMachine.asm
               _00423_DS_   0x0032ca    program     static build/default/production/stateMachine.asm
               _00426_DS_   0x0032da    program     static build/default/production/stateMachine.asm
               _00429_DS_   0x0032f6    program     static build/default/production/stateMachine.asm
               _00431_DS_   0x003312    program     static build/default/production/stateMachine.asm
               _00434_DS_   0x003336    program     static build/default/production/stateMachine.asm
               _00436_DS_   0x003368    program     static build/default/production/stateMachine.asm
               _00438_DS_   0x0033ae    program     static build/default/production/stateMachine.asm
               _00441_DS_   0x0033be    program     static build/default/production/stateMachine.asm
               _00444_DS_   0x0033da    program     static build/default/production/stateMachine.asm
               _00446_DS_   0x0033f6    program     static build/default/production/stateMachine.asm
               _00449_DS_   0x003416    program     static build/default/production/stateMachine.asm
               _00451_DS_   0x003424    program     static build/default/production/stateMachine.asm
               _00453_DS_   0x003434    program     static build/default/production/stateMachine.asm
               _00455_DS_   0x003444    program     static build/default/production/stateMachine.asm
               _00456_DS_   0x003452    program     static build/default/production/stateMachine.asm
               _00459_DS_   0x00345e    program     static build/default/production/stateMachine.asm
               _00460_DS_   0x003468    program     static build/default/production/stateMachine.asm
               _00461_DS_   0x003472    program     static build/default/production/stateMachine.asm
               _00464_DS_   0x003482    program     static build/default/production/stateMachine.asm
               _00465_DS_   0x003490    program     static build/default/production/stateMachine.asm
               _00468_DS_   0x00349c    program     static build/default/production/stateMachine.asm
               _00470_DS_   0x0034bc    program     static build/default/production/stateMachine.asm
               _00473_DS_   0x0034f6    program     static build/default/production/stateMachine.asm
               _00475_DS_   0x003576    program     static build/default/production/stateMachine.asm
               _00477_DS_   0x003554    program     static build/default/production/stateMachine.asm
               _00486_DS_   0x003514    program     static build/default/production/stateMachine.asm
               _00487_DS_   0x0035aa    program     static build/default/production/stateMachine.asm
               _00488_DS_   0x0035b6    program     static build/default/production/stateMachine.asm
               _00490_DS_   0x0035c6    program     static build/default/production/stateMachine.asm
               _00491_DS_   0x0035d0    program     static build/default/production/stateMachine.asm
               _00492_DS_   0x0035da    program     static build/default/production/stateMachine.asm
               _00494_DS_   0x0035e8    program     static build/default/production/stateMachine.asm
               _00497_DS_   0x0035f4    program     static build/default/production/stateMachine.asm
               _00499_DS_   0x003614    program     static build/default/production/stateMachine.asm
               _00502_DS_   0x00363e    program     static build/default/production/stateMachine.asm
               _00504_DS_   0x00365e    program     static build/default/production/stateMachine.asm
               _00505_DS_   0x003668    program     static build/default/production/stateMachine.asm
               _00506_DS_   0x003672    program     static build/default/production/stateMachine.asm
               _00508_DS_   0x003680    program     static build/default/production/stateMachine.asm
               _00511_DS_   0x00368c    program     static build/default/production/stateMachine.asm
               _00513_DS_   0x0036ac    program     static build/default/production/stateMachine.asm
               _00514_DS_   0x0036b6    program     static build/default/production/stateMachine.asm
               _00515_DS_   0x0036c0    program     static build/default/production/stateMachine.asm
               _00517_DS_   0x0036ce    program     static build/default/production/stateMachine.asm
               _00520_DS_   0x0036da    program     static build/default/production/stateMachine.asm
               _00522_DS_   0x0036fa    program     static build/default/production/stateMachine.asm
               _00524_DS_   0x003708    program     static build/default/production/stateMachine.asm
               _00526_DS_   0x003718    program     static build/default/production/stateMachine.asm
               _00527_DS_   0x003726    program     static build/default/production/stateMachine.asm
               _00530_DS_   0x003732    program     static build/default/production/stateMachine.asm
               _00532_DS_   0x003752    program     static build/default/production/stateMachine.asm
               _00535_DS_   0x0037a6    program     static build/default/production/stateMachine.asm
               _00722_DS_   0x000286    program     static build/default/production/output.asm
               _00723_DS_   0x000288    program     static build/default/production/output.asm
               _00724_DS_   0x000354    program     static build/default/production/output.asm
               _00725_DS_   0x000356    program     static build/default/production/output.asm
               _00726_DS_   0x00038a    program     static build/default/production/output.asm
               _00727_DS_   0x00038c    program     static build/default/production/output.asm
               _00728_DS_   0x0003c0    program     static build/default/production/output.asm
               _00729_DS_   0x0003c2    program     static build/default/production/output.asm
               _00730_DS_   0x0003f6    program     static build/default/production/output.asm
               _00731_DS_   0x0003f8    program     static build/default/production/output.asm
               _00732_DS_   0x00042c    program     static build/default/production/output.asm
               _00733_DS_   0x00042e    program     static build/default/production/output.asm
               _00734_DS_   0x000472    program     static build/default/production/output.asm
               _00735_DS_   0x000488    program     static build/default/production/output.asm
               _00736_DS_   0x00048a    program     static build/default/production/output.asm
               _00739_DS_   0x00050e    program     static build/default/production/output.asm
               _00740_DS_   0x00051a    program     static build/default/production/output.asm
               _00741_DS_   0x00051c    program     static build/default/production/output.asm
               _00742_DS_   0x000694    program     static build/default/production/output.asm
               _00743_DS_   0x000696    program     static build/default/production/output.asm
               _00747_DS_   0x00077e    program     static build/default/production/output.asm
               _00749_DS_   0x000788    program     static build/default/production/output.asm
               _00751_DS_   0x000792    program     static build/default/production/output.asm
               _00752_DS_   0x00079c    program     static build/default/production/output.asm
               _00754_DS_   0x0008bc    program     static build/default/production/output.asm
               _00755_DS_   0x0008be    program     static build/default/production/output.asm
               _00759_DS_   0x0009a6    program     static build/default/production/output.asm
               _00761_DS_   0x0009b0    program     static build/default/production/output.asm
               _00762_DS_   0x0009ba    program     static build/default/production/output.asm
               _00764_DS_   0x000ae2    program     static build/default/production/output.asm
               _00765_DS_   0x000ae4    program     static build/default/production/output.asm
               _00768_DS_   0x000bcc    program     static build/default/production/output.asm
               _00769_DS_   0x000bce    program     static build/default/production/output.asm
               _00772_DS_   0x000cb6    program     static build/default/production/output.asm
               _00773_DS_   0x000cb8    program     static build/default/production/output.asm
               _00774_DS_   0x000d6a    program     static build/default/production/output.asm
               _00775_DS_   0x000d6c    program     static build/default/production/output.asm
               _00779_DS_   0x000e54    program     static build/default/production/output.asm
               _00781_DS_   0x000e5e    program     static build/default/production/output.asm
               _00782_DS_   0x000e68    program     static build/default/production/output.asm
               _00784_DS_   0x000fc8    program     static build/default/production/output.asm
               _00785_DS_   0x000fca    program     static build/default/production/output.asm
               _00789_DS_   0x0010b2    program     static build/default/production/output.asm
               _00791_DS_   0x0010bc    program     static build/default/production/output.asm
               _00792_DS_   0x0010c6    program     static build/default/production/output.asm
               _00794_DS_   0x001202    program     static build/default/production/output.asm
               _00795_DS_   0x001204    program     static build/default/production/output.asm
               _00796_DS_   0x0012b6    program     static build/default/production/output.asm
               _00797_DS_   0x0012b8    program     static build/default/production/output.asm
               _00800_DS_   0x0013a0    program     static build/default/production/output.asm
               _00801_DS_   0x0013a2    program     static build/default/production/output.asm
               _00802_DS_   0x00146e    program     static build/default/production/output.asm
               _00803_DS_   0x001470    program     static build/default/production/output.asm
               _00804_DS_   0x0014a4    program     static build/default/production/output.asm
               _00805_DS_   0x0014a6    program     static build/default/production/output.asm
               _00806_DS_   0x0014da    program     static build/default/production/output.asm
               _00807_DS_   0x0014dc    program     static build/default/production/output.asm
               _00808_DS_   0x001510    program     static build/default/production/output.asm
               _00809_DS_   0x001512    program     static build/default/production/output.asm
               _00810_DS_   0x001546    program     static build/default/production/output.asm
               _00811_DS_   0x001548    program     static build/default/production/output.asm
               _00812_DS_   0x00157c    program     static build/default/production/output.asm
               _00813_DS_   0x00157e    program     static build/default/production/output.asm
               _00816_DS_   0x001602    program     static build/default/production/output.asm
               _00817_DS_   0x00160e    program     static build/default/production/output.asm
               _00818_DS_   0x001612    program     static build/default/production/output.asm
               _00819_DS_   0x0016de    program     static build/default/production/output.asm
               _00820_DS_   0x0016e0    program     static build/default/production/output.asm
               _00821_DS_   0x001714    program     static build/default/production/output.asm
               _00822_DS_   0x001716    program     static build/default/production/output.asm
               _00823_DS_   0x00174a    program     static build/default/production/output.asm
               _00824_DS_   0x00174c    program     static build/default/production/output.asm
               _00825_DS_   0x001780    program     static build/default/production/output.asm
               _00826_DS_   0x001782    program     static build/default/production/output.asm
               _00827_DS_   0x0017b6    program     static build/default/production/output.asm
               _00828_DS_   0x0017b8    program     static build/default/production/output.asm
               _00829_DS_   0x0017f6    program     static build/default/production/output.asm
               _00830_DS_   0x0017f8    program     static build/default/production/output.asm
               _00831_DS_   0x00182c    program     static build/default/production/output.asm
               _00832_DS_   0x00182e    program     static build/default/production/output.asm
               _00833_DS_   0x001862    program     static build/default/production/output.asm
               _00834_DS_   0x001864    program     static build/default/production/output.asm
               _00835_DS_   0x001898    program     static build/default/production/output.asm
               _00836_DS_   0x00189a    program     static build/default/production/output.asm
               _00837_DS_   0x0018ce    program     static build/default/production/output.asm
               _00838_DS_   0x0018d0    program     static build/default/production/output.asm
               _00839_DS_   0x001904    program     static build/default/production/output.asm
               _00840_DS_   0x001906    program     static build/default/production/output.asm
               _00841_DS_   0x00194a    program     static build/default/production/output.asm
               _00842_DS_   0x001960    program     static build/default/production/output.asm
               _00843_DS_   0x001962    program     static build/default/production/output.asm
               _00846_DS_   0x0019e6    program     static build/default/production/output.asm
               _00849_DS_   0x001a7e    program     static build/default/production/output.asm
               _00850_DS_   0x001a8a    program     static build/default/production/output.asm
               _00851_DS_   0x001a8c    program     static build/default/production/output.asm
               _00854_DS_   0x001b10    program     static build/default/production/output.asm
               _00855_DS_   0x001b1c    program     static build/default/production/output.asm
               _00856_DS_   0x001b1e    program     static build/default/production/output.asm
               _00859_DS_   0x001c06    program     static build/default/production/output.asm
               _00860_DS_   0x001c08    program     static build/default/production/output.asm
               _00861_DS_   0x001cd4    program     static build/default/production/output.asm
               _00862_DS_   0x001cd6    program     static build/default/production/output.asm
               _00863_DS_   0x001d0a    program     static build/default/production/output.asm
               _00864_DS_   0x001d0c    program     static build/default/production/output.asm
               _00865_DS_   0x001d40    program     static build/default/production/output.asm
               _00866_DS_   0x001d42    program     static build/default/production/output.asm
               _00867_DS_   0x001d76    program     static build/default/production/output.asm
               _00868_DS_   0x001d78    program     static build/default/production/output.asm
               _00869_DS_   0x001dac    program     static build/default/production/output.asm
               _00870_DS_   0x001dae    program     static build/default/production/output.asm
               _00871_DS_   0x001df2    program     static build/default/production/output.asm
               _00872_DS_   0x001e08    program     static build/default/production/output.asm
               _00873_DS_   0x001e0a    program     static build/default/production/output.asm
               _00876_DS_   0x001e8e    program     static build/default/production/output.asm
               _00877_DS_   0x001e9a    program     static build/default/production/output.asm
               _00878_DS_   0x001e9c    program     static build/default/production/output.asm
               _00881_DS_   0x001f84    program     static build/default/production/output.asm
               _00882_DS_   0x001f86    program     static build/default/production/output.asm
               _00885_DS_   0x00206e    program     static build/default/production/output.asm
               _00886_DS_   0x002070    program     static build/default/production/output.asm
               _00887_DS_   0x002122    program     static build/default/production/output.asm
               _00888_DS_   0x002124    program     static build/default/production/output.asm
               _00889_DS_   0x0021f0    program     static build/default/production/output.asm
               _00890_DS_   0x0021f2    program     static build/default/production/output.asm
               _00891_DS_   0x002226    program     static build/default/production/output.asm
               _00892_DS_   0x002228    program     static build/default/production/output.asm
               _00893_DS_   0x00225c    program     static build/default/production/output.asm
               _00894_DS_   0x00225e    program     static build/default/production/output.asm
               _00895_DS_   0x002292    program     static build/default/production/output.asm
               _00896_DS_   0x002294    program     static build/default/production/output.asm
               _00897_DS_   0x0022c8    program     static build/default/production/output.asm
               _00898_DS_   0x0022ca    program     static build/default/production/output.asm
               _00899_DS_   0x002308    program     static build/default/production/output.asm
               _00900_DS_   0x00230a    program     static build/default/production/output.asm
               _00903_DS_   0x00238e    program     static build/default/production/output.asm
               _00906_DS_   0x00241c    program     static build/default/production/output.asm
               _01007_DS_   0x0024a2    program     static build/default/production/stateMachine.asm
               _01009_DS_   0x00255c    program     static build/default/production/stateMachine.asm
               _01010_DS_   0x00257e    program     static build/default/production/stateMachine.asm
               _01011_DS_   0x002580    program     static build/default/production/stateMachine.asm
               _01012_DS_   0x0025b6    program     static build/default/production/stateMachine.asm
               _01030_DS_   0x0026a4    program     static build/default/production/stateMachine.asm
               _01032_DS_   0x0026e4    program     static build/default/production/stateMachine.asm
               _01033_DS_   0x002706    program     static build/default/production/stateMachine.asm
               _01034_DS_   0x002750    program     static build/default/production/stateMachine.asm
               _01040_DS_   0x0027b2    program     static build/default/production/stateMachine.asm
               _01041_DS_   0x0027e6    program     static build/default/production/stateMachine.asm
               _01043_DS_   0x002822    program     static build/default/production/stateMachine.asm
               _01044_DS_   0x002844    program     static build/default/production/stateMachine.asm
               _01045_DS_   0x002884    program     static build/default/production/stateMachine.asm
               _01051_DS_   0x0028e4    program     static build/default/production/stateMachine.asm
               _01052_DS_   0x00291a    program     static build/default/production/stateMachine.asm
               _01053_DS_   0x002964    program     static build/default/production/stateMachine.asm
               _01056_DS_   0x0029c4    program     static build/default/production/stateMachine.asm
               _01062_DS_   0x002a26    program     static build/default/production/stateMachine.asm
               _01063_DS_   0x002a5c    program     static build/default/production/stateMachine.asm
               _01064_DS_   0x002a9c    program     static build/default/production/stateMachine.asm
               _01067_DS_   0x002af8    program     static build/default/production/stateMachine.asm
               _01073_DS_   0x002b58    program     static build/default/production/stateMachine.asm
               _01089_DS_   0x002c20    program     static build/default/production/stateMachine.asm
               _01097_DS_   0x002ca0    program     static build/default/production/stateMachine.asm
               _01098_DS_   0x002cc8    program     static build/default/production/stateMachine.asm
               _01106_DS_   0x002d7c    program     static build/default/production/stateMachine.asm
               _01114_DS_   0x002dc8    program     static build/default/production/stateMachine.asm
               _01118_DS_   0x002e0e    program     static build/default/production/stateMachine.asm
               _01126_DS_   0x002e5a    program     static build/default/production/stateMachine.asm
               _01134_DS_   0x002e9c    program     static build/default/production/stateMachine.asm
               _01138_DS_   0x002f24    program     static build/default/production/stateMachine.asm
               _01140_DS_   0x002f40    program     static build/default/production/stateMachine.asm
               _01142_DS_   0x002f60    program     static build/default/production/stateMachine.asm
               _01146_DS_   0x003000    program     static build/default/production/stateMachine.asm
               _01148_DS_   0x00301c    program     static build/default/production/stateMachine.asm
               _01150_DS_   0x00303c    program     static build/default/production/stateMachine.asm
               _01156_DS_   0x0030d2    program     static build/default/production/stateMachine.asm
               _01158_DS_   0x0030ee    program     static build/default/production/stateMachine.asm
               _01160_DS_   0x00310e    program     static build/default/production/stateMachine.asm
               _01168_DS_   0x00315c    program     static build/default/production/stateMachine.asm
               _01170_DS_   0x0031a6    program     static build/default/production/stateMachine.asm
               _01172_DS_   0x0031f6    program     static build/default/production/stateMachine.asm
               _01174_DS_   0x003212    program     static build/default/production/stateMachine.asm
               _01176_DS_   0x003232    program     static build/default/production/stateMachine.asm
               _01178_DS_   0x00328c    program     static build/default/production/stateMachine.asm
               _01181_DS_   0x0032e0    program     static build/default/production/stateMachine.asm
               _01183_DS_   0x0032fc    program     static build/default/production/stateMachine.asm
               _01185_DS_   0x00331c    program     static build/default/production/stateMachine.asm
               _01187_DS_   0x003372    program     static build/default/production/stateMachine.asm
               _01190_DS_   0x0033c4    program     static build/default/production/stateMachine.asm
               _01192_DS_   0x0033e0    program     static build/default/production/stateMachine.asm
               _01194_DS_   0x0033fe    program     static build/default/production/stateMachine.asm
               _01211_DS_   0x0034b0    program     static build/default/production/stateMachine.asm
               _01212_DS_   0x0034b2    program     static build/default/production/stateMachine.asm
               _01213_DS_   0x0034d8    program     static build/default/production/stateMachine.asm
               _01214_DS_   0x0034da    program     static build/default/production/stateMachine.asm
               _01223_DS_   0x003552    program     static build/default/production/stateMachine.asm
               _01225_DS_   0x003568    program     static build/default/production/stateMachine.asm
               _01226_DS_   0x00356a    program     static build/default/production/stateMachine.asm
               _01235_DS_   0x003608    program     static build/default/production/stateMachine.asm
               _01236_DS_   0x00360a    program     static build/default/production/stateMachine.asm
               _01237_DS_   0x003630    program     static build/default/production/stateMachine.asm
               _01238_DS_   0x003632    program     static build/default/production/stateMachine.asm
               _01263_DS_   0x003746    program     static build/default/production/stateMachine.asm
               _01264_DS_   0x003748    program     static build/default/production/stateMachine.asm
               _01265_DS_   0x00376e    program     static build/default/production/stateMachine.asm
               _01266_DS_   0x003770    program     static build/default/production/stateMachine.asm
              _100119_DS_   0x002380    program     static build/default/production/output.asm
               _10110_DS_   0x000464    program     static build/default/production/output.asm
               _10298_DS_   0x003e92    program     static build/default/production/var.asm
              _110120_DS_   0x00240e    program     static build/default/production/output.asm
               _20111_DS_   0x000500    program     static build/default/production/output.asm
               _20299_DS_   0x003eee    program     static build/default/production/var.asm
               _30112_DS_   0x0015f4    program     static build/default/production/output.asm
               _30300_DS_   0x004056    program     static build/default/production/var.asm
               _40113_DS_   0x00193c    program     static build/default/production/output.asm
               _40301_DS_   0x004104    program     static build/default/production/var.asm
               _50114_DS_   0x0019d8    program     static build/default/production/output.asm
               _50302_DS_   0x004712    program     static build/default/production/var.asm
               _60115_DS_   0x001a70    program     static build/default/production/output.asm
               _70116_DS_   0x001b02    program     static build/default/production/output.asm
               _80117_DS_   0x001de4    program     static build/default/production/output.asm
               _90118_DS_   0x001e80    program     static build/default/production/output.asm
                  _ADCON0   0x000fc2       data     extern libdev18f4520_a-pic18f4520.asm
              _ADCON0bits   0x000fc2       data     extern libdev18f4520_a-pic18f4520.asm
                  _ADCON1   0x000fc1       data     extern libdev18f4520_a-pic18f4520.asm
              _ADCON1bits   0x000fc1       data     extern libdev18f4520_a-pic18f4520.asm
                  _ADCON2   0x000fc0       data     extern libdev18f4520_a-pic18f4520.asm
              _ADCON2bits   0x000fc0       data     extern libdev18f4520_a-pic18f4520.asm
                   _ADRES   0x000fc3       data     extern libdev18f4520_a-pic18f4520.asm
                  _ADRESH   0x000fc4       data     extern libdev18f4520_a-pic18f4520.asm
                  _ADRESL   0x000fc3       data     extern libdev18f4520_a-pic18f4520.asm
                  _ADread   0x0002ee       data     extern build/default/production/output.asm
                 _BAUDCON   0x000fb8       data     extern libdev18f4520_a-pic18f4520.asm
             _BAUDCONbits   0x000fb8       data     extern libdev18f4520_a-pic18f4520.asm
                 _BAUDCTL   0x000fb8       data     extern libdev18f4520_a-pic18f4520.asm
             _BAUDCTLbits   0x000fb8       data     extern libdev18f4520_a-pic18f4520.asm
                     _BSR   0x000fe0       data     extern libdev18f4520_a-pic18f4520.asm
                 _CCP1CON   0x000fbd       data     extern libdev18f4520_a-pic18f4520.asm
             _CCP1CONbits   0x000fbd       data     extern libdev18f4520_a-pic18f4520.asm
                 _CCP2CON   0x000fba       data     extern libdev18f4520_a-pic18f4520.asm
             _CCP2CONbits   0x000fba       data     extern libdev18f4520_a-pic18f4520.asm
                   _CCPR1   0x000fbe       data     extern libdev18f4520_a-pic18f4520.asm
                  _CCPR1H   0x000fbf       data     extern libdev18f4520_a-pic18f4520.asm
                  _CCPR1L   0x000fbe       data     extern libdev18f4520_a-pic18f4520.asm
                   _CCPR2   0x000fbb       data     extern libdev18f4520_a-pic18f4520.asm
                  _CCPR2H   0x000fbc       data     extern libdev18f4520_a-pic18f4520.asm
                  _CCPR2L   0x000fbb       data     extern libdev18f4520_a-pic18f4520.asm
                   _CMCON   0x000fb4       data     extern libdev18f4520_a-pic18f4520.asm
               _CMCONbits   0x000fb4       data     extern libdev18f4520_a-pic18f4520.asm
                  _CVRCON   0x000fb5       data     extern libdev18f4520_a-pic18f4520.asm
              _CVRCONbits   0x000fb5       data     extern libdev18f4520_a-pic18f4520.asm
                    _DDRA   0x000f92       data     extern libdev18f4520_a-pic18f4520.asm
                _DDRAbits   0x000f92       data     extern libdev18f4520_a-pic18f4520.asm
                    _DDRB   0x000f93       data     extern libdev18f4520_a-pic18f4520.asm
                _DDRBbits   0x000f93       data     extern libdev18f4520_a-pic18f4520.asm
                    _DDRC   0x000f94       data     extern libdev18f4520_a-pic18f4520.asm
                _DDRCbits   0x000f94       data     extern libdev18f4520_a-pic18f4520.asm
                    _DDRD   0x000f95       data     extern libdev18f4520_a-pic18f4520.asm
                _DDRDbits   0x000f95       data     extern libdev18f4520_a-pic18f4520.asm
                    _DDRE   0x000f96       data     extern libdev18f4520_a-pic18f4520.asm
                _DDREbits   0x000f96       data     extern libdev18f4520_a-pic18f4520.asm
                _Delay2ms   0x005ba6    program     extern build/default/production/lcd.asm
               _Delay40us   0x005c3a    program     extern build/default/production/lcd.asm
                 _ECCP1AS   0x000fb6       data     extern libdev18f4520_a-pic18f4520.asm
             _ECCP1ASbits   0x000fb6       data     extern libdev18f4520_a-pic18f4520.asm
                _ECCP1DEL   0x000fb7       data     extern libdev18f4520_a-pic18f4520.asm
            _ECCP1DELbits   0x000fb7       data     extern libdev18f4520_a-pic18f4520.asm
                  _ECCPAS   0x000fb6       data     extern libdev18f4520_a-pic18f4520.asm
              _ECCPASbits   0x000fb6       data     extern libdev18f4520_a-pic18f4520.asm
                   _EEADR   0x000fa9       data     extern libdev18f4520_a-pic18f4520.asm
                  _EECON1   0x000fa6       data     extern libdev18f4520_a-pic18f4520.asm
              _EECON1bits   0x000fa6       data     extern libdev18f4520_a-pic18f4520.asm
                  _EECON2   0x000fa7       data     extern libdev18f4520_a-pic18f4520.asm
                  _EEDATA   0x000fa8       data     extern libdev18f4520_a-pic18f4520.asm
                   _FSR0H   0x000fea       data     extern libdev18f4520_a-pic18f4520.asm
                   _FSR0L   0x000fe9       data     extern libdev18f4520_a-pic18f4520.asm
                   _FSR1H   0x000fe2       data     extern libdev18f4520_a-pic18f4520.asm
                   _FSR1L   0x000fe1       data     extern libdev18f4520_a-pic18f4520.asm
                   _FSR2H   0x000fda       data     extern libdev18f4520_a-pic18f4520.asm
                   _FSR2L   0x000fd9       data     extern libdev18f4520_a-pic18f4520.asm
                 _HLVDCON   0x000fd2       data     extern libdev18f4520_a-pic18f4520.asm
             _HLVDCONbits   0x000fd2       data     extern libdev18f4520_a-pic18f4520.asm
                   _INDF0   0x000fef       data     extern libdev18f4520_a-pic18f4520.asm
                   _INDF1   0x000fe7       data     extern libdev18f4520_a-pic18f4520.asm
                   _INDF2   0x000fdf       data     extern libdev18f4520_a-pic18f4520.asm
                  _INTCON   0x000ff2       data     extern libdev18f4520_a-pic18f4520.asm
                 _INTCON2   0x000ff1       data     extern libdev18f4520_a-pic18f4520.asm
             _INTCON2bits   0x000ff1       data     extern libdev18f4520_a-pic18f4520.asm
                 _INTCON3   0x000ff0       data     extern libdev18f4520_a-pic18f4520.asm
             _INTCON3bits   0x000ff0       data     extern libdev18f4520_a-pic18f4520.asm
              _INTCONbits   0x000ff2       data     extern libdev18f4520_a-pic18f4520.asm
                    _IPR1   0x000f9f       data     extern libdev18f4520_a-pic18f4520.asm
                _IPR1bits   0x000f9f       data     extern libdev18f4520_a-pic18f4520.asm
                    _IPR2   0x000fa2       data     extern libdev18f4520_a-pic18f4520.asm
                _IPR2bits   0x000fa2       data     extern libdev18f4520_a-pic18f4520.asm
                    _LATA   0x000f89       data     extern libdev18f4520_a-pic18f4520.asm
                _LATAbits   0x000f89       data     extern libdev18f4520_a-pic18f4520.asm
                    _LATB   0x000f8a       data     extern libdev18f4520_a-pic18f4520.asm
                _LATBbits   0x000f8a       data     extern libdev18f4520_a-pic18f4520.asm
                    _LATC   0x000f8b       data     extern libdev18f4520_a-pic18f4520.asm
                _LATCbits   0x000f8b       data     extern libdev18f4520_a-pic18f4520.asm
                    _LATD   0x000f8c       data     extern libdev18f4520_a-pic18f4520.asm
                _LATDbits   0x000f8c       data     extern libdev18f4520_a-pic18f4520.asm
                    _LATE   0x000f8d       data     extern libdev18f4520_a-pic18f4520.asm
                _LATEbits   0x000f8d       data     extern libdev18f4520_a-pic18f4520.asm
                  _LVDCON   0x000fd2       data     extern libdev18f4520_a-pic18f4520.asm
              _LVDCONbits   0x000fd2       data     extern libdev18f4520_a-pic18f4520.asm
                  _OSCCON   0x000fd3       data     extern libdev18f4520_a-pic18f4520.asm
              _OSCCONbits   0x000fd3       data     extern libdev18f4520_a-pic18f4520.asm
                 _OSCTUNE   0x000f9b       data     extern libdev18f4520_a-pic18f4520.asm
             _OSCTUNEbits   0x000f9b       data     extern libdev18f4520_a-pic18f4520.asm
                      _PC   0x000ff9       data     extern libdev18f4520_a-pic18f4520.asm
                     _PCL   0x000ff9       data     extern libdev18f4520_a-pic18f4520.asm
                  _PCLATH   0x000ffa       data     extern libdev18f4520_a-pic18f4520.asm
                  _PCLATU   0x000ffb       data     extern libdev18f4520_a-pic18f4520.asm
                    _PIE1   0x000f9d       data     extern libdev18f4520_a-pic18f4520.asm
                _PIE1bits   0x000f9d       data     extern libdev18f4520_a-pic18f4520.asm
                    _PIE2   0x000fa0       data     extern libdev18f4520_a-pic18f4520.asm
                _PIE2bits   0x000fa0       data     extern libdev18f4520_a-pic18f4520.asm
                    _PIR1   0x000f9e       data     extern libdev18f4520_a-pic18f4520.asm
                _PIR1bits   0x000f9e       data     extern libdev18f4520_a-pic18f4520.asm
                    _PIR2   0x000fa1       data     extern libdev18f4520_a-pic18f4520.asm
                _PIR2bits   0x000fa1       data     extern libdev18f4520_a-pic18f4520.asm
                  _PLUSW0   0x000feb       data     extern libdev18f4520_a-pic18f4520.asm
                  _PLUSW1   0x000fe3       data     extern libdev18f4520_a-pic18f4520.asm
                  _PLUSW2   0x000fdb       data     extern libdev18f4520_a-pic18f4520.asm
                   _PORTA   0x000f80       data     extern libdev18f4520_a-pic18f4520.asm
               _PORTAbits   0x000f80       data     extern libdev18f4520_a-pic18f4520.asm
                   _PORTB   0x000f81       data     extern libdev18f4520_a-pic18f4520.asm
               _PORTBbits   0x000f81       data     extern libdev18f4520_a-pic18f4520.asm
                   _PORTC   0x000f82       data     extern libdev18f4520_a-pic18f4520.asm
               _PORTCbits   0x000f82       data     extern libdev18f4520_a-pic18f4520.asm
                   _PORTD   0x000f83       data     extern libdev18f4520_a-pic18f4520.asm
               _PORTDbits   0x000f83       data     extern libdev18f4520_a-pic18f4520.asm
                   _PORTE   0x000f84       data     extern libdev18f4520_a-pic18f4520.asm
               _PORTEbits   0x000f84       data     extern libdev18f4520_a-pic18f4520.asm
                _POSTDEC0   0x000fed       data     extern libdev18f4520_a-pic18f4520.asm
                _POSTDEC1   0x000fe5       data     extern libdev18f4520_a-pic18f4520.asm
                _POSTDEC2   0x000fdd       data     extern libdev18f4520_a-pic18f4520.asm
                _POSTINC0   0x000fee       data     extern libdev18f4520_a-pic18f4520.asm
                _POSTINC1   0x000fe6       data     extern libdev18f4520_a-pic18f4520.asm
                _POSTINC2   0x000fde       data     extern libdev18f4520_a-pic18f4520.asm
                     _PR2   0x000fcb       data     extern libdev18f4520_a-pic18f4520.asm
                 _PREINC0   0x000fec       data     extern libdev18f4520_a-pic18f4520.asm
                 _PREINC1   0x000fe4       data     extern libdev18f4520_a-pic18f4520.asm
                 _PREINC2   0x000fdc       data     extern libdev18f4520_a-pic18f4520.asm
                    _PROD   0x000ff3       data     extern libdev18f4520_a-pic18f4520.asm
                   _PRODH   0x000ff4       data     extern libdev18f4520_a-pic18f4520.asm
                   _PRODL   0x000ff3       data     extern libdev18f4520_a-pic18f4520.asm
                 _PWM1CON   0x000fb7       data     extern libdev18f4520_a-pic18f4520.asm
             _PWM1CONbits   0x000fb7       data     extern libdev18f4520_a-pic18f4520.asm
                    _RCON   0x000fd0       data     extern libdev18f4520_a-pic18f4520.asm
                _RCONbits   0x000fd0       data     extern libdev18f4520_a-pic18f4520.asm
                   _RCREG   0x000fae       data     extern libdev18f4520_a-pic18f4520.asm
                   _RCSTA   0x000fab       data     extern libdev18f4520_a-pic18f4520.asm
               _RCSTAbits   0x000fab       data     extern libdev18f4520_a-pic18f4520.asm
                   _SPBRG   0x000faf       data     extern libdev18f4520_a-pic18f4520.asm
                  _SPBRGH   0x000fb0       data     extern libdev18f4520_a-pic18f4520.asm
                  _SSPADD   0x000fc8       data     extern libdev18f4520_a-pic18f4520.asm
                  _SSPBUF   0x000fc9       data     extern libdev18f4520_a-pic18f4520.asm
                 _SSPCON1   0x000fc6       data     extern libdev18f4520_a-pic18f4520.asm
             _SSPCON1bits   0x000fc6       data     extern libdev18f4520_a-pic18f4520.asm
                 _SSPCON2   0x000fc5       data     extern libdev18f4520_a-pic18f4520.asm
             _SSPCON2bits   0x000fc5       data     extern libdev18f4520_a-pic18f4520.asm
                 _SSPSTAT   0x000fc7       data     extern libdev18f4520_a-pic18f4520.asm
             _SSPSTATbits   0x000fc7       data     extern libdev18f4520_a-pic18f4520.asm
                  _STATUS   0x000fd8       data     extern libdev18f4520_a-pic18f4520.asm
              _STATUSbits   0x000fd8       data     extern libdev18f4520_a-pic18f4520.asm
                  _STKPTR   0x000ffc       data     extern libdev18f4520_a-pic18f4520.asm
              _STKPTRbits   0x000ffc       data     extern libdev18f4520_a-pic18f4520.asm
                   _T0CON   0x000fd5       data     extern libdev18f4520_a-pic18f4520.asm
               _T0CONbits   0x000fd5       data     extern libdev18f4520_a-pic18f4520.asm
                   _T1CON   0x000fcd       data     extern libdev18f4520_a-pic18f4520.asm
               _T1CONbits   0x000fcd       data     extern libdev18f4520_a-pic18f4520.asm
                   _T2CON   0x000fca       data     extern libdev18f4520_a-pic18f4520.asm
               _T2CONbits   0x000fca       data     extern libdev18f4520_a-pic18f4520.asm
                   _T3CON   0x000fb1       data     extern libdev18f4520_a-pic18f4520.asm
               _T3CONbits   0x000fb1       data     extern libdev18f4520_a-pic18f4520.asm
                  _TABLAT   0x000ff5       data     extern libdev18f4520_a-pic18f4520.asm
                  _TBLPTR   0x000ff6       data     extern libdev18f4520_a-pic18f4520.asm
                 _TBLPTRH   0x000ff7       data     extern libdev18f4520_a-pic18f4520.asm
                 _TBLPTRL   0x000ff6       data     extern libdev18f4520_a-pic18f4520.asm
                 _TBLPTRU   0x000ff8       data     extern libdev18f4520_a-pic18f4520.asm
                    _TMR0   0x000fd6       data     extern libdev18f4520_a-pic18f4520.asm
                   _TMR0H   0x000fd7       data     extern libdev18f4520_a-pic18f4520.asm
                   _TMR0L   0x000fd6       data     extern libdev18f4520_a-pic18f4520.asm
                    _TMR1   0x000fce       data     extern libdev18f4520_a-pic18f4520.asm
                   _TMR1H   0x000fcf       data     extern libdev18f4520_a-pic18f4520.asm
                   _TMR1L   0x000fce       data     extern libdev18f4520_a-pic18f4520.asm
                    _TMR2   0x000fcc       data     extern libdev18f4520_a-pic18f4520.asm
                    _TMR3   0x000fb2       data     extern libdev18f4520_a-pic18f4520.asm
                   _TMR3H   0x000fb3       data     extern libdev18f4520_a-pic18f4520.asm
                   _TMR3L   0x000fb2       data     extern libdev18f4520_a-pic18f4520.asm
                     _TOS   0x000ffd       data     extern libdev18f4520_a-pic18f4520.asm
                    _TOSH   0x000ffe       data     extern libdev18f4520_a-pic18f4520.asm
                    _TOSL   0x000ffd       data     extern libdev18f4520_a-pic18f4520.asm
                    _TOSU   0x000fff       data     extern libdev18f4520_a-pic18f4520.asm
                   _TRISA   0x000f92       data     extern libdev18f4520_a-pic18f4520.asm
               _TRISAbits   0x000f92       data     extern libdev18f4520_a-pic18f4520.asm
                   _TRISB   0x000f93       data     extern libdev18f4520_a-pic18f4520.asm
               _TRISBbits   0x000f93       data     extern libdev18f4520_a-pic18f4520.asm
                   _TRISC   0x000f94       data     extern libdev18f4520_a-pic18f4520.asm
               _TRISCbits   0x000f94       data     extern libdev18f4520_a-pic18f4520.asm
                   _TRISD   0x000f95       data     extern libdev18f4520_a-pic18f4520.asm
               _TRISDbits   0x000f95       data     extern libdev18f4520_a-pic18f4520.asm
                   _TRISE   0x000f96       data     extern libdev18f4520_a-pic18f4520.asm
               _TRISEbits   0x000f96       data     extern libdev18f4520_a-pic18f4520.asm
                   _TXREG   0x000fad       data     extern libdev18f4520_a-pic18f4520.asm
                   _TXSTA   0x000fac       data     extern libdev18f4520_a-pic18f4520.asm
               _TXSTAbits   0x000fac       data     extern libdev18f4520_a-pic18f4520.asm
                  _WDTCON   0x000fd1       data     extern libdev18f4520_a-pic18f4520.asm
              _WDTCONbits   0x000fd1       data     extern libdev18f4520_a-pic18f4520.asm
                    _WREG   0x000fe8       data     extern libdev18f4520_a-pic18f4520.asm
      ___eeprom8_gptrget1   0x005e2e    program     extern eeprom8_gptrget1.asm
       ___eeprom_gptrget1   0x005f22    program     extern /home/sdcc-builder/build/sdcc-build/orig/sdcc/device/non-free/lib/pic16/libdev/gptr/eeprom8_gptrget1_dispatch.S
                 ___str_0   0x003804    program     static build/default/production/output.asm
                 ___str_1   0x003806    program     static build/default/production/output.asm
                ___str_10   0x00386a    program     static build/default/production/output.asm
                ___str_11   0x00387a    program     static build/default/production/output.asm
                ___str_12   0x00388c    program     static build/default/production/output.asm
                ___str_13   0x00389e    program     static build/default/production/output.asm
                ___str_14   0x0038a4    program     static build/default/production/output.asm
                ___str_15   0x0038a6    program     static build/default/production/output.asm
                ___str_16   0x0038aa    program     static build/default/production/output.asm
                ___str_17   0x0038ae    program     static build/default/production/output.asm
                ___str_18   0x0038c0    program     static build/default/production/output.asm
                ___str_19   0x0038d2    program     static build/default/production/output.asm
                 ___str_2   0x00380c    program     static build/default/production/output.asm
                ___str_20   0x0038da    program     static build/default/production/output.asm
                ___str_21   0x0038ec    program     static build/default/production/output.asm
                ___str_22   0x0038fe    program     static build/default/production/output.asm
                ___str_23   0x003906    program     static build/default/production/output.asm
                ___str_24   0x003918    program     static build/default/production/output.asm
                ___str_25   0x00392a    program     static build/default/production/output.asm
                ___str_26   0x00393c    program     static build/default/production/output.asm
                ___str_27   0x00394e    program     static build/default/production/output.asm
                ___str_28   0x003960    program     static build/default/production/output.asm
                ___str_29   0x003972    program     static build/default/production/output.asm
                 ___str_3   0x00380e    program     static build/default/production/output.asm
                ___str_30   0x00397c    program     static build/default/production/output.asm
                ___str_31   0x00398e    program     static build/default/production/output.asm
                ___str_32   0x0039a0    program     static build/default/production/output.asm
                ___str_33   0x0039aa    program     static build/default/production/output.asm
                ___str_34   0x0039bc    program     static build/default/production/output.asm
                ___str_35   0x0039ce    program     static build/default/production/output.asm
                ___str_36   0x0039e0    program     static build/default/production/output.asm
                ___str_37   0x0039f2    program     static build/default/production/output.asm
                ___str_38   0x003a04    program     static build/default/production/output.asm
                ___str_39   0x003a16    program     static build/default/production/output.asm
                 ___str_4   0x003812    program     static build/default/production/output.asm
                ___str_40   0x003a28    program     static build/default/production/output.asm
                ___str_41   0x003a3a    program     static build/default/production/output.asm
                ___str_42   0x003a4c    program     static build/default/production/output.asm
                ___str_43   0x003a5e    program     static build/default/production/output.asm
                ___str_44   0x003a70    program     static build/default/production/output.asm
                ___str_45   0x003a82    program     static build/default/production/output.asm
                ___str_46   0x003a94    program     static build/default/production/output.asm
                ___str_47   0x003aa6    program     static build/default/production/output.asm
                ___str_48   0x003ab8    program     static build/default/production/output.asm
                ___str_49   0x003aca    program     static build/default/production/output.asm
                 ___str_5   0x003814    program     static build/default/production/output.asm
                ___str_50   0x003adc    program     static build/default/production/output.asm
                ___str_51   0x003ae6    program     static build/default/production/output.asm
                ___str_52   0x003af0    program     static build/default/production/output.asm
                ___str_53   0x003b02    program     static build/default/production/output.asm
                ___str_54   0x003b14    program     static build/default/production/output.asm
                ___str_55   0x003b26    program     static build/default/production/output.asm
                ___str_56   0x003b38    program     static build/default/production/output.asm
                ___str_57   0x003b4a    program     static build/default/production/output.asm
                ___str_58   0x003b5c    program     static build/default/production/output.asm
                ___str_59   0x003b6e    program     static build/default/production/output.asm
                 ___str_6   0x003826    program     static build/default/production/output.asm
                ___str_60   0x003b80    program     static build/default/production/output.asm
                ___str_61   0x003b92    program     static build/default/production/output.asm
                ___str_62   0x003ba4    program     static build/default/production/output.asm
                ___str_63   0x003bb6    program     static build/default/production/output.asm
                ___str_64   0x003bc8    program     static build/default/production/output.asm
                ___str_65   0x003bda    program     static build/default/production/output.asm
                ___str_66   0x003bec    program     static build/default/production/output.asm
                ___str_67   0x003bfe    program     static build/default/production/output.asm
                ___str_68   0x003c10    program     static build/default/production/output.asm
                ___str_69   0x003c22    program     static build/default/production/output.asm
                 ___str_7   0x003838    program     static build/default/production/output.asm
                ___str_70   0x003c34    program     static build/default/production/output.asm
                ___str_71   0x003c46    program     static build/default/production/output.asm
                ___str_72   0x003c58    program     static build/default/production/output.asm
                ___str_73   0x003c6a    program     static build/default/production/output.asm
                ___str_74   0x003c7c    program     static build/default/production/output.asm
                ___str_75   0x003c8e    program     static build/default/production/output.asm
                ___str_76   0x003ca0    program     static build/default/production/output.asm
                ___str_77   0x003cb2    program     static build/default/production/output.asm
                ___str_78   0x003cc4    program     static build/default/production/output.asm
                ___str_79   0x003cd6    program     static build/default/production/output.asm
                 ___str_8   0x00384a    program     static build/default/production/output.asm
                ___str_80   0x003ce8    program     static build/default/production/output.asm
                ___str_81   0x003cfa    program     static build/default/production/output.asm
                ___str_82   0x003d0c    program     static build/default/production/output.asm
                ___str_83   0x003d1e    program     static build/default/production/output.asm
                ___str_84   0x003d30    program     static build/default/production/output.asm
                ___str_85   0x003d42    program     static build/default/production/output.asm
                ___str_86   0x003d54    program     static build/default/production/output.asm
                ___str_87   0x003d66    program     static build/default/production/output.asm
                ___str_88   0x003d78    program     static build/default/production/output.asm
                ___str_89   0x003d8a    program     static build/default/production/output.asm
                 ___str_9   0x00385a    program     static build/default/production/output.asm
                ___str_90   0x003d9c    program     static build/default/production/output.asm
                ___str_91   0x003dae    program     static build/default/production/output.asm
                ___str_92   0x003dc0    program     static build/default/production/output.asm
                ___str_93   0x003dd2    program     static build/default/production/output.asm
                ___str_94   0x003de4    program     static build/default/production/output.asm
                ___str_95   0x003df6    program     static build/default/production/output.asm
                ___uflags   0x0002cf       data     extern crt0iz.asm
                __divsint   0x0043ea    program     extern divsint.asm
               __divuchar   0x0053e6    program     extern divuchar.asm
                __divuint   0x004b12    program     extern divuint.asm
                  __entry   0x000000    program     extern crt0iz.asm
               __gptrget1   0x005d54    program     extern gptrget1.asm
                __modsint   0x0044d8    program     extern modsint.asm
               __moduchar   0x0054d0    program     extern moduchar.asm
                __moduint   0x0049a8    program     extern moduint.asm
                 __mulint   0x004e5c    program     extern mulint.asm
           __mulint_t_1_2   0x000088       data     static mulint.asm
           __mulint_x_1_2   0x000084       data     static mulint.asm
           __mulint_y_1_2   0x000086       data     static mulint.asm
                __startup   0x004bc2    program     extern crt0iz.asm
                 _adcInit   0x005b2e    program     extern build/default/production/adc.asm
                 _adcRead   0x00545c    program     extern build/default/production/adc.asm
            _alarmLevel_H   0x0002f4       data     static build/default/production/var.asm
            _alarmLevel_L   0x0002f6       data     static build/default/production/var.asm
                     _ano   0x000093       data     static build/default/production/stateMachine.asm
            _changeEvento   0x0058e6    program     extern build/default/production/stateMachine.asm
                   _cinit   0x005f14    program     extern 
                      _de   0x00008b       data     extern build/default/production/rtc.asm
                _delay2ms   0x005bd8    program     extern build/default/production/var.asm
               _delay40us   0x005c68    program     extern build/default/production/var.asm
                     _dia   0x000091       data     static build/default/production/stateMachine.asm
             _enableSenha   0x005dae    program     extern build/default/production/var.asm
               _eventInit   0x005dfc    program     extern build/default/production/event.asm
               _eventRead   0x004dba    program     extern build/default/production/event.asm
           _getAlarmLevel   0x00588c    program     extern build/default/production/var.asm
             _getLanguage   0x005ef0    program     extern build/default/production/var.asm
                 _getMult   0x005e9e    program     extern build/default/production/var.asm
              _getPeriodo   0x005268    program     extern build/default/production/stateMachine.asm
          _getSenhaStatus   0x005e88    program     extern build/default/production/var.asm
              _getSenha_i   0x005e72    program     extern build/default/production/var.asm
            _getSenha_try   0x005e5c    program     extern build/default/production/var.asm
                _getState   0x005f02    program     extern build/default/production/var.asm
           _getTestResult   0x005e46    program     extern build/default/production/var.asm
                 _getTime   0x005eb4    program     extern build/default/production/var.asm
                    _hora   0x00008f       data     static build/default/production/stateMachine.asm
              _ht1380read   0x0042c4    program     extern build/default/production/rtc.asm
             _ht1380write   0x00481e    program     extern build/default/production/rtc.asm
                       _i   0x0002f0       data     extern build/default/production/output.asm
                 _initLed   0x005d76    program     extern build/default/production/led.asm
                 _key_ant   0x000082       data     static build/default/production/event.asm
              _kpDebounce   0x004168    program     extern build/default/production/keypad.asm
    _kpDebounce_tempo_1_7   0x00008a       data     static build/default/production/keypad.asm
_kpDebounce_valorAntigo_1_7   0x000202       data     static build/default/production/keypad.asm
_kpDebounce_valorNovo_1_7   0x000201       data     static build/default/production/keypad.asm
                  _kpInit   0x005b6e    program     extern build/default/production/keypad.asm
                  _kpRead   0x005ede    program     extern build/default/production/keypad.asm
                 _lab_01_   0x005d60    program     static gptrget1.asm
                _language   0x00008d       data     static build/default/production/var.asm
              _lcdCommand   0x0051e6    program     extern build/default/production/lcd.asm
                 _lcdData   0x00515c    program     extern build/default/production/lcd.asm
                 _lcdInit   0x004c6e    program     extern build/default/production/lcd.asm
                  _lcdInt   0x004754    program     extern build/default/production/lcd.asm
               _lcdString   0x004efc    program     extern build/default/production/lcd.asm
                  _ledOFF   0x0052ea    program     extern build/default/production/led.asm
                   _ledON   0x005368    program     extern build/default/production/led.asm
                    _main   0x004f9a    program     extern build/default/production/main.asm
                     _mes   0x000092       data     static build/default/production/stateMachine.asm
                     _min   0x000090       data     static build/default/production/stateMachine.asm
                    _msgs   0x000203       data     static build/default/production/output.asm
           _multiplicador   0x000080       data     static build/default/production/var.asm
              _outputInit   0x0037e8    program     extern build/default/production/output.asm
             _outputPrint   0x000004    program     extern build/default/production/output.asm
                  _printf   0x004d14    program     extern build/default/production/stdio.asm
                _readByte   0x005036    program     extern build/default/production/rtc.asm
              _rtcGetDate   0x0059d2    program     extern build/default/production/rtc.asm
               _rtcGetDay   0x005cc2    program     extern build/default/production/rtc.asm
             _rtcGetHours   0x005a18    program     extern build/default/production/rtc.asm
           _rtcGetMinutes   0x005a5e    program     extern build/default/production/rtc.asm
             _rtcGetMonth   0x005aea    program     extern build/default/production/rtc.asm
           _rtcGetSeconds   0x005aa4    program     extern build/default/production/rtc.asm
              _rtcGetYear   0x00598c    program     extern build/default/production/rtc.asm
                 _rtcInit   0x005940    program     extern build/default/production/rtc.asm
              _rtcPutDate   0x005686    program     extern build/default/production/rtc.asm
               _rtcPutDay   0x005c96    program     extern build/default/production/rtc.asm
             _rtcPutHours   0x0056f0    program     extern build/default/production/rtc.asm
           _rtcPutMinutes   0x00575a    program     extern build/default/production/rtc.asm
             _rtcPutMonth   0x00561c    program     extern build/default/production/rtc.asm
           _rtcPutSeconds   0x0057c4    program     extern build/default/production/rtc.asm
              _rtcPutYear   0x0055b2    program     extern build/default/production/rtc.asm
          _rtcSetDateTime   0x0050ce    program     extern build/default/production/rtc.asm
                _rtcStart   0x00582e    program     extern build/default/production/rtc.asm
                   _senha   0x00008e       data     static build/default/production/stateMachine.asm
             _senha_count   0x0002da       data     static build/default/production/var.asm
            _senha_enable   0x0002f8       data     static build/default/production/var.asm
                 _senha_i   0x0002fa       data     static build/default/production/var.asm
               _senha_new   0x0002e4       data     static build/default/production/var.asm
            _senha_result   0x0002fc       data     static build/default/production/var.asm
              _senha_save   0x0002d0       data     static build/default/production/var.asm
               _senha_try   0x0002fe       data     static build/default/production/var.asm
           _setAlarmLevel   0x005544    program     extern build/default/production/var.asm
             _setLanguage   0x005d0e    program     extern build/default/production/var.asm
                 _setMult   0x005dc8    program     extern build/default/production/var.asm
                _setSenha   0x003e08    program     extern build/default/production/var.asm
                _setState   0x005eca    program     extern build/default/production/var.asm
           _setTestResult   0x005d94    program     extern build/default/production/var.asm
                 _setTime   0x005de2    program     extern build/default/production/var.asm
                  _smInit   0x005e16    program     extern build/default/production/stateMachine.asm
                  _smLoop   0x002444    program     extern build/default/production/stateMachine.asm
                   _stack   0x000100       data     extern /home/sdcc-builder/build/sdcc-build/orig/sdcc/device/lib/pic16/libsdcc/stack/stack.S
               _stack_end   0x0001ff       data     extern /home/sdcc-builder/build/sdcc-build/orig/sdcc/device/lib/pic16/libsdcc/stack/stack.S
                   _state   0x00008c       data     static build/default/production/var.asm
               _testSenha   0x004004    program     extern build/default/production/var.asm
                    _time   0x0002f2       data     static build/default/production/var.asm
              _timerEnded   0x005cea    program     extern build/default/production/timer.asm
               _timerInit   0x005c0a    program     extern build/default/production/timer.asm
              _timerReset   0x0048e8    program     extern build/default/production/timer.asm
               _timerWait   0x005d32    program     extern build/default/production/timer.asm
                   _valor   0x000200       data     static build/default/production/keypad.asm
                 _varInit   0x004684    program     extern build/default/production/var.asm
               _writeByte   0x004a62    program     extern build/default/production/rtc.asm
               clear_loop   0x004bd8    program     static crt0iz.asm
                copy_loop   0x004c46    program     static crt0iz.asm
            copy_loop_dec   0x004c4c    program     static crt0iz.asm
               entry_loop   0x004bf8    program     static crt0iz.asm
           entry_loop_dec   0x004c60    program     static crt0iz.asm
                   lockup   0x004c6c    program     static crt0iz.asm
                    r0x00   0x000000       data     static build/default/production/stdio.asm
                    r0x00   0x000000       data     static build/default/production/keypad.asm
                    r0x00   0x000000       data     static moduchar.asm
                    r0x00   0x000000       data     static build/default/production/stateMachine.asm
                    r0x00   0x000000       data     static divuint.asm
                    r0x00   0x000000       data     static divsint.asm
                    r0x00   0x000000       data     static build/default/production/lcd.asm
                    r0x00   0x000000       data     static divuchar.asm
                    r0x00   0x000000       data     static build/default/production/timer.asm
                    r0x00   0x000000       data     static build/default/production/event.asm
                    r0x00   0x000000       data     static moduint.asm
                    r0x00   0x000000       data     static build/default/production/led.asm
                    r0x00   0x000000       data     static modsint.asm
                    r0x00   0x000000       data     static mulint.asm
                    r0x00   0x000000       data     static build/default/production/output.asm
                    r0x00   0x000000       data     static build/default/production/var.asm
                    r0x00   0x000000       data     static build/default/production/main.asm
                    r0x00   0x000000       data     static build/default/production/rtc.asm
                    r0x00   0x000000       data     static build/default/production/adc.asm
                    r0x01   0x000001       data     static build/default/production/adc.asm
                    r0x01   0x000001       data     static divuchar.asm
                    r0x01   0x000001       data     static moduint.asm
                    r0x01   0x000001       data     static build/default/production/rtc.asm
                    r0x01   0x000001       data     static build/default/production/lcd.asm
                    r0x01   0x000001       data     static build/default/production/stdio.asm
                    r0x01   0x000001       data     static build/default/production/main.asm
                    r0x01   0x000001       data     static build/default/production/event.asm
                    r0x01   0x000001       data     static build/default/production/output.asm
                    r0x01   0x000001       data     static divsint.asm
                    r0x01   0x000001       data     static mulint.asm
                    r0x01   0x000001       data     static build/default/production/led.asm
                    r0x01   0x000001       data     static moduchar.asm
                    r0x01   0x000001       data     static build/default/production/var.asm
                    r0x01   0x000001       data     static divuint.asm
                    r0x01   0x000001       data     static modsint.asm
                    r0x01   0x000001       data     static build/default/production/stateMachine.asm
                    r0x01   0x000001       data     static build/default/production/keypad.asm
                    r0x01   0x000001       data     static build/default/production/timer.asm
                    r0x02   0x000002       data     static modsint.asm
                    r0x02   0x000002       data     static build/default/production/keypad.asm
                    r0x02   0x000002       data     static divuint.asm
                    r0x02   0x000002       data     static build/default/production/var.asm
                    r0x02   0x000002       data     static divsint.asm
                    r0x02   0x000002       data     static build/default/production/led.asm
                    r0x02   0x000002       data     static mulint.asm
                    r0x02   0x000002       data     static moduchar.asm
                    r0x02   0x000002       data     static build/default/production/event.asm
                    r0x02   0x000002       data     static build/default/production/output.asm
                    r0x02   0x000002       data     static build/default/production/stateMachine.asm
                    r0x02   0x000002       data     static divuchar.asm
                    r0x02   0x000002       data     static build/default/production/timer.asm
                    r0x02   0x000002       data     static build/default/production/rtc.asm
                    r0x02   0x000002       data     static moduint.asm
                    r0x02   0x000002       data     static build/default/production/adc.asm
                    r0x02   0x000002       data     static build/default/production/lcd.asm
                    r0x02   0x000002       data     static build/default/production/stdio.asm
                    r0x03   0x000003       data     static build/default/production/adc.asm
                    r0x03   0x000003       data     static mulint.asm
                    r0x03   0x000003       data     static build/default/production/led.asm
                    r0x03   0x000003       data     static build/default/production/stdio.asm
                    r0x03   0x000003       data     static modsint.asm
                    r0x03   0x000003       data     static build/default/production/keypad.asm
                    r0x03   0x000003       data     static build/default/production/lcd.asm
                    r0x03   0x000003       data     static build/default/production/output.asm
                    r0x03   0x000003       data     static divuint.asm
                    r0x03   0x000003       data     static moduint.asm
                    r0x03   0x000003       data     static build/default/production/stateMachine.asm
                    r0x03   0x000003       data     static divuchar.asm
                    r0x03   0x000003       data     static moduchar.asm
                    r0x03   0x000003       data     static divsint.asm
                    r0x03   0x000003       data     static build/default/production/timer.asm
                    r0x03   0x000003       data     static build/default/production/event.asm
                    r0x03   0x000003       data     static build/default/production/var.asm
                    r0x04   0x000004       data     static build/default/production/var.asm
                    r0x04   0x000004       data     static build/default/production/led.asm
                    r0x04   0x000004       data     static build/default/production/timer.asm
                    r0x04   0x000004       data     static build/default/production/lcd.asm
                    r0x04   0x000004       data     static build/default/production/keypad.asm
                    r0x04   0x000004       data     static divsint.asm
                    r0x04   0x000004       data     static moduint.asm
                    r0x04   0x000004       data     static divuint.asm
                    r0x04   0x000004       data     static divuchar.asm
                    r0x04   0x000004       data     static build/default/production/event.asm
                    r0x04   0x000004       data     static modsint.asm
                    r0x04   0x000004       data     static build/default/production/stateMachine.asm
                    r0x04   0x000004       data     static build/default/production/output.asm
                    r0x04   0x000004       data     static build/default/production/stdio.asm
                    r0x05   0x000005       data     static build/default/production/var.asm
                    r0x05   0x000005       data     static build/default/production/keypad.asm
                    r0x05   0x000005       data     static build/default/production/timer.asm
                    r0x05   0x000005       data     static moduint.asm
                    r0x05   0x000005       data     static build/default/production/event.asm
                    r0x05   0x000005       data     static build/default/production/stdio.asm
                    r0x05   0x000005       data     static build/default/production/output.asm
                    r0x05   0x000005       data     static divuint.asm
                    r0x05   0x000005       data     static build/default/production/lcd.asm
                    r0x05   0x000005       data     static divsint.asm
                    r0x05   0x000005       data     static modsint.asm
                    r0x06   0x000006       data     static modsint.asm
                    r0x06   0x000006       data     static divuint.asm
                    r0x06   0x000006       data     static build/default/production/stdio.asm
                    r0x06   0x000006       data     static build/default/production/lcd.asm
                    r0x06   0x000006       data     static divsint.asm
                    r0x06   0x000006       data     static build/default/production/output.asm
                    r0x06   0x000006       data     static moduint.asm
                    r0x06   0x000006       data     static build/default/production/var.asm
                    r0x06   0x000006       data     static build/default/production/keypad.asm
                    r0x07   0x000007       data     static divuint.asm
                    r0x07   0x000007       data     static build/default/production/keypad.asm
                    r0x07   0x000007       data     static build/default/production/lcd.asm
                    r0x07   0x000007       data     static divsint.asm
                    r0x07   0x000007       data     static build/default/production/stdio.asm
                    r0x07   0x000007       data     static build/default/production/output.asm
                    r0x08   0x000008       data     static build/default/production/keypad.asm
                    r0x09   0x000009       data     static build/default/production/keypad.asm



                              Symbols - Sorted by Address
                     Name    Address   Location    Storage File
                ---------  ---------  ---------  --------- ---------
                    r0x00   0x000000       data     static build/default/production/led.asm
                    r0x00   0x000000       data     static build/default/production/keypad.asm
                    r0x00   0x000000       data     static moduchar.asm
                    r0x00   0x000000       data     static build/default/production/stateMachine.asm
                  __entry   0x000000    program     extern crt0iz.asm
                    r0x00   0x000000       data     static divuint.asm
                    r0x00   0x000000       data     static divsint.asm
                    r0x00   0x000000       data     static build/default/production/adc.asm
                    r0x00   0x000000       data     static build/default/production/lcd.asm
                    r0x00   0x000000       data     static divuchar.asm
                    r0x00   0x000000       data     static build/default/production/rtc.asm
                    r0x00   0x000000       data     static build/default/production/timer.asm
                    r0x00   0x000000       data     static build/default/production/event.asm
                    r0x00   0x000000       data     static moduint.asm
                    r0x00   0x000000       data     static modsint.asm
                    r0x00   0x000000       data     static mulint.asm
                    r0x00   0x000000       data     static build/default/production/output.asm
                    r0x00   0x000000       data     static build/default/production/main.asm
                    r0x00   0x000000       data     static build/default/production/var.asm
                    r0x00   0x000000       data     static build/default/production/stdio.asm
                    r0x01   0x000001       data     static modsint.asm
                    r0x01   0x000001       data     static build/default/production/keypad.asm
                    r0x01   0x000001       data     static build/default/production/timer.asm
                    r0x01   0x000001       data     static divuint.asm
                    r0x01   0x000001       data     static build/default/production/var.asm
                    r0x01   0x000001       data     static moduchar.asm
                    r0x01   0x000001       data     static build/default/production/led.asm
                    r0x01   0x000001       data     static mulint.asm
                    r0x01   0x000001       data     static divsint.asm
                    r0x01   0x000001       data     static build/default/production/output.asm
                    r0x01   0x000001       data     static build/default/production/event.asm
                    r0x01   0x000001       data     static build/default/production/main.asm
                    r0x01   0x000001       data     static build/default/production/stdio.asm
                    r0x01   0x000001       data     static build/default/production/adc.asm
                    r0x01   0x000001       data     static build/default/production/rtc.asm
                    r0x01   0x000001       data     static build/default/production/lcd.asm
                    r0x01   0x000001       data     static divuchar.asm
                    r0x01   0x000001       data     static moduint.asm
                    r0x01   0x000001       data     static build/default/production/stateMachine.asm
                    r0x02   0x000002       data     static divsint.asm
                    r0x02   0x000002       data     static build/default/production/var.asm
                    r0x02   0x000002       data     static build/default/production/led.asm
                    r0x02   0x000002       data     static mulint.asm
                    r0x02   0x000002       data     static divuint.asm
                    r0x02   0x000002       data     static build/default/production/keypad.asm
                    r0x02   0x000002       data     static build/default/production/timer.asm
                    r0x02   0x000002       data     static build/default/production/rtc.asm
                    r0x02   0x000002       data     static build/default/production/stateMachine.asm
                    r0x02   0x000002       data     static moduint.asm
                    r0x02   0x000002       data     static build/default/production/adc.asm
                    r0x02   0x000002       data     static build/default/production/lcd.asm
                    r0x02   0x000002       data     static moduchar.asm
                    r0x02   0x000002       data     static build/default/production/stdio.asm
                    r0x02   0x000002       data     static build/default/production/output.asm
                    r0x02   0x000002       data     static modsint.asm
                    r0x02   0x000002       data     static build/default/production/event.asm
                    r0x02   0x000002       data     static divuchar.asm
                    r0x03   0x000003       data     static divuint.asm
                    r0x03   0x000003       data     static moduint.asm
                    r0x03   0x000003       data     static build/default/production/keypad.asm
                    r0x03   0x000003       data     static modsint.asm
                    r0x03   0x000003       data     static build/default/production/stdio.asm
                    r0x03   0x000003       data     static build/default/production/led.asm
                    r0x03   0x000003       data     static mulint.asm
                    r0x03   0x000003       data     static build/default/production/lcd.asm
                    r0x03   0x000003       data     static build/default/production/adc.asm
                    r0x03   0x000003       data     static build/default/production/stateMachine.asm
                    r0x03   0x000003       data     static divuchar.asm
                    r0x03   0x000003       data     static moduchar.asm
                    r0x03   0x000003       data     static divsint.asm
                    r0x03   0x000003       data     static build/default/production/timer.asm
                    r0x03   0x000003       data     static build/default/production/event.asm
                    r0x03   0x000003       data     static build/default/production/var.asm
                    r0x03   0x000003       data     static build/default/production/output.asm
                    r0x04   0x000004       data     static build/default/production/stateMachine.asm
                    r0x04   0x000004       data     static build/default/production/output.asm
                    r0x04   0x000004       data     static build/default/production/stdio.asm
                    r0x04   0x000004       data     static build/default/production/event.asm
                    r0x04   0x000004       data     static build/default/production/keypad.asm
                    r0x04   0x000004       data     static divuchar.asm
                    r0x04   0x000004       data     static divuint.asm
                    r0x04   0x000004       data     static moduint.asm
             _outputPrint   0x000004    program     extern build/default/production/output.asm
                    r0x04   0x000004       data     static build/default/production/var.asm
                    r0x04   0x000004       data     static build/default/production/led.asm
                    r0x04   0x000004       data     static build/default/production/timer.asm
                    r0x04   0x000004       data     static divsint.asm
                    r0x04   0x000004       data     static build/default/production/lcd.asm
                    r0x04   0x000004       data     static modsint.asm
                    r0x05   0x000005       data     static build/default/production/event.asm
                    r0x05   0x000005       data     static moduint.asm
                    r0x05   0x000005       data     static build/default/production/var.asm
                    r0x05   0x000005       data     static build/default/production/timer.asm
                    r0x05   0x000005       data     static build/default/production/keypad.asm
                    r0x05   0x000005       data     static build/default/production/stdio.asm
                    r0x05   0x000005       data     static build/default/production/output.asm
                    r0x05   0x000005       data     static divuint.asm
                    r0x05   0x000005       data     static build/default/production/lcd.asm
                    r0x05   0x000005       data     static divsint.asm
                    r0x05   0x000005       data     static modsint.asm
                    r0x06   0x000006       data     static modsint.asm
                    r0x06   0x000006       data     static divuint.asm
                    r0x06   0x000006       data     static build/default/production/stdio.asm
                    r0x06   0x000006       data     static build/default/production/keypad.asm
                    r0x06   0x000006       data     static divsint.asm
                    r0x06   0x000006       data     static build/default/production/output.asm
                    r0x06   0x000006       data     static moduint.asm
                    r0x06   0x000006       data     static build/default/production/var.asm
                    r0x06   0x000006       data     static build/default/production/lcd.asm
                    r0x07   0x000007       data     static divuint.asm
                    r0x07   0x000007       data     static build/default/production/keypad.asm
                    r0x07   0x000007       data     static build/default/production/lcd.asm
                    r0x07   0x000007       data     static divsint.asm
                    r0x07   0x000007       data     static build/default/production/stdio.asm
                    r0x07   0x000007       data     static build/default/production/output.asm
                    r0x08   0x000008       data     static build/default/production/keypad.asm
                    r0x09   0x000009       data     static build/default/production/keypad.asm
           _multiplicador   0x000080       data     static build/default/production/var.asm
                 _key_ant   0x000082       data     static build/default/production/event.asm
           __mulint_x_1_2   0x000084       data     static mulint.asm
           __mulint_y_1_2   0x000086       data     static mulint.asm
           __mulint_t_1_2   0x000088       data     static mulint.asm
    _kpDebounce_tempo_1_7   0x00008a       data     static build/default/production/keypad.asm
                      _de   0x00008b       data     extern build/default/production/rtc.asm
                   _state   0x00008c       data     static build/default/production/var.asm
                _language   0x00008d       data     static build/default/production/var.asm
                   _senha   0x00008e       data     static build/default/production/stateMachine.asm
                    _hora   0x00008f       data     static build/default/production/stateMachine.asm
                     _min   0x000090       data     static build/default/production/stateMachine.asm
                     _dia   0x000091       data     static build/default/production/stateMachine.asm
                     _mes   0x000092       data     static build/default/production/stateMachine.asm
                     _ano   0x000093       data     static build/default/production/stateMachine.asm
                   _stack   0x000100       data     extern /home/sdcc-builder/build/sdcc-build/orig/sdcc/device/lib/pic16/libsdcc/stack/stack.S
               _stack_end   0x0001ff       data     extern /home/sdcc-builder/build/sdcc-build/orig/sdcc/device/lib/pic16/libsdcc/stack/stack.S
                   _valor   0x000200       data     static build/default/production/keypad.asm
_kpDebounce_valorNovo_1_7   0x000201       data     static build/default/production/keypad.asm
_kpDebounce_valorAntigo_1_7   0x000202       data     static build/default/production/keypad.asm
                    _msgs   0x000203       data     static build/default/production/output.asm
               _00111_DS_   0x00027c    program     static build/default/production/output.asm
               _00722_DS_   0x000286    program     static build/default/production/output.asm
               _00723_DS_   0x000288    program     static build/default/production/output.asm
                ___uflags   0x0002cf       data     extern crt0iz.asm
              _senha_save   0x0002d0       data     static build/default/production/var.asm
             _senha_count   0x0002da       data     static build/default/production/var.asm
               _senha_new   0x0002e4       data     static build/default/production/var.asm
                  _ADread   0x0002ee       data     extern build/default/production/output.asm
                       _i   0x0002f0       data     extern build/default/production/output.asm
                    _time   0x0002f2       data     static build/default/production/var.asm
            _alarmLevel_H   0x0002f4       data     static build/default/production/var.asm
            _alarmLevel_L   0x0002f6       data     static build/default/production/var.asm
            _senha_enable   0x0002f8       data     static build/default/production/var.asm
                 _senha_i   0x0002fa       data     static build/default/production/var.asm
            _senha_result   0x0002fc       data     static build/default/production/var.asm
               _senha_try   0x0002fe       data     static build/default/production/var.asm
               _00113_DS_   0x000340    program     static build/default/production/output.asm
               _00724_DS_   0x000354    program     static build/default/production/output.asm
               _00725_DS_   0x000356    program     static build/default/production/output.asm
               _00115_DS_   0x000376    program     static build/default/production/output.asm
               _00726_DS_   0x00038a    program     static build/default/production/output.asm
               _00727_DS_   0x00038c    program     static build/default/production/output.asm
               _00117_DS_   0x0003ac    program     static build/default/production/output.asm
               _00728_DS_   0x0003c0    program     static build/default/production/output.asm
               _00729_DS_   0x0003c2    program     static build/default/production/output.asm
               _00119_DS_   0x0003e2    program     static build/default/production/output.asm
               _00730_DS_   0x0003f6    program     static build/default/production/output.asm
               _00731_DS_   0x0003f8    program     static build/default/production/output.asm
               _00121_DS_   0x000418    program     static build/default/production/output.asm
               _00732_DS_   0x00042c    program     static build/default/production/output.asm
               _00733_DS_   0x00042e    program     static build/default/production/output.asm
               _00338_DS_   0x000456    program     static build/default/production/output.asm
               _10110_DS_   0x000464    program     static build/default/production/output.asm
               _00734_DS_   0x000472    program     static build/default/production/output.asm
               _00124_DS_   0x000474    program     static build/default/production/output.asm
               _00735_DS_   0x000488    program     static build/default/production/output.asm
               _00736_DS_   0x00048a    program     static build/default/production/output.asm
               _00126_DS_   0x0004be    program     static build/default/production/output.asm
               _00128_DS_   0x0004ea    program     static build/default/production/output.asm
               _00340_DS_   0x0004f2    program     static build/default/production/output.asm
               _20111_DS_   0x000500    program     static build/default/production/output.asm
               _00739_DS_   0x00050e    program     static build/default/production/output.asm
               _00133_DS_   0x000510    program     static build/default/production/output.asm
               _00740_DS_   0x00051a    program     static build/default/production/output.asm
               _00741_DS_   0x00051c    program     static build/default/production/output.asm
               _00135_DS_   0x00068a    program     static build/default/production/output.asm
               _00742_DS_   0x000694    program     static build/default/production/output.asm
               _00743_DS_   0x000696    program     static build/default/production/output.asm
               _00137_DS_   0x000748    program     static build/default/production/output.asm
               _00141_DS_   0x000774    program     static build/default/production/output.asm
               _00747_DS_   0x00077e    program     static build/default/production/output.asm
               _00749_DS_   0x000788    program     static build/default/production/output.asm
               _00751_DS_   0x000792    program     static build/default/production/output.asm
               _00752_DS_   0x00079c    program     static build/default/production/output.asm
               _00142_DS_   0x00079e    program     static build/default/production/output.asm
               _00143_DS_   0x0008b2    program     static build/default/production/output.asm
               _00754_DS_   0x0008bc    program     static build/default/production/output.asm
               _00755_DS_   0x0008be    program     static build/default/production/output.asm
               _00148_DS_   0x000970    program     static build/default/production/output.asm
               _00152_DS_   0x00099c    program     static build/default/production/output.asm
               _00759_DS_   0x0009a6    program     static build/default/production/output.asm
               _00761_DS_   0x0009b0    program     static build/default/production/output.asm
               _00762_DS_   0x0009ba    program     static build/default/production/output.asm
               _00153_DS_   0x0009bc    program     static build/default/production/output.asm
               _00154_DS_   0x000ad8    program     static build/default/production/output.asm
               _00764_DS_   0x000ae2    program     static build/default/production/output.asm
               _00765_DS_   0x000ae4    program     static build/default/production/output.asm
               _00158_DS_   0x000b96    program     static build/default/production/output.asm
               _00162_DS_   0x000bc2    program     static build/default/production/output.asm
               _00768_DS_   0x000bcc    program     static build/default/production/output.asm
               _00769_DS_   0x000bce    program     static build/default/production/output.asm
               _00164_DS_   0x000c80    program     static build/default/production/output.asm
               _00168_DS_   0x000cac    program     static build/default/production/output.asm
               _00772_DS_   0x000cb6    program     static build/default/production/output.asm
               _00773_DS_   0x000cb8    program     static build/default/production/output.asm
               _00170_DS_   0x000d60    program     static build/default/production/output.asm
               _00774_DS_   0x000d6a    program     static build/default/production/output.asm
               _00775_DS_   0x000d6c    program     static build/default/production/output.asm
               _00172_DS_   0x000e1e    program     static build/default/production/output.asm
               _00176_DS_   0x000e4a    program     static build/default/production/output.asm
               _00779_DS_   0x000e54    program     static build/default/production/output.asm
               _00781_DS_   0x000e5e    program     static build/default/production/output.asm
               _00782_DS_   0x000e68    program     static build/default/production/output.asm
               _00177_DS_   0x000e6a    program     static build/default/production/output.asm
                   _PORTA   0x000f80       data     extern libdev18f4520_a-pic18f4520.asm
               _PORTAbits   0x000f80       data     extern libdev18f4520_a-pic18f4520.asm
               _PORTBbits   0x000f81       data     extern libdev18f4520_a-pic18f4520.asm
                   _PORTB   0x000f81       data     extern libdev18f4520_a-pic18f4520.asm
               _PORTCbits   0x000f82       data     extern libdev18f4520_a-pic18f4520.asm
                   _PORTC   0x000f82       data     extern libdev18f4520_a-pic18f4520.asm
                   _PORTD   0x000f83       data     extern libdev18f4520_a-pic18f4520.asm
               _PORTDbits   0x000f83       data     extern libdev18f4520_a-pic18f4520.asm
                   _PORTE   0x000f84       data     extern libdev18f4520_a-pic18f4520.asm
               _PORTEbits   0x000f84       data     extern libdev18f4520_a-pic18f4520.asm
                _LATAbits   0x000f89       data     extern libdev18f4520_a-pic18f4520.asm
                    _LATA   0x000f89       data     extern libdev18f4520_a-pic18f4520.asm
                    _LATB   0x000f8a       data     extern libdev18f4520_a-pic18f4520.asm
                _LATBbits   0x000f8a       data     extern libdev18f4520_a-pic18f4520.asm
                    _LATC   0x000f8b       data     extern libdev18f4520_a-pic18f4520.asm
                _LATCbits   0x000f8b       data     extern libdev18f4520_a-pic18f4520.asm
                    _LATD   0x000f8c       data     extern libdev18f4520_a-pic18f4520.asm
                _LATDbits   0x000f8c       data     extern libdev18f4520_a-pic18f4520.asm
                    _LATE   0x000f8d       data     extern libdev18f4520_a-pic18f4520.asm
                _LATEbits   0x000f8d       data     extern libdev18f4520_a-pic18f4520.asm
                   _TRISA   0x000f92       data     extern libdev18f4520_a-pic18f4520.asm
                _DDRAbits   0x000f92       data     extern libdev18f4520_a-pic18f4520.asm
               _TRISAbits   0x000f92       data     extern libdev18f4520_a-pic18f4520.asm
                    _DDRA   0x000f92       data     extern libdev18f4520_a-pic18f4520.asm
                    _DDRB   0x000f93       data     extern libdev18f4520_a-pic18f4520.asm
                _DDRBbits   0x000f93       data     extern libdev18f4520_a-pic18f4520.asm
               _TRISBbits   0x000f93       data     extern libdev18f4520_a-pic18f4520.asm
                   _TRISB   0x000f93       data     extern libdev18f4520_a-pic18f4520.asm
               _TRISCbits   0x000f94       data     extern libdev18f4520_a-pic18f4520.asm
                    _DDRC   0x000f94       data     extern libdev18f4520_a-pic18f4520.asm
                _DDRCbits   0x000f94       data     extern libdev18f4520_a-pic18f4520.asm
                   _TRISC   0x000f94       data     extern libdev18f4520_a-pic18f4520.asm
                _DDRDbits   0x000f95       data     extern libdev18f4520_a-pic18f4520.asm
                    _DDRD   0x000f95       data     extern libdev18f4520_a-pic18f4520.asm
               _TRISDbits   0x000f95       data     extern libdev18f4520_a-pic18f4520.asm
                   _TRISD   0x000f95       data     extern libdev18f4520_a-pic18f4520.asm
                   _TRISE   0x000f96       data     extern libdev18f4520_a-pic18f4520.asm
               _TRISEbits   0x000f96       data     extern libdev18f4520_a-pic18f4520.asm
                _DDREbits   0x000f96       data     extern libdev18f4520_a-pic18f4520.asm
                    _DDRE   0x000f96       data     extern libdev18f4520_a-pic18f4520.asm
             _OSCTUNEbits   0x000f9b       data     extern libdev18f4520_a-pic18f4520.asm
                 _OSCTUNE   0x000f9b       data     extern libdev18f4520_a-pic18f4520.asm
                _PIE1bits   0x000f9d       data     extern libdev18f4520_a-pic18f4520.asm
                    _PIE1   0x000f9d       data     extern libdev18f4520_a-pic18f4520.asm
                _PIR1bits   0x000f9e       data     extern libdev18f4520_a-pic18f4520.asm
                    _PIR1   0x000f9e       data     extern libdev18f4520_a-pic18f4520.asm
                _IPR1bits   0x000f9f       data     extern libdev18f4520_a-pic18f4520.asm
                    _IPR1   0x000f9f       data     extern libdev18f4520_a-pic18f4520.asm
                _PIE2bits   0x000fa0       data     extern libdev18f4520_a-pic18f4520.asm
                    _PIE2   0x000fa0       data     extern libdev18f4520_a-pic18f4520.asm
                    _PIR2   0x000fa1       data     extern libdev18f4520_a-pic18f4520.asm
                _PIR2bits   0x000fa1       data     extern libdev18f4520_a-pic18f4520.asm
                _IPR2bits   0x000fa2       data     extern libdev18f4520_a-pic18f4520.asm
                    _IPR2   0x000fa2       data     extern libdev18f4520_a-pic18f4520.asm
              _EECON1bits   0x000fa6       data     extern libdev18f4520_a-pic18f4520.asm
                  _EECON1   0x000fa6       data     extern libdev18f4520_a-pic18f4520.asm
                  _EECON2   0x000fa7       data     extern libdev18f4520_a-pic18f4520.asm
                  _EEDATA   0x000fa8       data     extern libdev18f4520_a-pic18f4520.asm
                   _EEADR   0x000fa9       data     extern libdev18f4520_a-pic18f4520.asm
                   _RCSTA   0x000fab       data     extern libdev18f4520_a-pic18f4520.asm
               _RCSTAbits   0x000fab       data     extern libdev18f4520_a-pic18f4520.asm
                   _TXSTA   0x000fac       data     extern libdev18f4520_a-pic18f4520.asm
               _TXSTAbits   0x000fac       data     extern libdev18f4520_a-pic18f4520.asm
                   _TXREG   0x000fad       data     extern libdev18f4520_a-pic18f4520.asm
                   _RCREG   0x000fae       data     extern libdev18f4520_a-pic18f4520.asm
                   _SPBRG   0x000faf       data     extern libdev18f4520_a-pic18f4520.asm
                  _SPBRGH   0x000fb0       data     extern libdev18f4520_a-pic18f4520.asm
                   _T3CON   0x000fb1       data     extern libdev18f4520_a-pic18f4520.asm
               _T3CONbits   0x000fb1       data     extern libdev18f4520_a-pic18f4520.asm
                   _TMR3L   0x000fb2       data     extern libdev18f4520_a-pic18f4520.asm
                    _TMR3   0x000fb2       data     extern libdev18f4520_a-pic18f4520.asm
                   _TMR3H   0x000fb3       data     extern libdev18f4520_a-pic18f4520.asm
                   _CMCON   0x000fb4       data     extern libdev18f4520_a-pic18f4520.asm
               _CMCONbits   0x000fb4       data     extern libdev18f4520_a-pic18f4520.asm
                  _CVRCON   0x000fb5       data     extern libdev18f4520_a-pic18f4520.asm
              _CVRCONbits   0x000fb5       data     extern libdev18f4520_a-pic18f4520.asm
             _ECCP1ASbits   0x000fb6       data     extern libdev18f4520_a-pic18f4520.asm
                 _ECCP1AS   0x000fb6       data     extern libdev18f4520_a-pic18f4520.asm
                  _ECCPAS   0x000fb6       data     extern libdev18f4520_a-pic18f4520.asm
              _ECCPASbits   0x000fb6       data     extern libdev18f4520_a-pic18f4520.asm
             _PWM1CONbits   0x000fb7       data     extern libdev18f4520_a-pic18f4520.asm
            _ECCP1DELbits   0x000fb7       data     extern libdev18f4520_a-pic18f4520.asm
                _ECCP1DEL   0x000fb7       data     extern libdev18f4520_a-pic18f4520.asm
                 _PWM1CON   0x000fb7       data     extern libdev18f4520_a-pic18f4520.asm
             _BAUDCONbits   0x000fb8       data     extern libdev18f4520_a-pic18f4520.asm
                 _BAUDCON   0x000fb8       data     extern libdev18f4520_a-pic18f4520.asm
                 _BAUDCTL   0x000fb8       data     extern libdev18f4520_a-pic18f4520.asm
             _BAUDCTLbits   0x000fb8       data     extern libdev18f4520_a-pic18f4520.asm
             _CCP2CONbits   0x000fba       data     extern libdev18f4520_a-pic18f4520.asm
                 _CCP2CON   0x000fba       data     extern libdev18f4520_a-pic18f4520.asm
                  _CCPR2L   0x000fbb       data     extern libdev18f4520_a-pic18f4520.asm
                   _CCPR2   0x000fbb       data     extern libdev18f4520_a-pic18f4520.asm
                  _CCPR2H   0x000fbc       data     extern libdev18f4520_a-pic18f4520.asm
                 _CCP1CON   0x000fbd       data     extern libdev18f4520_a-pic18f4520.asm
             _CCP1CONbits   0x000fbd       data     extern libdev18f4520_a-pic18f4520.asm
                  _CCPR1L   0x000fbe       data     extern libdev18f4520_a-pic18f4520.asm
                   _CCPR1   0x000fbe       data     extern libdev18f4520_a-pic18f4520.asm
               _00178_DS_   0x000fbe    program     static build/default/production/output.asm
                  _CCPR1H   0x000fbf       data     extern libdev18f4520_a-pic18f4520.asm
                  _ADCON2   0x000fc0       data     extern libdev18f4520_a-pic18f4520.asm
              _ADCON2bits   0x000fc0       data     extern libdev18f4520_a-pic18f4520.asm
                  _ADCON1   0x000fc1       data     extern libdev18f4520_a-pic18f4520.asm
              _ADCON1bits   0x000fc1       data     extern libdev18f4520_a-pic18f4520.asm
              _ADCON0bits   0x000fc2       data     extern libdev18f4520_a-pic18f4520.asm
                  _ADCON0   0x000fc2       data     extern libdev18f4520_a-pic18f4520.asm
                  _ADRESL   0x000fc3       data     extern libdev18f4520_a-pic18f4520.asm
                   _ADRES   0x000fc3       data     extern libdev18f4520_a-pic18f4520.asm
                  _ADRESH   0x000fc4       data     extern libdev18f4520_a-pic18f4520.asm
                 _SSPCON2   0x000fc5       data     extern libdev18f4520_a-pic18f4520.asm
             _SSPCON2bits   0x000fc5       data     extern libdev18f4520_a-pic18f4520.asm
                 _SSPCON1   0x000fc6       data     extern libdev18f4520_a-pic18f4520.asm
             _SSPCON1bits   0x000fc6       data     extern libdev18f4520_a-pic18f4520.asm
             _SSPSTATbits   0x000fc7       data     extern libdev18f4520_a-pic18f4520.asm
                 _SSPSTAT   0x000fc7       data     extern libdev18f4520_a-pic18f4520.asm
                  _SSPADD   0x000fc8       data     extern libdev18f4520_a-pic18f4520.asm
               _00784_DS_   0x000fc8    program     static build/default/production/output.asm
                  _SSPBUF   0x000fc9       data     extern libdev18f4520_a-pic18f4520.asm
                   _T2CON   0x000fca       data     extern libdev18f4520_a-pic18f4520.asm
               _T2CONbits   0x000fca       data     extern libdev18f4520_a-pic18f4520.asm
               _00785_DS_   0x000fca    program     static build/default/production/output.asm
                     _PR2   0x000fcb       data     extern libdev18f4520_a-pic18f4520.asm
                    _TMR2   0x000fcc       data     extern libdev18f4520_a-pic18f4520.asm
               _T1CONbits   0x000fcd       data     extern libdev18f4520_a-pic18f4520.asm
                   _T1CON   0x000fcd       data     extern libdev18f4520_a-pic18f4520.asm
                   _TMR1L   0x000fce       data     extern libdev18f4520_a-pic18f4520.asm
                    _TMR1   0x000fce       data     extern libdev18f4520_a-pic18f4520.asm
                   _TMR1H   0x000fcf       data     extern libdev18f4520_a-pic18f4520.asm
                    _RCON   0x000fd0       data     extern libdev18f4520_a-pic18f4520.asm
                _RCONbits   0x000fd0       data     extern libdev18f4520_a-pic18f4520.asm
              _WDTCONbits   0x000fd1       data     extern libdev18f4520_a-pic18f4520.asm
                  _WDTCON   0x000fd1       data     extern libdev18f4520_a-pic18f4520.asm
                 _HLVDCON   0x000fd2       data     extern libdev18f4520_a-pic18f4520.asm
              _LVDCONbits   0x000fd2       data     extern libdev18f4520_a-pic18f4520.asm
             _HLVDCONbits   0x000fd2       data     extern libdev18f4520_a-pic18f4520.asm
                  _LVDCON   0x000fd2       data     extern libdev18f4520_a-pic18f4520.asm
              _OSCCONbits   0x000fd3       data     extern libdev18f4520_a-pic18f4520.asm
                  _OSCCON   0x000fd3       data     extern libdev18f4520_a-pic18f4520.asm
               _T0CONbits   0x000fd5       data     extern libdev18f4520_a-pic18f4520.asm
                   _T0CON   0x000fd5       data     extern libdev18f4520_a-pic18f4520.asm
                   _TMR0L   0x000fd6       data     extern libdev18f4520_a-pic18f4520.asm
                    _TMR0   0x000fd6       data     extern libdev18f4520_a-pic18f4520.asm
                   _TMR0H   0x000fd7       data     extern libdev18f4520_a-pic18f4520.asm
              _STATUSbits   0x000fd8       data     extern libdev18f4520_a-pic18f4520.asm
                  _STATUS   0x000fd8       data     extern libdev18f4520_a-pic18f4520.asm
                   _FSR2L   0x000fd9       data     extern libdev18f4520_a-pic18f4520.asm
                   _FSR2H   0x000fda       data     extern libdev18f4520_a-pic18f4520.asm
                  _PLUSW2   0x000fdb       data     extern libdev18f4520_a-pic18f4520.asm
                 _PREINC2   0x000fdc       data     extern libdev18f4520_a-pic18f4520.asm
                _POSTDEC2   0x000fdd       data     extern libdev18f4520_a-pic18f4520.asm
                _POSTINC2   0x000fde       data     extern libdev18f4520_a-pic18f4520.asm
                   _INDF2   0x000fdf       data     extern libdev18f4520_a-pic18f4520.asm
                     _BSR   0x000fe0       data     extern libdev18f4520_a-pic18f4520.asm
                   _FSR1L   0x000fe1       data     extern libdev18f4520_a-pic18f4520.asm
                   _FSR1H   0x000fe2       data     extern libdev18f4520_a-pic18f4520.asm
                  _PLUSW1   0x000fe3       data     extern libdev18f4520_a-pic18f4520.asm
                 _PREINC1   0x000fe4       data     extern libdev18f4520_a-pic18f4520.asm
                _POSTDEC1   0x000fe5       data     extern libdev18f4520_a-pic18f4520.asm
                _POSTINC1   0x000fe6       data     extern libdev18f4520_a-pic18f4520.asm
                   _INDF1   0x000fe7       data     extern libdev18f4520_a-pic18f4520.asm
                    _WREG   0x000fe8       data     extern libdev18f4520_a-pic18f4520.asm
                   _FSR0L   0x000fe9       data     extern libdev18f4520_a-pic18f4520.asm
                   _FSR0H   0x000fea       data     extern libdev18f4520_a-pic18f4520.asm
                  _PLUSW0   0x000feb       data     extern libdev18f4520_a-pic18f4520.asm
                 _PREINC0   0x000fec       data     extern libdev18f4520_a-pic18f4520.asm
                _POSTDEC0   0x000fed       data     extern libdev18f4520_a-pic18f4520.asm
                _POSTINC0   0x000fee       data     extern libdev18f4520_a-pic18f4520.asm
                   _INDF0   0x000fef       data     extern libdev18f4520_a-pic18f4520.asm
             _INTCON3bits   0x000ff0       data     extern libdev18f4520_a-pic18f4520.asm
                 _INTCON3   0x000ff0       data     extern libdev18f4520_a-pic18f4520.asm
                 _INTCON2   0x000ff1       data     extern libdev18f4520_a-pic18f4520.asm
             _INTCON2bits   0x000ff1       data     extern libdev18f4520_a-pic18f4520.asm
              _INTCONbits   0x000ff2       data     extern libdev18f4520_a-pic18f4520.asm
                  _INTCON   0x000ff2       data     extern libdev18f4520_a-pic18f4520.asm
                   _PRODL   0x000ff3       data     extern libdev18f4520_a-pic18f4520.asm
                    _PROD   0x000ff3       data     extern libdev18f4520_a-pic18f4520.asm
                   _PRODH   0x000ff4       data     extern libdev18f4520_a-pic18f4520.asm
                  _TABLAT   0x000ff5       data     extern libdev18f4520_a-pic18f4520.asm
                 _TBLPTRL   0x000ff6       data     extern libdev18f4520_a-pic18f4520.asm
                  _TBLPTR   0x000ff6       data     extern libdev18f4520_a-pic18f4520.asm
                 _TBLPTRH   0x000ff7       data     extern libdev18f4520_a-pic18f4520.asm
                 _TBLPTRU   0x000ff8       data     extern libdev18f4520_a-pic18f4520.asm
                     _PCL   0x000ff9       data     extern libdev18f4520_a-pic18f4520.asm
                      _PC   0x000ff9       data     extern libdev18f4520_a-pic18f4520.asm
                  _PCLATH   0x000ffa       data     extern libdev18f4520_a-pic18f4520.asm
                  _PCLATU   0x000ffb       data     extern libdev18f4520_a-pic18f4520.asm
                  _STKPTR   0x000ffc       data     extern libdev18f4520_a-pic18f4520.asm
              _STKPTRbits   0x000ffc       data     extern libdev18f4520_a-pic18f4520.asm
                     _TOS   0x000ffd       data     extern libdev18f4520_a-pic18f4520.asm
                    _TOSL   0x000ffd       data     extern libdev18f4520_a-pic18f4520.asm
                    _TOSH   0x000ffe       data     extern libdev18f4520_a-pic18f4520.asm
                    _TOSU   0x000fff       data     extern libdev18f4520_a-pic18f4520.asm
               _00182_DS_   0x00107c    program     static build/default/production/output.asm
               _00186_DS_   0x0010a8    program     static build/default/production/output.asm
               _00789_DS_   0x0010b2    program     static build/default/production/output.asm
               _00791_DS_   0x0010bc    program     static build/default/production/output.asm
               _00792_DS_   0x0010c6    program     static build/default/production/output.asm
               _00187_DS_   0x0010c8    program     static build/default/production/output.asm
               _00188_DS_   0x0011f8    program     static build/default/production/output.asm
               _00794_DS_   0x001202    program     static build/default/production/output.asm
               _00795_DS_   0x001204    program     static build/default/production/output.asm
               _00192_DS_   0x0012ac    program     static build/default/production/output.asm
               _00796_DS_   0x0012b6    program     static build/default/production/output.asm
               _00797_DS_   0x0012b8    program     static build/default/production/output.asm
               _00194_DS_   0x00136a    program     static build/default/production/output.asm
               _00198_DS_   0x001396    program     static build/default/production/output.asm
               _00800_DS_   0x0013a0    program     static build/default/production/output.asm
               _00801_DS_   0x0013a2    program     static build/default/production/output.asm
               _00200_DS_   0x00145a    program     static build/default/production/output.asm
               _00802_DS_   0x00146e    program     static build/default/production/output.asm
               _00803_DS_   0x001470    program     static build/default/production/output.asm
               _00202_DS_   0x001490    program     static build/default/production/output.asm
               _00804_DS_   0x0014a4    program     static build/default/production/output.asm
               _00805_DS_   0x0014a6    program     static build/default/production/output.asm
               _00204_DS_   0x0014c6    program     static build/default/production/output.asm
               _00806_DS_   0x0014da    program     static build/default/production/output.asm
               _00807_DS_   0x0014dc    program     static build/default/production/output.asm
               _00206_DS_   0x0014fc    program     static build/default/production/output.asm
               _00808_DS_   0x001510    program     static build/default/production/output.asm
               _00809_DS_   0x001512    program     static build/default/production/output.asm
               _00208_DS_   0x001532    program     static build/default/production/output.asm
               _00810_DS_   0x001546    program     static build/default/production/output.asm
               _00811_DS_   0x001548    program     static build/default/production/output.asm
               _00210_DS_   0x001568    program     static build/default/production/output.asm
               _00812_DS_   0x00157c    program     static build/default/production/output.asm
               _00813_DS_   0x00157e    program     static build/default/production/output.asm
               _00212_DS_   0x0015b2    program     static build/default/production/output.asm
               _00214_DS_   0x0015de    program     static build/default/production/output.asm
               _00342_DS_   0x0015e6    program     static build/default/production/output.asm
               _30112_DS_   0x0015f4    program     static build/default/production/output.asm
               _00816_DS_   0x001602    program     static build/default/production/output.asm
               _00219_DS_   0x001604    program     static build/default/production/output.asm
               _00817_DS_   0x00160e    program     static build/default/production/output.asm
               _00818_DS_   0x001612    program     static build/default/production/output.asm
               _00221_DS_   0x0016ca    program     static build/default/production/output.asm
               _00819_DS_   0x0016de    program     static build/default/production/output.asm
               _00820_DS_   0x0016e0    program     static build/default/production/output.asm
               _00223_DS_   0x001700    program     static build/default/production/output.asm
               _00821_DS_   0x001714    program     static build/default/production/output.asm
               _00822_DS_   0x001716    program     static build/default/production/output.asm
               _00225_DS_   0x001736    program     static build/default/production/output.asm
               _00823_DS_   0x00174a    program     static build/default/production/output.asm
               _00824_DS_   0x00174c    program     static build/default/production/output.asm
               _00227_DS_   0x00176c    program     static build/default/production/output.asm
               _00825_DS_   0x001780    program     static build/default/production/output.asm
               _00826_DS_   0x001782    program     static build/default/production/output.asm
               _00229_DS_   0x0017a2    program     static build/default/production/output.asm
               _00827_DS_   0x0017b6    program     static build/default/production/output.asm
               _00828_DS_   0x0017b8    program     static build/default/production/output.asm
               _00231_DS_   0x0017d8    program     static build/default/production/output.asm
               _00829_DS_   0x0017f6    program     static build/default/production/output.asm
               _00830_DS_   0x0017f8    program     static build/default/production/output.asm
               _00233_DS_   0x001818    program     static build/default/production/output.asm
               _00831_DS_   0x00182c    program     static build/default/production/output.asm
               _00832_DS_   0x00182e    program     static build/default/production/output.asm
               _00235_DS_   0x00184e    program     static build/default/production/output.asm
               _00833_DS_   0x001862    program     static build/default/production/output.asm
               _00834_DS_   0x001864    program     static build/default/production/output.asm
               _00237_DS_   0x001884    program     static build/default/production/output.asm
               _00835_DS_   0x001898    program     static build/default/production/output.asm
               _00836_DS_   0x00189a    program     static build/default/production/output.asm
               _00239_DS_   0x0018ba    program     static build/default/production/output.asm
               _00837_DS_   0x0018ce    program     static build/default/production/output.asm
               _00838_DS_   0x0018d0    program     static build/default/production/output.asm
               _00241_DS_   0x0018f0    program     static build/default/production/output.asm
               _00839_DS_   0x001904    program     static build/default/production/output.asm
               _00840_DS_   0x001906    program     static build/default/production/output.asm
               _00344_DS_   0x00192e    program     static build/default/production/output.asm
               _40113_DS_   0x00193c    program     static build/default/production/output.asm
               _00841_DS_   0x00194a    program     static build/default/production/output.asm
               _00244_DS_   0x00194c    program     static build/default/production/output.asm
               _00842_DS_   0x001960    program     static build/default/production/output.asm
               _00843_DS_   0x001962    program     static build/default/production/output.asm
               _00246_DS_   0x001996    program     static build/default/production/output.asm
               _00248_DS_   0x0019c2    program     static build/default/production/output.asm
               _00346_DS_   0x0019ca    program     static build/default/production/output.asm
               _50114_DS_   0x0019d8    program     static build/default/production/output.asm
               _00846_DS_   0x0019e6    program     static build/default/production/output.asm
               _00251_DS_   0x0019e8    program     static build/default/production/output.asm
               _00253_DS_   0x001a2e    program     static build/default/production/output.asm
               _00255_DS_   0x001a5a    program     static build/default/production/output.asm
               _00348_DS_   0x001a62    program     static build/default/production/output.asm
               _60115_DS_   0x001a70    program     static build/default/production/output.asm
               _00849_DS_   0x001a7e    program     static build/default/production/output.asm
               _00260_DS_   0x001a80    program     static build/default/production/output.asm
               _00850_DS_   0x001a8a    program     static build/default/production/output.asm
               _00851_DS_   0x001a8c    program     static build/default/production/output.asm
               _00262_DS_   0x001ac0    program     static build/default/production/output.asm
               _00264_DS_   0x001aec    program     static build/default/production/output.asm
               _00350_DS_   0x001af4    program     static build/default/production/output.asm
               _70116_DS_   0x001b02    program     static build/default/production/output.asm
               _00854_DS_   0x001b10    program     static build/default/production/output.asm
               _00267_DS_   0x001b12    program     static build/default/production/output.asm
               _00855_DS_   0x001b1c    program     static build/default/production/output.asm
               _00856_DS_   0x001b1e    program     static build/default/production/output.asm
               _00269_DS_   0x001bd0    program     static build/default/production/output.asm
               _00273_DS_   0x001bfc    program     static build/default/production/output.asm
               _00859_DS_   0x001c06    program     static build/default/production/output.asm
               _00860_DS_   0x001c08    program     static build/default/production/output.asm
               _00275_DS_   0x001cc0    program     static build/default/production/output.asm
               _00861_DS_   0x001cd4    program     static build/default/production/output.asm
               _00862_DS_   0x001cd6    program     static build/default/production/output.asm
               _00277_DS_   0x001cf6    program     static build/default/production/output.asm
               _00863_DS_   0x001d0a    program     static build/default/production/output.asm
               _00864_DS_   0x001d0c    program     static build/default/production/output.asm
               _00279_DS_   0x001d2c    program     static build/default/production/output.asm
               _00865_DS_   0x001d40    program     static build/default/production/output.asm
               _00866_DS_   0x001d42    program     static build/default/production/output.asm
               _00281_DS_   0x001d62    program     static build/default/production/output.asm
               _00867_DS_   0x001d76    program     static build/default/production/output.asm
               _00868_DS_   0x001d78    program     static build/default/production/output.asm
               _00283_DS_   0x001d98    program     static build/default/production/output.asm
               _00869_DS_   0x001dac    program     static build/default/production/output.asm
               _00870_DS_   0x001dae    program     static build/default/production/output.asm
               _00352_DS_   0x001dd6    program     static build/default/production/output.asm
               _80117_DS_   0x001de4    program     static build/default/production/output.asm
               _00871_DS_   0x001df2    program     static build/default/production/output.asm
               _00286_DS_   0x001df4    program     static build/default/production/output.asm
               _00872_DS_   0x001e08    program     static build/default/production/output.asm
               _00873_DS_   0x001e0a    program     static build/default/production/output.asm
               _00288_DS_   0x001e3e    program     static build/default/production/output.asm
               _00290_DS_   0x001e6a    program     static build/default/production/output.asm
               _00354_DS_   0x001e72    program     static build/default/production/output.asm
               _90118_DS_   0x001e80    program     static build/default/production/output.asm
               _00876_DS_   0x001e8e    program     static build/default/production/output.asm
               _00295_DS_   0x001e90    program     static build/default/production/output.asm
               _00877_DS_   0x001e9a    program     static build/default/production/output.asm
               _00878_DS_   0x001e9c    program     static build/default/production/output.asm
               _00297_DS_   0x001f4e    program     static build/default/production/output.asm
               _00301_DS_   0x001f7a    program     static build/default/production/output.asm
               _00881_DS_   0x001f84    program     static build/default/production/output.asm
               _00882_DS_   0x001f86    program     static build/default/production/output.asm
               _00303_DS_   0x002038    program     static build/default/production/output.asm
               _00307_DS_   0x002064    program     static build/default/production/output.asm
               _00885_DS_   0x00206e    program     static build/default/production/output.asm
               _00886_DS_   0x002070    program     static build/default/production/output.asm
               _00309_DS_   0x002118    program     static build/default/production/output.asm
               _00887_DS_   0x002122    program     static build/default/production/output.asm
               _00888_DS_   0x002124    program     static build/default/production/output.asm
               _00311_DS_   0x0021dc    program     static build/default/production/output.asm
               _00889_DS_   0x0021f0    program     static build/default/production/output.asm
               _00890_DS_   0x0021f2    program     static build/default/production/output.asm
               _00313_DS_   0x002212    program     static build/default/production/output.asm
               _00891_DS_   0x002226    program     static build/default/production/output.asm
               _00892_DS_   0x002228    program     static build/default/production/output.asm
               _00315_DS_   0x002248    program     static build/default/production/output.asm
               _00893_DS_   0x00225c    program     static build/default/production/output.asm
               _00894_DS_   0x00225e    program     static build/default/production/output.asm
               _00317_DS_   0x00227e    program     static build/default/production/output.asm
               _00895_DS_   0x002292    program     static build/default/production/output.asm
               _00896_DS_   0x002294    program     static build/default/production/output.asm
               _00319_DS_   0x0022b4    program     static build/default/production/output.asm
               _00897_DS_   0x0022c8    program     static build/default/production/output.asm
               _00898_DS_   0x0022ca    program     static build/default/production/output.asm
               _00321_DS_   0x0022ea    program     static build/default/production/output.asm
               _00899_DS_   0x002308    program     static build/default/production/output.asm
               _00900_DS_   0x00230a    program     static build/default/production/output.asm
               _00323_DS_   0x00233e    program     static build/default/production/output.asm
               _00325_DS_   0x00236a    program     static build/default/production/output.asm
               _00356_DS_   0x002372    program     static build/default/production/output.asm
              _100119_DS_   0x002380    program     static build/default/production/output.asm
               _00903_DS_   0x00238e    program     static build/default/production/output.asm
               _00328_DS_   0x002390    program     static build/default/production/output.asm
               _00330_DS_   0x0023cc    program     static build/default/production/output.asm
               _00332_DS_   0x0023f8    program     static build/default/production/output.asm
               _00358_DS_   0x002400    program     static build/default/production/output.asm
              _110120_DS_   0x00240e    program     static build/default/production/output.asm
               _00906_DS_   0x00241c    program     static build/default/production/output.asm
               _00360_DS_   0x00241e    program     static build/default/production/output.asm
                  _smLoop   0x002444    program     extern build/default/production/stateMachine.asm
               _01007_DS_   0x0024a2    program     static build/default/production/stateMachine.asm
               _00190_DS_   0x00252a    program     static build/default/production/stateMachine.asm
               _01009_DS_   0x00255c    program     static build/default/production/stateMachine.asm
               _00193_DS_   0x00256a    program     static build/default/production/stateMachine.asm
               _01010_DS_   0x00257e    program     static build/default/production/stateMachine.asm
               _01011_DS_   0x002580    program     static build/default/production/stateMachine.asm
               _00195_DS_   0x00258a    program     static build/default/production/stateMachine.asm
               _01012_DS_   0x0025b6    program     static build/default/production/stateMachine.asm
               _00196_DS_   0x0025ba    program     static build/default/production/stateMachine.asm
               _00199_DS_   0x0025f0    program     static build/default/production/stateMachine.asm
               _00201_DS_   0x002600    program     static build/default/production/stateMachine.asm
               _00202_DS_   0x00260c    program     static build/default/production/stateMachine.asm
               _00203_DS_   0x002616    program     static build/default/production/stateMachine.asm
               _00206_DS_   0x002626    program     static build/default/production/stateMachine.asm
               _00209_DS_   0x00263c    program     static build/default/production/stateMachine.asm
               _00211_DS_   0x00264c    program     static build/default/production/stateMachine.asm
               _00212_DS_   0x002658    program     static build/default/production/stateMachine.asm
               _00213_DS_   0x002662    program     static build/default/production/stateMachine.asm
               _00215_DS_   0x002670    program     static build/default/production/stateMachine.asm
               _00218_DS_   0x00267e    program     static build/default/production/stateMachine.asm
               _01030_DS_   0x0026a4    program     static build/default/production/stateMachine.asm
               _00220_DS_   0x0026dc    program     static build/default/production/stateMachine.asm
               _01032_DS_   0x0026e4    program     static build/default/production/stateMachine.asm
               _01033_DS_   0x002706    program     static build/default/production/stateMachine.asm
               _01034_DS_   0x002750    program     static build/default/production/stateMachine.asm
               _00223_DS_   0x002788    program     static build/default/production/stateMachine.asm
               _00227_DS_   0x002798    program     static build/default/production/stateMachine.asm
               _00229_DS_   0x0027a8    program     static build/default/production/stateMachine.asm
               _01040_DS_   0x0027b2    program     static build/default/production/stateMachine.asm
               _00232_DS_   0x0027c0    program     static build/default/production/stateMachine.asm
               _01041_DS_   0x0027e6    program     static build/default/production/stateMachine.asm
               _00234_DS_   0x00281a    program     static build/default/production/stateMachine.asm
               _01043_DS_   0x002822    program     static build/default/production/stateMachine.asm
               _01044_DS_   0x002844    program     static build/default/production/stateMachine.asm
               _01045_DS_   0x002884    program     static build/default/production/stateMachine.asm
               _00237_DS_   0x0028ba    program     static build/default/production/stateMachine.asm
               _00241_DS_   0x0028ca    program     static build/default/production/stateMachine.asm
               _00243_DS_   0x0028da    program     static build/default/production/stateMachine.asm
               _01051_DS_   0x0028e4    program     static build/default/production/stateMachine.asm
               _00246_DS_   0x0028f2    program     static build/default/production/stateMachine.asm
               _01052_DS_   0x00291a    program     static build/default/production/stateMachine.asm
               _01053_DS_   0x002964    program     static build/default/production/stateMachine.asm
               _00248_DS_   0x00299c    program     static build/default/production/stateMachine.asm
               _01056_DS_   0x0029c4    program     static build/default/production/stateMachine.asm
               _00252_DS_   0x0029fc    program     static build/default/production/stateMachine.asm
               _00255_DS_   0x002a0c    program     static build/default/production/stateMachine.asm
               _00257_DS_   0x002a1c    program     static build/default/production/stateMachine.asm
               _01062_DS_   0x002a26    program     static build/default/production/stateMachine.asm
               _00260_DS_   0x002a34    program     static build/default/production/stateMachine.asm
               _01063_DS_   0x002a5c    program     static build/default/production/stateMachine.asm
               _01064_DS_   0x002a9c    program     static build/default/production/stateMachine.asm
               _00262_DS_   0x002ad0    program     static build/default/production/stateMachine.asm
               _01067_DS_   0x002af8    program     static build/default/production/stateMachine.asm
               _00266_DS_   0x002b2e    program     static build/default/production/stateMachine.asm
               _00269_DS_   0x002b3e    program     static build/default/production/stateMachine.asm
               _00271_DS_   0x002b4e    program     static build/default/production/stateMachine.asm
               _01073_DS_   0x002b58    program     static build/default/production/stateMachine.asm
               _00274_DS_   0x002b66    program     static build/default/production/stateMachine.asm
               _00276_DS_   0x002b76    program     static build/default/production/stateMachine.asm
               _00277_DS_   0x002b82    program     static build/default/production/stateMachine.asm
               _00278_DS_   0x002b8c    program     static build/default/production/stateMachine.asm
               _00280_DS_   0x002b9a    program     static build/default/production/stateMachine.asm
               _00283_DS_   0x002ba8    program     static build/default/production/stateMachine.asm
               _00285_DS_   0x002bce    program     static build/default/production/stateMachine.asm
               _00287_DS_   0x002bf6    program     static build/default/production/stateMachine.asm
               _00289_DS_   0x002c06    program     static build/default/production/stateMachine.asm
               _00291_DS_   0x002c16    program     static build/default/production/stateMachine.asm
               _01089_DS_   0x002c20    program     static build/default/production/stateMachine.asm
               _00294_DS_   0x002c2e    program     static build/default/production/stateMachine.asm
               _00296_DS_   0x002c50    program     static build/default/production/stateMachine.asm
               _00298_DS_   0x002c76    program     static build/default/production/stateMachine.asm
               _00300_DS_   0x002c86    program     static build/default/production/stateMachine.asm
               _00302_DS_   0x002c96    program     static build/default/production/stateMachine.asm
               _01097_DS_   0x002ca0    program     static build/default/production/stateMachine.asm
               _00305_DS_   0x002cae    program     static build/default/production/stateMachine.asm
               _01098_DS_   0x002cc8    program     static build/default/production/stateMachine.asm
               _00307_DS_   0x002d02    program     static build/default/production/stateMachine.asm
               _00310_DS_   0x002d52    program     static build/default/production/stateMachine.asm
               _00313_DS_   0x002d62    program     static build/default/production/stateMachine.asm
               _00315_DS_   0x002d72    program     static build/default/production/stateMachine.asm
               _01106_DS_   0x002d7c    program     static build/default/production/stateMachine.asm
               _00318_DS_   0x002d8a    program     static build/default/production/stateMachine.asm
               _00320_DS_   0x002d98    program     static build/default/production/stateMachine.asm
               _00322_DS_   0x002da8    program     static build/default/production/stateMachine.asm
               _00323_DS_   0x002db4    program     static build/default/production/stateMachine.asm
               _00324_DS_   0x002dbe    program     static build/default/production/stateMachine.asm
               _01114_DS_   0x002dc8    program     static build/default/production/stateMachine.asm
               _00328_DS_   0x002dd6    program     static build/default/production/stateMachine.asm
               _00330_DS_   0x002dec    program     static build/default/production/stateMachine.asm
               _00332_DS_   0x002e04    program     static build/default/production/stateMachine.asm
               _01118_DS_   0x002e0e    program     static build/default/production/stateMachine.asm
               _00335_DS_   0x002e1c    program     static build/default/production/stateMachine.asm
               _00337_DS_   0x002e2a    program     static build/default/production/stateMachine.asm
               _00339_DS_   0x002e3a    program     static build/default/production/stateMachine.asm
               _00340_DS_   0x002e46    program     static build/default/production/stateMachine.asm
               _00341_DS_   0x002e50    program     static build/default/production/stateMachine.asm
               _01126_DS_   0x002e5a    program     static build/default/production/stateMachine.asm
               _00345_DS_   0x002e68    program     static build/default/production/stateMachine.asm
               _00346_DS_   0x002e72    program     static build/default/production/stateMachine.asm
               _00347_DS_   0x002e7c    program     static build/default/production/stateMachine.asm
               _00349_DS_   0x002e88    program     static build/default/production/stateMachine.asm
               _00350_DS_   0x002e92    program     static build/default/production/stateMachine.asm
               _01134_DS_   0x002e9c    program     static build/default/production/stateMachine.asm
               _00354_DS_   0x002eaa    program     static build/default/production/stateMachine.asm
               _00356_DS_   0x002edc    program     static build/default/production/stateMachine.asm
               _00360_DS_   0x002f1e    program     static build/default/production/stateMachine.asm
               _01138_DS_   0x002f24    program     static build/default/production/stateMachine.asm
               _00362_DS_   0x002f3a    program     static build/default/production/stateMachine.asm
               _01140_DS_   0x002f40    program     static build/default/production/stateMachine.asm
               _00364_DS_   0x002f56    program     static build/default/production/stateMachine.asm
               _01142_DS_   0x002f60    program     static build/default/production/stateMachine.asm
               _00367_DS_   0x002f7a    program     static build/default/production/stateMachine.asm
               _00371_DS_   0x002fb8    program     static build/default/production/stateMachine.asm
               _00375_DS_   0x002ffa    program     static build/default/production/stateMachine.asm
               _01146_DS_   0x003000    program     static build/default/production/stateMachine.asm
               _00377_DS_   0x003016    program     static build/default/production/stateMachine.asm
               _01148_DS_   0x00301c    program     static build/default/production/stateMachine.asm
               _00379_DS_   0x003032    program     static build/default/production/stateMachine.asm
               _01150_DS_   0x00303c    program     static build/default/production/stateMachine.asm
               _00382_DS_   0x003056    program     static build/default/production/stateMachine.asm
               _00384_DS_   0x003088    program     static build/default/production/stateMachine.asm
               _00388_DS_   0x0030cc    program     static build/default/production/stateMachine.asm
               _01156_DS_   0x0030d2    program     static build/default/production/stateMachine.asm
               _00390_DS_   0x0030e8    program     static build/default/production/stateMachine.asm
               _01158_DS_   0x0030ee    program     static build/default/production/stateMachine.asm
               _00392_DS_   0x003104    program     static build/default/production/stateMachine.asm
               _01160_DS_   0x00310e    program     static build/default/production/stateMachine.asm
               _00395_DS_   0x003128    program     static build/default/production/stateMachine.asm
               _00396_DS_   0x003132    program     static build/default/production/stateMachine.asm
               _00397_DS_   0x00313c    program     static build/default/production/stateMachine.asm
               _00399_DS_   0x003148    program     static build/default/production/stateMachine.asm
               _00400_DS_   0x003152    program     static build/default/production/stateMachine.asm
               _01168_DS_   0x00315c    program     static build/default/production/stateMachine.asm
               _00404_DS_   0x00316a    program     static build/default/production/stateMachine.asm
               _00406_DS_   0x00319c    program     static build/default/production/stateMachine.asm
               _01170_DS_   0x0031a6    program     static build/default/production/stateMachine.asm
               _00408_DS_   0x0031e0    program     static build/default/production/stateMachine.asm
               _00411_DS_   0x0031f0    program     static build/default/production/stateMachine.asm
               _01172_DS_   0x0031f6    program     static build/default/production/stateMachine.asm
               _00414_DS_   0x00320c    program     static build/default/production/stateMachine.asm
               _01174_DS_   0x003212    program     static build/default/production/stateMachine.asm
               _00416_DS_   0x003228    program     static build/default/production/stateMachine.asm
               _01176_DS_   0x003232    program     static build/default/production/stateMachine.asm
               _00419_DS_   0x00324c    program     static build/default/production/stateMachine.asm
               _00421_DS_   0x003282    program     static build/default/production/stateMachine.asm
               _01178_DS_   0x00328c    program     static build/default/production/stateMachine.asm
               _00423_DS_   0x0032ca    program     static build/default/production/stateMachine.asm
               _00426_DS_   0x0032da    program     static build/default/production/stateMachine.asm
               _01181_DS_   0x0032e0    program     static build/default/production/stateMachine.asm
               _00429_DS_   0x0032f6    program     static build/default/production/stateMachine.asm
               _01183_DS_   0x0032fc    program     static build/default/production/stateMachine.asm
               _00431_DS_   0x003312    program     static build/default/production/stateMachine.asm
               _01185_DS_   0x00331c    program     static build/default/production/stateMachine.asm
               _00434_DS_   0x003336    program     static build/default/production/stateMachine.asm
               _00436_DS_   0x003368    program     static build/default/production/stateMachine.asm
               _01187_DS_   0x003372    program     static build/default/production/stateMachine.asm
               _00438_DS_   0x0033ae    program     static build/default/production/stateMachine.asm
               _00441_DS_   0x0033be    program     static build/default/production/stateMachine.asm
               _01190_DS_   0x0033c4    program     static build/default/production/stateMachine.asm
               _00444_DS_   0x0033da    program     static build/default/production/stateMachine.asm
               _01192_DS_   0x0033e0    program     static build/default/production/stateMachine.asm
               _00446_DS_   0x0033f6    program     static build/default/production/stateMachine.asm
               _01194_DS_   0x0033fe    program     static build/default/production/stateMachine.asm
               _00449_DS_   0x003416    program     static build/default/production/stateMachine.asm
               _00451_DS_   0x003424    program     static build/default/production/stateMachine.asm
               _00453_DS_   0x003434    program     static build/default/production/stateMachine.asm
               _00455_DS_   0x003444    program     static build/default/production/stateMachine.asm
               _00456_DS_   0x003452    program     static build/default/production/stateMachine.asm
               _00459_DS_   0x00345e    program     static build/default/production/stateMachine.asm
               _00460_DS_   0x003468    program     static build/default/production/stateMachine.asm
               _00461_DS_   0x003472    program     static build/default/production/stateMachine.asm
               _00464_DS_   0x003482    program     static build/default/production/stateMachine.asm
               _00465_DS_   0x003490    program     static build/default/production/stateMachine.asm
               _00468_DS_   0x00349c    program     static build/default/production/stateMachine.asm
               _01211_DS_   0x0034b0    program     static build/default/production/stateMachine.asm
               _01212_DS_   0x0034b2    program     static build/default/production/stateMachine.asm
               _00470_DS_   0x0034bc    program     static build/default/production/stateMachine.asm
               _01213_DS_   0x0034d8    program     static build/default/production/stateMachine.asm
               _01214_DS_   0x0034da    program     static build/default/production/stateMachine.asm
               _00473_DS_   0x0034f6    program     static build/default/production/stateMachine.asm
               _00486_DS_   0x003514    program     static build/default/production/stateMachine.asm
               _01223_DS_   0x003552    program     static build/default/production/stateMachine.asm
               _00477_DS_   0x003554    program     static build/default/production/stateMachine.asm
               _01225_DS_   0x003568    program     static build/default/production/stateMachine.asm
               _01226_DS_   0x00356a    program     static build/default/production/stateMachine.asm
               _00475_DS_   0x003576    program     static build/default/production/stateMachine.asm
               _00487_DS_   0x0035aa    program     static build/default/production/stateMachine.asm
               _00488_DS_   0x0035b6    program     static build/default/production/stateMachine.asm
               _00490_DS_   0x0035c6    program     static build/default/production/stateMachine.asm
               _00491_DS_   0x0035d0    program     static build/default/production/stateMachine.asm
               _00492_DS_   0x0035da    program     static build/default/production/stateMachine.asm
               _00494_DS_   0x0035e8    program     static build/default/production/stateMachine.asm
               _00497_DS_   0x0035f4    program     static build/default/production/stateMachine.asm
               _01235_DS_   0x003608    program     static build/default/production/stateMachine.asm
               _01236_DS_   0x00360a    program     static build/default/production/stateMachine.asm
               _00499_DS_   0x003614    program     static build/default/production/stateMachine.asm
               _01237_DS_   0x003630    program     static build/default/production/stateMachine.asm
               _01238_DS_   0x003632    program     static build/default/production/stateMachine.asm
               _00502_DS_   0x00363e    program     static build/default/production/stateMachine.asm
               _00504_DS_   0x00365e    program     static build/default/production/stateMachine.asm
               _00505_DS_   0x003668    program     static build/default/production/stateMachine.asm
               _00506_DS_   0x003672    program     static build/default/production/stateMachine.asm
               _00508_DS_   0x003680    program     static build/default/production/stateMachine.asm
               _00511_DS_   0x00368c    program     static build/default/production/stateMachine.asm
               _00513_DS_   0x0036ac    program     static build/default/production/stateMachine.asm
               _00514_DS_   0x0036b6    program     static build/default/production/stateMachine.asm
               _00515_DS_   0x0036c0    program     static build/default/production/stateMachine.asm
               _00517_DS_   0x0036ce    program     static build/default/production/stateMachine.asm
               _00520_DS_   0x0036da    program     static build/default/production/stateMachine.asm
               _00522_DS_   0x0036fa    program     static build/default/production/stateMachine.asm
               _00524_DS_   0x003708    program     static build/default/production/stateMachine.asm
               _00526_DS_   0x003718    program     static build/default/production/stateMachine.asm
               _00527_DS_   0x003726    program     static build/default/production/stateMachine.asm
               _00530_DS_   0x003732    program     static build/default/production/stateMachine.asm
               _01263_DS_   0x003746    program     static build/default/production/stateMachine.asm
               _01264_DS_   0x003748    program     static build/default/production/stateMachine.asm
               _00532_DS_   0x003752    program     static build/default/production/stateMachine.asm
               _01265_DS_   0x00376e    program     static build/default/production/stateMachine.asm
               _01266_DS_   0x003770    program     static build/default/production/stateMachine.asm
               _00535_DS_   0x0037a6    program     static build/default/production/stateMachine.asm
              _outputInit   0x0037e8    program     extern build/default/production/output.asm
                 ___str_0   0x003804    program     static build/default/production/output.asm
                 ___str_1   0x003806    program     static build/default/production/output.asm
                 ___str_2   0x00380c    program     static build/default/production/output.asm
                 ___str_3   0x00380e    program     static build/default/production/output.asm
                 ___str_4   0x003812    program     static build/default/production/output.asm
                 ___str_5   0x003814    program     static build/default/production/output.asm
                 ___str_6   0x003826    program     static build/default/production/output.asm
                 ___str_7   0x003838    program     static build/default/production/output.asm
                 ___str_8   0x00384a    program     static build/default/production/output.asm
                 ___str_9   0x00385a    program     static build/default/production/output.asm
                ___str_10   0x00386a    program     static build/default/production/output.asm
                ___str_11   0x00387a    program     static build/default/production/output.asm
                ___str_12   0x00388c    program     static build/default/production/output.asm
                ___str_13   0x00389e    program     static build/default/production/output.asm
                ___str_14   0x0038a4    program     static build/default/production/output.asm
                ___str_15   0x0038a6    program     static build/default/production/output.asm
                ___str_16   0x0038aa    program     static build/default/production/output.asm
                ___str_17   0x0038ae    program     static build/default/production/output.asm
                ___str_18   0x0038c0    program     static build/default/production/output.asm
                ___str_19   0x0038d2    program     static build/default/production/output.asm
                ___str_20   0x0038da    program     static build/default/production/output.asm
                ___str_21   0x0038ec    program     static build/default/production/output.asm
                ___str_22   0x0038fe    program     static build/default/production/output.asm
                ___str_23   0x003906    program     static build/default/production/output.asm
                ___str_24   0x003918    program     static build/default/production/output.asm
                ___str_25   0x00392a    program     static build/default/production/output.asm
                ___str_26   0x00393c    program     static build/default/production/output.asm
                ___str_27   0x00394e    program     static build/default/production/output.asm
                ___str_28   0x003960    program     static build/default/production/output.asm
                ___str_29   0x003972    program     static build/default/production/output.asm
                ___str_30   0x00397c    program     static build/default/production/output.asm
                ___str_31   0x00398e    program     static build/default/production/output.asm
                ___str_32   0x0039a0    program     static build/default/production/output.asm
                ___str_33   0x0039aa    program     static build/default/production/output.asm
                ___str_34   0x0039bc    program     static build/default/production/output.asm
                ___str_35   0x0039ce    program     static build/default/production/output.asm
                ___str_36   0x0039e0    program     static build/default/production/output.asm
                ___str_37   0x0039f2    program     static build/default/production/output.asm
                ___str_38   0x003a04    program     static build/default/production/output.asm
                ___str_39   0x003a16    program     static build/default/production/output.asm
                ___str_40   0x003a28    program     static build/default/production/output.asm
                ___str_41   0x003a3a    program     static build/default/production/output.asm
                ___str_42   0x003a4c    program     static build/default/production/output.asm
                ___str_43   0x003a5e    program     static build/default/production/output.asm
                ___str_44   0x003a70    program     static build/default/production/output.asm
                ___str_45   0x003a82    program     static build/default/production/output.asm
                ___str_46   0x003a94    program     static build/default/production/output.asm
                ___str_47   0x003aa6    program     static build/default/production/output.asm
                ___str_48   0x003ab8    program     static build/default/production/output.asm
                ___str_49   0x003aca    program     static build/default/production/output.asm
                ___str_50   0x003adc    program     static build/default/production/output.asm
                ___str_51   0x003ae6    program     static build/default/production/output.asm
                ___str_52   0x003af0    program     static build/default/production/output.asm
                ___str_53   0x003b02    program     static build/default/production/output.asm
                ___str_54   0x003b14    program     static build/default/production/output.asm
                ___str_55   0x003b26    program     static build/default/production/output.asm
                ___str_56   0x003b38    program     static build/default/production/output.asm
                ___str_57   0x003b4a    program     static build/default/production/output.asm
                ___str_58   0x003b5c    program     static build/default/production/output.asm
                ___str_59   0x003b6e    program     static build/default/production/output.asm
                ___str_60   0x003b80    program     static build/default/production/output.asm
                ___str_61   0x003b92    program     static build/default/production/output.asm
                ___str_62   0x003ba4    program     static build/default/production/output.asm
                ___str_63   0x003bb6    program     static build/default/production/output.asm
                ___str_64   0x003bc8    program     static build/default/production/output.asm
                ___str_65   0x003bda    program     static build/default/production/output.asm
                ___str_66   0x003bec    program     static build/default/production/output.asm
                ___str_67   0x003bfe    program     static build/default/production/output.asm
                ___str_68   0x003c10    program     static build/default/production/output.asm
                ___str_69   0x003c22    program     static build/default/production/output.asm
                ___str_70   0x003c34    program     static build/default/production/output.asm
                ___str_71   0x003c46    program     static build/default/production/output.asm
                ___str_72   0x003c58    program     static build/default/production/output.asm
                ___str_73   0x003c6a    program     static build/default/production/output.asm
                ___str_74   0x003c7c    program     static build/default/production/output.asm
                ___str_75   0x003c8e    program     static build/default/production/output.asm
                ___str_76   0x003ca0    program     static build/default/production/output.asm
                ___str_77   0x003cb2    program     static build/default/production/output.asm
                ___str_78   0x003cc4    program     static build/default/production/output.asm
                ___str_79   0x003cd6    program     static build/default/production/output.asm
                ___str_80   0x003ce8    program     static build/default/production/output.asm
                ___str_81   0x003cfa    program     static build/default/production/output.asm
                ___str_82   0x003d0c    program     static build/default/production/output.asm
                ___str_83   0x003d1e    program     static build/default/production/output.asm
                ___str_84   0x003d30    program     static build/default/production/output.asm
                ___str_85   0x003d42    program     static build/default/production/output.asm
                ___str_86   0x003d54    program     static build/default/production/output.asm
                ___str_87   0x003d66    program     static build/default/production/output.asm
                ___str_88   0x003d78    program     static build/default/production/output.asm
                ___str_89   0x003d8a    program     static build/default/production/output.asm
                ___str_90   0x003d9c    program     static build/default/production/output.asm
                ___str_91   0x003dae    program     static build/default/production/output.asm
                ___str_92   0x003dc0    program     static build/default/production/output.asm
                ___str_93   0x003dd2    program     static build/default/production/output.asm
                ___str_94   0x003de4    program     static build/default/production/output.asm
                ___str_95   0x003df6    program     static build/default/production/output.asm
                _setSenha   0x003e08    program     extern build/default/production/var.asm
               _00347_DS_   0x003e4e    program     static build/default/production/var.asm
               _00299_DS_   0x003e92    program     static build/default/production/var.asm
               _10298_DS_   0x003e92    program     static build/default/production/var.asm
               _00348_DS_   0x003ea6    program     static build/default/production/var.asm
               _20299_DS_   0x003eee    program     static build/default/production/var.asm
               _00302_DS_   0x003eee    program     static build/default/production/var.asm
               _00349_DS_   0x003f04    program     static build/default/production/var.asm
               _00350_DS_   0x003f06    program     static build/default/production/var.asm
               _00310_DS_   0x003f14    program     static build/default/production/var.asm
               _00352_DS_   0x003f58    program     static build/default/production/var.asm
               _00311_DS_   0x003f70    program     static build/default/production/var.asm
               _00312_DS_   0x003f86    program     static build/default/production/var.asm
               _00309_DS_   0x003fde    program     static build/default/production/var.asm
               _00314_DS_   0x003fe2    program     static build/default/production/var.asm
               _testSenha   0x004004    program     extern build/default/production/var.asm
               _00286_DS_   0x00403e    program     static build/default/production/var.asm
               _30300_DS_   0x004056    program     static build/default/production/var.asm
               _00251_DS_   0x004088    program     static build/default/production/var.asm
               _00287_DS_   0x004096    program     static build/default/production/var.asm
               _00288_DS_   0x004098    program     static build/default/production/var.asm
               _00255_DS_   0x0040a0    program     static build/default/production/var.asm
               _00289_DS_   0x0040ae    program     static build/default/production/var.asm
               _00290_DS_   0x0040b0    program     static build/default/production/var.asm
               _00261_DS_   0x0040b6    program     static build/default/production/var.asm
               _00292_DS_   0x0040fa    program     static build/default/production/var.asm
               _40301_DS_   0x004104    program     static build/default/production/var.asm
               _00262_DS_   0x004112    program     static build/default/production/var.asm
               _00260_DS_   0x004142    program     static build/default/production/var.asm
               _00263_DS_   0x004146    program     static build/default/production/var.asm
              _kpDebounce   0x004168    program     extern build/default/production/keypad.asm
               _00122_DS_   0x00419e    program     static build/default/production/keypad.asm
               _00150_DS_   0x0041aa    program     static build/default/production/keypad.asm
               _00149_DS_   0x0041b0    program     static build/default/production/keypad.asm
               _00120_DS_   0x0041c4    program     static build/default/production/keypad.asm
               _00152_DS_   0x0041ec    program     static build/default/production/keypad.asm
               _00154_DS_   0x0041f6    program     static build/default/production/keypad.asm
               _00153_DS_   0x0041f8    program     static build/default/production/keypad.asm
               _00151_DS_   0x004204    program     static build/default/production/keypad.asm
               _00156_DS_   0x004226    program     static build/default/production/keypad.asm
               _00155_DS_   0x00422c    program     static build/default/production/keypad.asm
               _00111_DS_   0x004234    program     static build/default/production/keypad.asm
               _00159_DS_   0x004246    program     static build/default/production/keypad.asm
               _00158_DS_   0x00424c    program     static build/default/production/keypad.asm
               _00121_DS_   0x004256    program     static build/default/production/keypad.asm
               _00164_DS_   0x00427c    program     static build/default/production/keypad.asm
               _00116_DS_   0x004282    program     static build/default/production/keypad.asm
               _00117_DS_   0x00428c    program     static build/default/production/keypad.asm
               _00124_DS_   0x004296    program     static build/default/production/keypad.asm
              _ht1380read   0x0042c4    program     extern build/default/production/rtc.asm
               _00217_DS_   0x00434c    program     static build/default/production/rtc.asm
               _00220_DS_   0x00435c    program     static build/default/production/rtc.asm
               _00223_DS_   0x00436c    program     static build/default/production/rtc.asm
               _00226_DS_   0x00437c    program     static build/default/production/rtc.asm
                __divsint   0x0043ea    program     extern divsint.asm
               _00110_DS_   0x004446    program     static divsint.asm
               _00111_DS_   0x00444e    program     static divsint.asm
               _00112_DS_   0x00446a    program     static divsint.asm
               _00113_DS_   0x004472    program     static divsint.asm
               _00106_DS_   0x0044ac    program     static divsint.asm
               _00108_DS_   0x0044b2    program     static divsint.asm
                __modsint   0x0044d8    program     extern modsint.asm
               _00110_DS_   0x004530    program     static modsint.asm
               _00111_DS_   0x004538    program     static modsint.asm
               _00112_DS_   0x00454e    program     static modsint.asm
               _00113_DS_   0x004556    program     static modsint.asm
               _00106_DS_   0x00458c    program     static modsint.asm
               _00108_DS_   0x004592    program     static modsint.asm
                 _varInit   0x004684    program     extern build/default/production/var.asm
               _00124_DS_   0x0046ce    program     static build/default/production/var.asm
               _50302_DS_   0x004712    program     static build/default/production/var.asm
               _00134_DS_   0x004722    program     static build/default/production/var.asm
                  _lcdInt   0x004754    program     extern build/default/production/lcd.asm
               _00146_DS_   0x004792    program     static build/default/production/lcd.asm
             _ht1380write   0x00481e    program     extern build/default/production/rtc.asm
              _timerReset   0x0048e8    program     extern build/default/production/timer.asm
                __moduint   0x0049a8    program     extern moduint.asm
               _00107_DS_   0x0049e8    program     static moduint.asm
               _00136_DS_   0x004a04    program     static moduint.asm
               _00106_DS_   0x004a0e    program     static moduint.asm
               _00112_DS_   0x004a16    program     static moduint.asm
               _00137_DS_   0x004a20    program     static moduint.asm
               _00111_DS_   0x004a2a    program     static moduint.asm
               _writeByte   0x004a62    program     extern build/default/production/rtc.asm
               _00127_DS_   0x004a7e    program     static build/default/production/rtc.asm
               _00116_DS_   0x004a96    program     static build/default/production/rtc.asm
               _00117_DS_   0x004aa8    program     static build/default/production/rtc.asm
               _00123_DS_   0x004ac4    program     static build/default/production/rtc.asm
               _00126_DS_   0x004ae6    program     static build/default/production/rtc.asm
                __divuint   0x004b12    program     extern divuint.asm
               _00109_DS_   0x004b5a    program     static divuint.asm
               _00127_DS_   0x004b7e    program     static divuint.asm
               _00110_DS_   0x004b8a    program     static divuint.asm
                __startup   0x004bc2    program     extern crt0iz.asm
               clear_loop   0x004bd8    program     static crt0iz.asm
               entry_loop   0x004bf8    program     static crt0iz.asm
                copy_loop   0x004c46    program     static crt0iz.asm
            copy_loop_dec   0x004c4c    program     static crt0iz.asm
           entry_loop_dec   0x004c60    program     static crt0iz.asm
                   lockup   0x004c6c    program     static crt0iz.asm
                 _lcdInit   0x004c6e    program     extern build/default/production/lcd.asm
                  _printf   0x004d14    program     extern build/default/production/stdio.asm
               _00106_DS_   0x004d52    program     static build/default/production/stdio.asm
               _00114_DS_   0x004d92    program     static build/default/production/stdio.asm
               _eventRead   0x004dba    program     extern build/default/production/event.asm
               _00143_DS_   0x004e00    program     static build/default/production/event.asm
               _00111_DS_   0x004e0a    program     static build/default/production/event.asm
               _00113_DS_   0x004e14    program     static build/default/production/event.asm
               _00115_DS_   0x004e1e    program     static build/default/production/event.asm
               _00117_DS_   0x004e28    program     static build/default/production/event.asm
               _00121_DS_   0x004e30    program     static build/default/production/event.asm
                 __mulint   0x004e5c    program     extern mulint.asm
               _lcdString   0x004efc    program     extern build/default/production/lcd.asm
               _00152_DS_   0x004f3a    program     static build/default/production/lcd.asm
               _00155_DS_   0x004f74    program     static build/default/production/lcd.asm
                    _main   0x004f9a    program     extern build/default/production/main.asm
               _00106_DS_   0x00500c    program     static build/default/production/main.asm
                _readByte   0x005036    program     extern build/default/production/rtc.asm
               _00171_DS_   0x00504e    program     static build/default/production/rtc.asm
               _00167_DS_   0x005066    program     static build/default/production/rtc.asm
               _00162_DS_   0x005088    program     static build/default/production/rtc.asm
               _00170_DS_   0x0050a0    program     static build/default/production/rtc.asm
          _rtcSetDateTime   0x0050ce    program     extern build/default/production/rtc.asm
                 _lcdData   0x00515c    program     extern build/default/production/lcd.asm
              _lcdCommand   0x0051e6    program     extern build/default/production/lcd.asm
               _00124_DS_   0x005256    program     static build/default/production/lcd.asm
               _00126_DS_   0x00525a    program     static build/default/production/lcd.asm
              _getPeriodo   0x005268    program     extern build/default/production/stateMachine.asm
               _00176_DS_   0x00528e    program     static build/default/production/stateMachine.asm
               _00177_DS_   0x005290    program     static build/default/production/stateMachine.asm
               _00150_DS_   0x005296    program     static build/default/production/stateMachine.asm
               _00178_DS_   0x0052a0    program     static build/default/production/stateMachine.asm
               _00179_DS_   0x0052a2    program     static build/default/production/stateMachine.asm
               _00152_DS_   0x0052a8    program     static build/default/production/stateMachine.asm
               _00180_DS_   0x0052b2    program     static build/default/production/stateMachine.asm
               _00181_DS_   0x0052b4    program     static build/default/production/stateMachine.asm
               _00154_DS_   0x0052ba    program     static build/default/production/stateMachine.asm
               _00182_DS_   0x0052c4    program     static build/default/production/stateMachine.asm
               _00183_DS_   0x0052c6    program     static build/default/production/stateMachine.asm
               _00156_DS_   0x0052cc    program     static build/default/production/stateMachine.asm
               _00184_DS_   0x0052d6    program     static build/default/production/stateMachine.asm
               _00185_DS_   0x0052d8    program     static build/default/production/stateMachine.asm
               _00159_DS_   0x0052dc    program     static build/default/production/stateMachine.asm
                  _ledOFF   0x0052ea    program     extern build/default/production/led.asm
               _00123_DS_   0x00532a    program     static build/default/production/led.asm
               _00125_DS_   0x005334    program     static build/default/production/led.asm
               _00124_DS_   0x005336    program     static build/default/production/led.asm
               _00122_DS_   0x00533e    program     static build/default/production/led.asm
                   _ledON   0x005368    program     extern build/default/production/led.asm
               _00113_DS_   0x0053a8    program     static build/default/production/led.asm
               _00115_DS_   0x0053b2    program     static build/default/production/led.asm
               _00114_DS_   0x0053b4    program     static build/default/production/led.asm
               _00112_DS_   0x0053bc    program     static build/default/production/led.asm
               __divuchar   0x0053e6    program     extern divuchar.asm
               _00109_DS_   0x005414    program     static divuchar.asm
               _00110_DS_   0x005434    program     static divuchar.asm
                 _adcRead   0x00545c    program     extern build/default/production/adc.asm
               _00110_DS_   0x005486    program     static build/default/production/adc.asm
               __moduchar   0x0054d0    program     extern moduchar.asm
               _00107_DS_   0x0054f8    program     static moduchar.asm
               _00106_DS_   0x00550c    program     static moduchar.asm
               _00112_DS_   0x005514    program     static moduchar.asm
               _00111_DS_   0x00551e    program     static moduchar.asm
           _setAlarmLevel   0x005544    program     extern build/default/production/var.asm
               _00202_DS_   0x00557e    program     static build/default/production/var.asm
               _00203_DS_   0x005580    program     static build/default/production/var.asm
               _00191_DS_   0x005588    program     static build/default/production/var.asm
               _00204_DS_   0x005592    program     static build/default/production/var.asm
               _00205_DS_   0x005594    program     static build/default/production/var.asm
               _00194_DS_   0x00559c    program     static build/default/production/var.asm
              _rtcPutYear   0x0055b2    program     extern build/default/production/rtc.asm
             _rtcPutMonth   0x00561c    program     extern build/default/production/rtc.asm
              _rtcPutDate   0x005686    program     extern build/default/production/rtc.asm
             _rtcPutHours   0x0056f0    program     extern build/default/production/rtc.asm
           _rtcPutMinutes   0x00575a    program     extern build/default/production/rtc.asm
           _rtcPutSeconds   0x0057c4    program     extern build/default/production/rtc.asm
                _rtcStart   0x00582e    program     extern build/default/production/rtc.asm
           _getAlarmLevel   0x00588c    program     extern build/default/production/var.asm
               _00182_DS_   0x0058b2    program     static build/default/production/var.asm
               _00183_DS_   0x0058b4    program     static build/default/production/var.asm
               _00170_DS_   0x0058be    program     static build/default/production/var.asm
               _00184_DS_   0x0058c8    program     static build/default/production/var.asm
               _00185_DS_   0x0058ca    program     static build/default/production/var.asm
               _00172_DS_   0x0058d4    program     static build/default/production/var.asm
               _00174_DS_   0x0058d8    program     static build/default/production/var.asm
            _changeEvento   0x0058e6    program     extern build/default/production/stateMachine.asm
               _00111_DS_   0x005908    program     static build/default/production/stateMachine.asm
               _00113_DS_   0x005914    program     static build/default/production/stateMachine.asm
               _00115_DS_   0x005920    program     static build/default/production/stateMachine.asm
               _00117_DS_   0x00592a    program     static build/default/production/stateMachine.asm
               _00120_DS_   0x005936    program     static build/default/production/stateMachine.asm
                 _rtcInit   0x005940    program     extern build/default/production/rtc.asm
              _rtcGetYear   0x00598c    program     extern build/default/production/rtc.asm
              _rtcGetDate   0x0059d2    program     extern build/default/production/rtc.asm
             _rtcGetHours   0x005a18    program     extern build/default/production/rtc.asm
           _rtcGetMinutes   0x005a5e    program     extern build/default/production/rtc.asm
           _rtcGetSeconds   0x005aa4    program     extern build/default/production/rtc.asm
             _rtcGetMonth   0x005aea    program     extern build/default/production/rtc.asm
                 _adcInit   0x005b2e    program     extern build/default/production/adc.asm
                  _kpInit   0x005b6e    program     extern build/default/production/keypad.asm
                _Delay2ms   0x005ba6    program     extern build/default/production/lcd.asm
               _00117_DS_   0x005bba    program     static build/default/production/lcd.asm
                _delay2ms   0x005bd8    program     extern build/default/production/var.asm
               _00117_DS_   0x005bec    program     static build/default/production/var.asm
               _timerInit   0x005c0a    program     extern build/default/production/timer.asm
               _Delay40us   0x005c3a    program     extern build/default/production/lcd.asm
               _00108_DS_   0x005c4e    program     static build/default/production/lcd.asm
               _delay40us   0x005c68    program     extern build/default/production/var.asm
               _00108_DS_   0x005c7c    program     static build/default/production/var.asm
               _rtcPutDay   0x005c96    program     extern build/default/production/rtc.asm
               _rtcGetDay   0x005cc2    program     extern build/default/production/rtc.asm
              _timerEnded   0x005cea    program     extern build/default/production/timer.asm
             _setLanguage   0x005d0e    program     extern build/default/production/var.asm
               _timerWait   0x005d32    program     extern build/default/production/timer.asm
               _00110_DS_   0x005d3e    program     static build/default/production/timer.asm
               __gptrget1   0x005d54    program     extern gptrget1.asm
                 _lab_01_   0x005d60    program     static gptrget1.asm
                 _initLed   0x005d76    program     extern build/default/production/led.asm
           _setTestResult   0x005d94    program     extern build/default/production/var.asm
             _enableSenha   0x005dae    program     extern build/default/production/var.asm
                 _setMult   0x005dc8    program     extern build/default/production/var.asm
                 _setTime   0x005de2    program     extern build/default/production/var.asm
               _eventInit   0x005dfc    program     extern build/default/production/event.asm
                  _smInit   0x005e16    program     extern build/default/production/stateMachine.asm
      ___eeprom8_gptrget1   0x005e2e    program     extern eeprom8_gptrget1.asm
           _getTestResult   0x005e46    program     extern build/default/production/var.asm
            _getSenha_try   0x005e5c    program     extern build/default/production/var.asm
              _getSenha_i   0x005e72    program     extern build/default/production/var.asm
          _getSenhaStatus   0x005e88    program     extern build/default/production/var.asm
                 _getMult   0x005e9e    program     extern build/default/production/var.asm
                 _getTime   0x005eb4    program     extern build/default/production/var.asm
                _setState   0x005eca    program     extern build/default/production/var.asm
                  _kpRead   0x005ede    program     extern build/default/production/keypad.asm
             _getLanguage   0x005ef0    program     extern build/default/production/var.asm
                _getState   0x005f02    program     extern build/default/production/var.asm
                   _cinit   0x005f14    program     extern 
       ___eeprom_gptrget1   0x005f22    program     extern /home/sdcc-builder/build/sdcc-build/orig/sdcc/device/non-free/lib/pic16/libdev/gptr/eeprom8_gptrget1_dispatch.S


